ARM GAS  C:\Users\ADMINI~1\AppData\Local\Temp\ccwfdPpv.s 			page 1


   1              		.cpu cortex-m3
   2              		.eabi_attribute 20, 1
   3              		.eabi_attribute 21, 1
   4              		.eabi_attribute 23, 3
   5              		.eabi_attribute 24, 1
   6              		.eabi_attribute 25, 1
   7              		.eabi_attribute 26, 1
   8              		.eabi_attribute 30, 1
   9              		.eabi_attribute 34, 1
  10              		.eabi_attribute 18, 4
  11              		.file	"stm32f1xx_hal_dma.c"
  12              		.text
  13              	.Ltext0:
  14              		.cfi_sections	.debug_frame
  15              		.section	.text._ZL13DMA_SetConfigP19__DMA_HandleTypeDefmmm,"ax",%progbits
  16              		.align	1
  17              		.syntax unified
  18              		.thumb
  19              		.thumb_func
  20              		.fpu softvfp
  22              	_ZL13DMA_SetConfigP19__DMA_HandleTypeDefmmm:
  23              		.fnstart
  24              	.LFB76:
  25              		.file 1 "E:/VisualStudioCode/STM32F1_HAL/Drivers/STM32F1xx_HAL_Driver/Src/stm32f1xx_hal_dma.c"
   1:E:/VisualStudioCode/STM32F1_HAL/Drivers/STM32F1xx_HAL_Driver/Src\stm32f1xx_hal_dma.c **** /**
   2:E:/VisualStudioCode/STM32F1_HAL/Drivers/STM32F1xx_HAL_Driver/Src\stm32f1xx_hal_dma.c ****   ******************************************************************************
   3:E:/VisualStudioCode/STM32F1_HAL/Drivers/STM32F1xx_HAL_Driver/Src\stm32f1xx_hal_dma.c ****   * @file    stm32f1xx_hal_dma.c
   4:E:/VisualStudioCode/STM32F1_HAL/Drivers/STM32F1xx_HAL_Driver/Src\stm32f1xx_hal_dma.c ****   * @author  MCD Application Team
   5:E:/VisualStudioCode/STM32F1_HAL/Drivers/STM32F1xx_HAL_Driver/Src\stm32f1xx_hal_dma.c ****   * @brief   DMA HAL module driver.
   6:E:/VisualStudioCode/STM32F1_HAL/Drivers/STM32F1xx_HAL_Driver/Src\stm32f1xx_hal_dma.c ****   *         This file provides firmware functions to manage the following
   7:E:/VisualStudioCode/STM32F1_HAL/Drivers/STM32F1xx_HAL_Driver/Src\stm32f1xx_hal_dma.c ****   *         functionalities of the Direct Memory Access (DMA) peripheral:
   8:E:/VisualStudioCode/STM32F1_HAL/Drivers/STM32F1xx_HAL_Driver/Src\stm32f1xx_hal_dma.c ****   *           + Initialization and de-initialization functions
   9:E:/VisualStudioCode/STM32F1_HAL/Drivers/STM32F1xx_HAL_Driver/Src\stm32f1xx_hal_dma.c ****   *           + IO operation functions
  10:E:/VisualStudioCode/STM32F1_HAL/Drivers/STM32F1xx_HAL_Driver/Src\stm32f1xx_hal_dma.c ****   *           + Peripheral State and errors functions
  11:E:/VisualStudioCode/STM32F1_HAL/Drivers/STM32F1xx_HAL_Driver/Src\stm32f1xx_hal_dma.c ****   @verbatim
  12:E:/VisualStudioCode/STM32F1_HAL/Drivers/STM32F1xx_HAL_Driver/Src\stm32f1xx_hal_dma.c ****   ==============================================================================
  13:E:/VisualStudioCode/STM32F1_HAL/Drivers/STM32F1xx_HAL_Driver/Src\stm32f1xx_hal_dma.c ****                         ##### How to use this driver #####
  14:E:/VisualStudioCode/STM32F1_HAL/Drivers/STM32F1xx_HAL_Driver/Src\stm32f1xx_hal_dma.c ****   ==============================================================================
  15:E:/VisualStudioCode/STM32F1_HAL/Drivers/STM32F1xx_HAL_Driver/Src\stm32f1xx_hal_dma.c ****   [..]
  16:E:/VisualStudioCode/STM32F1_HAL/Drivers/STM32F1xx_HAL_Driver/Src\stm32f1xx_hal_dma.c ****    (#) Enable and configure the peripheral to be connected to the DMA Channel
  17:E:/VisualStudioCode/STM32F1_HAL/Drivers/STM32F1xx_HAL_Driver/Src\stm32f1xx_hal_dma.c ****        (except for internal SRAM / FLASH memories: no initialization is 
  18:E:/VisualStudioCode/STM32F1_HAL/Drivers/STM32F1xx_HAL_Driver/Src\stm32f1xx_hal_dma.c ****        necessary). Please refer to the Reference manual for connection between peripherals
  19:E:/VisualStudioCode/STM32F1_HAL/Drivers/STM32F1xx_HAL_Driver/Src\stm32f1xx_hal_dma.c ****        and DMA requests.
  20:E:/VisualStudioCode/STM32F1_HAL/Drivers/STM32F1xx_HAL_Driver/Src\stm32f1xx_hal_dma.c **** 
  21:E:/VisualStudioCode/STM32F1_HAL/Drivers/STM32F1xx_HAL_Driver/Src\stm32f1xx_hal_dma.c ****    (#) For a given Channel, program the required configuration through the following parameters:
  22:E:/VisualStudioCode/STM32F1_HAL/Drivers/STM32F1xx_HAL_Driver/Src\stm32f1xx_hal_dma.c ****        Channel request, Transfer Direction, Source and Destination data formats,
  23:E:/VisualStudioCode/STM32F1_HAL/Drivers/STM32F1xx_HAL_Driver/Src\stm32f1xx_hal_dma.c ****        Circular or Normal mode, Channel Priority level, Source and Destination Increment mode
  24:E:/VisualStudioCode/STM32F1_HAL/Drivers/STM32F1xx_HAL_Driver/Src\stm32f1xx_hal_dma.c ****        using HAL_DMA_Init() function.
  25:E:/VisualStudioCode/STM32F1_HAL/Drivers/STM32F1xx_HAL_Driver/Src\stm32f1xx_hal_dma.c **** 
  26:E:/VisualStudioCode/STM32F1_HAL/Drivers/STM32F1xx_HAL_Driver/Src\stm32f1xx_hal_dma.c ****    (#) Use HAL_DMA_GetState() function to return the DMA state and HAL_DMA_GetError() in case of er
  27:E:/VisualStudioCode/STM32F1_HAL/Drivers/STM32F1xx_HAL_Driver/Src\stm32f1xx_hal_dma.c ****        detection.
  28:E:/VisualStudioCode/STM32F1_HAL/Drivers/STM32F1xx_HAL_Driver/Src\stm32f1xx_hal_dma.c ****                     
  29:E:/VisualStudioCode/STM32F1_HAL/Drivers/STM32F1xx_HAL_Driver/Src\stm32f1xx_hal_dma.c ****    (#) Use HAL_DMA_Abort() function to abort the current transfer
  30:E:/VisualStudioCode/STM32F1_HAL/Drivers/STM32F1xx_HAL_Driver/Src\stm32f1xx_hal_dma.c ****                    
  31:E:/VisualStudioCode/STM32F1_HAL/Drivers/STM32F1xx_HAL_Driver/Src\stm32f1xx_hal_dma.c ****      -@-   In Memory-to-Memory transfer mode, Circular mode is not allowed.
  32:E:/VisualStudioCode/STM32F1_HAL/Drivers/STM32F1xx_HAL_Driver/Src\stm32f1xx_hal_dma.c ****      *** Polling mode IO operation ***
  33:E:/VisualStudioCode/STM32F1_HAL/Drivers/STM32F1xx_HAL_Driver/Src\stm32f1xx_hal_dma.c ****      =================================
ARM GAS  C:\Users\ADMINI~1\AppData\Local\Temp\ccwfdPpv.s 			page 2


  34:E:/VisualStudioCode/STM32F1_HAL/Drivers/STM32F1xx_HAL_Driver/Src\stm32f1xx_hal_dma.c ****     [..]
  35:E:/VisualStudioCode/STM32F1_HAL/Drivers/STM32F1xx_HAL_Driver/Src\stm32f1xx_hal_dma.c ****           (+) Use HAL_DMA_Start() to start DMA transfer after the configuration of Source
  36:E:/VisualStudioCode/STM32F1_HAL/Drivers/STM32F1xx_HAL_Driver/Src\stm32f1xx_hal_dma.c ****               address and destination address and the Length of data to be transferred
  37:E:/VisualStudioCode/STM32F1_HAL/Drivers/STM32F1xx_HAL_Driver/Src\stm32f1xx_hal_dma.c ****           (+) Use HAL_DMA_PollForTransfer() to poll for the end of current transfer, in this
  38:E:/VisualStudioCode/STM32F1_HAL/Drivers/STM32F1xx_HAL_Driver/Src\stm32f1xx_hal_dma.c ****               case a fixed Timeout can be configured by User depending from his application.
  39:E:/VisualStudioCode/STM32F1_HAL/Drivers/STM32F1xx_HAL_Driver/Src\stm32f1xx_hal_dma.c **** 
  40:E:/VisualStudioCode/STM32F1_HAL/Drivers/STM32F1xx_HAL_Driver/Src\stm32f1xx_hal_dma.c ****      *** Interrupt mode IO operation ***
  41:E:/VisualStudioCode/STM32F1_HAL/Drivers/STM32F1xx_HAL_Driver/Src\stm32f1xx_hal_dma.c ****      ===================================
  42:E:/VisualStudioCode/STM32F1_HAL/Drivers/STM32F1xx_HAL_Driver/Src\stm32f1xx_hal_dma.c ****     [..]
  43:E:/VisualStudioCode/STM32F1_HAL/Drivers/STM32F1xx_HAL_Driver/Src\stm32f1xx_hal_dma.c ****           (+) Configure the DMA interrupt priority using HAL_NVIC_SetPriority()
  44:E:/VisualStudioCode/STM32F1_HAL/Drivers/STM32F1xx_HAL_Driver/Src\stm32f1xx_hal_dma.c ****           (+) Enable the DMA IRQ handler using HAL_NVIC_EnableIRQ()
  45:E:/VisualStudioCode/STM32F1_HAL/Drivers/STM32F1xx_HAL_Driver/Src\stm32f1xx_hal_dma.c ****           (+) Use HAL_DMA_Start_IT() to start DMA transfer after the configuration of
  46:E:/VisualStudioCode/STM32F1_HAL/Drivers/STM32F1xx_HAL_Driver/Src\stm32f1xx_hal_dma.c ****               Source address and destination address and the Length of data to be transferred.
  47:E:/VisualStudioCode/STM32F1_HAL/Drivers/STM32F1xx_HAL_Driver/Src\stm32f1xx_hal_dma.c ****               In this case the DMA interrupt is configured
  48:E:/VisualStudioCode/STM32F1_HAL/Drivers/STM32F1xx_HAL_Driver/Src\stm32f1xx_hal_dma.c ****           (+) Use HAL_DMA_IRQHandler() called under DMA_IRQHandler() Interrupt subroutine
  49:E:/VisualStudioCode/STM32F1_HAL/Drivers/STM32F1xx_HAL_Driver/Src\stm32f1xx_hal_dma.c ****           (+) At the end of data transfer HAL_DMA_IRQHandler() function is executed and user can
  50:E:/VisualStudioCode/STM32F1_HAL/Drivers/STM32F1xx_HAL_Driver/Src\stm32f1xx_hal_dma.c ****               add his own function by customization of function pointer XferCpltCallback and
  51:E:/VisualStudioCode/STM32F1_HAL/Drivers/STM32F1xx_HAL_Driver/Src\stm32f1xx_hal_dma.c ****               XferErrorCallback (i.e. a member of DMA handle structure).
  52:E:/VisualStudioCode/STM32F1_HAL/Drivers/STM32F1xx_HAL_Driver/Src\stm32f1xx_hal_dma.c **** 
  53:E:/VisualStudioCode/STM32F1_HAL/Drivers/STM32F1xx_HAL_Driver/Src\stm32f1xx_hal_dma.c ****      *** DMA HAL driver macros list ***
  54:E:/VisualStudioCode/STM32F1_HAL/Drivers/STM32F1xx_HAL_Driver/Src\stm32f1xx_hal_dma.c ****      ============================================= 
  55:E:/VisualStudioCode/STM32F1_HAL/Drivers/STM32F1xx_HAL_Driver/Src\stm32f1xx_hal_dma.c ****       [..]
  56:E:/VisualStudioCode/STM32F1_HAL/Drivers/STM32F1xx_HAL_Driver/Src\stm32f1xx_hal_dma.c ****        Below the list of most used macros in DMA HAL driver.
  57:E:/VisualStudioCode/STM32F1_HAL/Drivers/STM32F1xx_HAL_Driver/Src\stm32f1xx_hal_dma.c **** 
  58:E:/VisualStudioCode/STM32F1_HAL/Drivers/STM32F1xx_HAL_Driver/Src\stm32f1xx_hal_dma.c ****        (+) __HAL_DMA_ENABLE: Enable the specified DMA Channel.
  59:E:/VisualStudioCode/STM32F1_HAL/Drivers/STM32F1xx_HAL_Driver/Src\stm32f1xx_hal_dma.c ****        (+) __HAL_DMA_DISABLE: Disable the specified DMA Channel.
  60:E:/VisualStudioCode/STM32F1_HAL/Drivers/STM32F1xx_HAL_Driver/Src\stm32f1xx_hal_dma.c ****        (+) __HAL_DMA_GET_FLAG: Get the DMA Channel pending flags.
  61:E:/VisualStudioCode/STM32F1_HAL/Drivers/STM32F1xx_HAL_Driver/Src\stm32f1xx_hal_dma.c ****        (+) __HAL_DMA_CLEAR_FLAG: Clear the DMA Channel pending flags.
  62:E:/VisualStudioCode/STM32F1_HAL/Drivers/STM32F1xx_HAL_Driver/Src\stm32f1xx_hal_dma.c ****        (+) __HAL_DMA_ENABLE_IT: Enable the specified DMA Channel interrupts.
  63:E:/VisualStudioCode/STM32F1_HAL/Drivers/STM32F1xx_HAL_Driver/Src\stm32f1xx_hal_dma.c ****        (+) __HAL_DMA_DISABLE_IT: Disable the specified DMA Channel interrupts.
  64:E:/VisualStudioCode/STM32F1_HAL/Drivers/STM32F1xx_HAL_Driver/Src\stm32f1xx_hal_dma.c ****        (+) __HAL_DMA_GET_IT_SOURCE: Check whether the specified DMA Channel interrupt has occurred 
  65:E:/VisualStudioCode/STM32F1_HAL/Drivers/STM32F1xx_HAL_Driver/Src\stm32f1xx_hal_dma.c **** 
  66:E:/VisualStudioCode/STM32F1_HAL/Drivers/STM32F1xx_HAL_Driver/Src\stm32f1xx_hal_dma.c ****      [..] 
  67:E:/VisualStudioCode/STM32F1_HAL/Drivers/STM32F1xx_HAL_Driver/Src\stm32f1xx_hal_dma.c ****       (@) You can refer to the DMA HAL driver header file for more useful macros  
  68:E:/VisualStudioCode/STM32F1_HAL/Drivers/STM32F1xx_HAL_Driver/Src\stm32f1xx_hal_dma.c **** 
  69:E:/VisualStudioCode/STM32F1_HAL/Drivers/STM32F1xx_HAL_Driver/Src\stm32f1xx_hal_dma.c ****   @endverbatim
  70:E:/VisualStudioCode/STM32F1_HAL/Drivers/STM32F1xx_HAL_Driver/Src\stm32f1xx_hal_dma.c ****   ******************************************************************************
  71:E:/VisualStudioCode/STM32F1_HAL/Drivers/STM32F1xx_HAL_Driver/Src\stm32f1xx_hal_dma.c ****   * @attention
  72:E:/VisualStudioCode/STM32F1_HAL/Drivers/STM32F1xx_HAL_Driver/Src\stm32f1xx_hal_dma.c ****   *
  73:E:/VisualStudioCode/STM32F1_HAL/Drivers/STM32F1xx_HAL_Driver/Src\stm32f1xx_hal_dma.c ****   * <h2><center>&copy; COPYRIGHT(c) 2017 STMicroelectronics</center></h2>
  74:E:/VisualStudioCode/STM32F1_HAL/Drivers/STM32F1xx_HAL_Driver/Src\stm32f1xx_hal_dma.c ****   *
  75:E:/VisualStudioCode/STM32F1_HAL/Drivers/STM32F1xx_HAL_Driver/Src\stm32f1xx_hal_dma.c ****   * Redistribution and use in source and binary forms, with or without modification,
  76:E:/VisualStudioCode/STM32F1_HAL/Drivers/STM32F1xx_HAL_Driver/Src\stm32f1xx_hal_dma.c ****   * are permitted provided that the following conditions are met:
  77:E:/VisualStudioCode/STM32F1_HAL/Drivers/STM32F1xx_HAL_Driver/Src\stm32f1xx_hal_dma.c ****   *   1. Redistributions of source code must retain the above copyright notice,
  78:E:/VisualStudioCode/STM32F1_HAL/Drivers/STM32F1xx_HAL_Driver/Src\stm32f1xx_hal_dma.c ****   *      this list of conditions and the following disclaimer.
  79:E:/VisualStudioCode/STM32F1_HAL/Drivers/STM32F1xx_HAL_Driver/Src\stm32f1xx_hal_dma.c ****   *   2. Redistributions in binary form must reproduce the above copyright notice,
  80:E:/VisualStudioCode/STM32F1_HAL/Drivers/STM32F1xx_HAL_Driver/Src\stm32f1xx_hal_dma.c ****   *      this list of conditions and the following disclaimer in the documentation
  81:E:/VisualStudioCode/STM32F1_HAL/Drivers/STM32F1xx_HAL_Driver/Src\stm32f1xx_hal_dma.c ****   *      and/or other materials provided with the distribution.
  82:E:/VisualStudioCode/STM32F1_HAL/Drivers/STM32F1xx_HAL_Driver/Src\stm32f1xx_hal_dma.c ****   *   3. Neither the name of STMicroelectronics nor the names of its contributors
  83:E:/VisualStudioCode/STM32F1_HAL/Drivers/STM32F1xx_HAL_Driver/Src\stm32f1xx_hal_dma.c ****   *      may be used to endorse or promote products derived from this software
  84:E:/VisualStudioCode/STM32F1_HAL/Drivers/STM32F1xx_HAL_Driver/Src\stm32f1xx_hal_dma.c ****   *      without specific prior written permission.
  85:E:/VisualStudioCode/STM32F1_HAL/Drivers/STM32F1xx_HAL_Driver/Src\stm32f1xx_hal_dma.c ****   *
  86:E:/VisualStudioCode/STM32F1_HAL/Drivers/STM32F1xx_HAL_Driver/Src\stm32f1xx_hal_dma.c ****   * THIS SOFTWARE IS PROVIDED BY THE COPYRIGHT HOLDERS AND CONTRIBUTORS "AS IS"
  87:E:/VisualStudioCode/STM32F1_HAL/Drivers/STM32F1xx_HAL_Driver/Src\stm32f1xx_hal_dma.c ****   * AND ANY EXPRESS OR IMPLIED WARRANTIES, INCLUDING, BUT NOT LIMITED TO, THE
  88:E:/VisualStudioCode/STM32F1_HAL/Drivers/STM32F1xx_HAL_Driver/Src\stm32f1xx_hal_dma.c ****   * IMPLIED WARRANTIES OF MERCHANTABILITY AND FITNESS FOR A PARTICULAR PURPOSE ARE
  89:E:/VisualStudioCode/STM32F1_HAL/Drivers/STM32F1xx_HAL_Driver/Src\stm32f1xx_hal_dma.c ****   * DISCLAIMED. IN NO EVENT SHALL THE COPYRIGHT HOLDER OR CONTRIBUTORS BE LIABLE
  90:E:/VisualStudioCode/STM32F1_HAL/Drivers/STM32F1xx_HAL_Driver/Src\stm32f1xx_hal_dma.c ****   * FOR ANY DIRECT, INDIRECT, INCIDENTAL, SPECIAL, EXEMPLARY, OR CONSEQUENTIAL
ARM GAS  C:\Users\ADMINI~1\AppData\Local\Temp\ccwfdPpv.s 			page 3


  91:E:/VisualStudioCode/STM32F1_HAL/Drivers/STM32F1xx_HAL_Driver/Src\stm32f1xx_hal_dma.c ****   * DAMAGES (INCLUDING, BUT NOT LIMITED TO, PROCUREMENT OF SUBSTITUTE GOODS OR
  92:E:/VisualStudioCode/STM32F1_HAL/Drivers/STM32F1xx_HAL_Driver/Src\stm32f1xx_hal_dma.c ****   * SERVICES; LOSS OF USE, DATA, OR PROFITS; OR BUSINESS INTERRUPTION) HOWEVER
  93:E:/VisualStudioCode/STM32F1_HAL/Drivers/STM32F1xx_HAL_Driver/Src\stm32f1xx_hal_dma.c ****   * CAUSED AND ON ANY THEORY OF LIABILITY, WHETHER IN CONTRACT, STRICT LIABILITY,
  94:E:/VisualStudioCode/STM32F1_HAL/Drivers/STM32F1xx_HAL_Driver/Src\stm32f1xx_hal_dma.c ****   * OR TORT (INCLUDING NEGLIGENCE OR OTHERWISE) ARISING IN ANY WAY OUT OF THE USE
  95:E:/VisualStudioCode/STM32F1_HAL/Drivers/STM32F1xx_HAL_Driver/Src\stm32f1xx_hal_dma.c ****   * OF THIS SOFTWARE, EVEN IF ADVISED OF THE POSSIBILITY OF SUCH DAMAGE.
  96:E:/VisualStudioCode/STM32F1_HAL/Drivers/STM32F1xx_HAL_Driver/Src\stm32f1xx_hal_dma.c ****   *
  97:E:/VisualStudioCode/STM32F1_HAL/Drivers/STM32F1xx_HAL_Driver/Src\stm32f1xx_hal_dma.c ****   ******************************************************************************
  98:E:/VisualStudioCode/STM32F1_HAL/Drivers/STM32F1xx_HAL_Driver/Src\stm32f1xx_hal_dma.c ****   */
  99:E:/VisualStudioCode/STM32F1_HAL/Drivers/STM32F1xx_HAL_Driver/Src\stm32f1xx_hal_dma.c **** 
 100:E:/VisualStudioCode/STM32F1_HAL/Drivers/STM32F1xx_HAL_Driver/Src\stm32f1xx_hal_dma.c **** /* Includes ------------------------------------------------------------------*/
 101:E:/VisualStudioCode/STM32F1_HAL/Drivers/STM32F1xx_HAL_Driver/Src\stm32f1xx_hal_dma.c **** #include "stm32f1xx_hal.h"
 102:E:/VisualStudioCode/STM32F1_HAL/Drivers/STM32F1xx_HAL_Driver/Src\stm32f1xx_hal_dma.c **** 
 103:E:/VisualStudioCode/STM32F1_HAL/Drivers/STM32F1xx_HAL_Driver/Src\stm32f1xx_hal_dma.c **** /** @addtogroup STM32F1xx_HAL_Driver
 104:E:/VisualStudioCode/STM32F1_HAL/Drivers/STM32F1xx_HAL_Driver/Src\stm32f1xx_hal_dma.c ****   * @{
 105:E:/VisualStudioCode/STM32F1_HAL/Drivers/STM32F1xx_HAL_Driver/Src\stm32f1xx_hal_dma.c ****   */
 106:E:/VisualStudioCode/STM32F1_HAL/Drivers/STM32F1xx_HAL_Driver/Src\stm32f1xx_hal_dma.c **** 
 107:E:/VisualStudioCode/STM32F1_HAL/Drivers/STM32F1xx_HAL_Driver/Src\stm32f1xx_hal_dma.c **** /** @defgroup DMA DMA
 108:E:/VisualStudioCode/STM32F1_HAL/Drivers/STM32F1xx_HAL_Driver/Src\stm32f1xx_hal_dma.c ****   * @brief DMA HAL module driver
 109:E:/VisualStudioCode/STM32F1_HAL/Drivers/STM32F1xx_HAL_Driver/Src\stm32f1xx_hal_dma.c ****   * @{
 110:E:/VisualStudioCode/STM32F1_HAL/Drivers/STM32F1xx_HAL_Driver/Src\stm32f1xx_hal_dma.c ****   */
 111:E:/VisualStudioCode/STM32F1_HAL/Drivers/STM32F1xx_HAL_Driver/Src\stm32f1xx_hal_dma.c **** 
 112:E:/VisualStudioCode/STM32F1_HAL/Drivers/STM32F1xx_HAL_Driver/Src\stm32f1xx_hal_dma.c **** #ifdef HAL_DMA_MODULE_ENABLED
 113:E:/VisualStudioCode/STM32F1_HAL/Drivers/STM32F1xx_HAL_Driver/Src\stm32f1xx_hal_dma.c **** 
 114:E:/VisualStudioCode/STM32F1_HAL/Drivers/STM32F1xx_HAL_Driver/Src\stm32f1xx_hal_dma.c **** /* Private typedef -----------------------------------------------------------*/
 115:E:/VisualStudioCode/STM32F1_HAL/Drivers/STM32F1xx_HAL_Driver/Src\stm32f1xx_hal_dma.c **** /* Private define ------------------------------------------------------------*/
 116:E:/VisualStudioCode/STM32F1_HAL/Drivers/STM32F1xx_HAL_Driver/Src\stm32f1xx_hal_dma.c **** /* Private macro -------------------------------------------------------------*/
 117:E:/VisualStudioCode/STM32F1_HAL/Drivers/STM32F1xx_HAL_Driver/Src\stm32f1xx_hal_dma.c **** /* Private variables ---------------------------------------------------------*/
 118:E:/VisualStudioCode/STM32F1_HAL/Drivers/STM32F1xx_HAL_Driver/Src\stm32f1xx_hal_dma.c **** /* Private function prototypes -----------------------------------------------*/
 119:E:/VisualStudioCode/STM32F1_HAL/Drivers/STM32F1xx_HAL_Driver/Src\stm32f1xx_hal_dma.c **** /** @defgroup DMA_Private_Functions DMA Private Functions
 120:E:/VisualStudioCode/STM32F1_HAL/Drivers/STM32F1xx_HAL_Driver/Src\stm32f1xx_hal_dma.c ****   * @{
 121:E:/VisualStudioCode/STM32F1_HAL/Drivers/STM32F1xx_HAL_Driver/Src\stm32f1xx_hal_dma.c ****   */
 122:E:/VisualStudioCode/STM32F1_HAL/Drivers/STM32F1xx_HAL_Driver/Src\stm32f1xx_hal_dma.c **** static void DMA_SetConfig(DMA_HandleTypeDef *hdma, uint32_t SrcAddress, uint32_t DstAddress, uint32
 123:E:/VisualStudioCode/STM32F1_HAL/Drivers/STM32F1xx_HAL_Driver/Src\stm32f1xx_hal_dma.c **** /**
 124:E:/VisualStudioCode/STM32F1_HAL/Drivers/STM32F1xx_HAL_Driver/Src\stm32f1xx_hal_dma.c ****   * @}
 125:E:/VisualStudioCode/STM32F1_HAL/Drivers/STM32F1xx_HAL_Driver/Src\stm32f1xx_hal_dma.c ****   */
 126:E:/VisualStudioCode/STM32F1_HAL/Drivers/STM32F1xx_HAL_Driver/Src\stm32f1xx_hal_dma.c **** 
 127:E:/VisualStudioCode/STM32F1_HAL/Drivers/STM32F1xx_HAL_Driver/Src\stm32f1xx_hal_dma.c **** /* Exported functions ---------------------------------------------------------*/
 128:E:/VisualStudioCode/STM32F1_HAL/Drivers/STM32F1xx_HAL_Driver/Src\stm32f1xx_hal_dma.c **** 
 129:E:/VisualStudioCode/STM32F1_HAL/Drivers/STM32F1xx_HAL_Driver/Src\stm32f1xx_hal_dma.c **** /** @defgroup DMA_Exported_Functions DMA Exported Functions
 130:E:/VisualStudioCode/STM32F1_HAL/Drivers/STM32F1xx_HAL_Driver/Src\stm32f1xx_hal_dma.c ****   * @{
 131:E:/VisualStudioCode/STM32F1_HAL/Drivers/STM32F1xx_HAL_Driver/Src\stm32f1xx_hal_dma.c ****   */
 132:E:/VisualStudioCode/STM32F1_HAL/Drivers/STM32F1xx_HAL_Driver/Src\stm32f1xx_hal_dma.c **** 
 133:E:/VisualStudioCode/STM32F1_HAL/Drivers/STM32F1xx_HAL_Driver/Src\stm32f1xx_hal_dma.c **** /** @defgroup DMA_Exported_Functions_Group1 Initialization and de-initialization functions
 134:E:/VisualStudioCode/STM32F1_HAL/Drivers/STM32F1xx_HAL_Driver/Src\stm32f1xx_hal_dma.c ****   *  @brief   Initialization and de-initialization functions 
 135:E:/VisualStudioCode/STM32F1_HAL/Drivers/STM32F1xx_HAL_Driver/Src\stm32f1xx_hal_dma.c ****   *
 136:E:/VisualStudioCode/STM32F1_HAL/Drivers/STM32F1xx_HAL_Driver/Src\stm32f1xx_hal_dma.c **** @verbatim
 137:E:/VisualStudioCode/STM32F1_HAL/Drivers/STM32F1xx_HAL_Driver/Src\stm32f1xx_hal_dma.c ****  ===============================================================================
 138:E:/VisualStudioCode/STM32F1_HAL/Drivers/STM32F1xx_HAL_Driver/Src\stm32f1xx_hal_dma.c ****              ##### Initialization and de-initialization functions  #####
 139:E:/VisualStudioCode/STM32F1_HAL/Drivers/STM32F1xx_HAL_Driver/Src\stm32f1xx_hal_dma.c ****  ===============================================================================
 140:E:/VisualStudioCode/STM32F1_HAL/Drivers/STM32F1xx_HAL_Driver/Src\stm32f1xx_hal_dma.c ****     [..]
 141:E:/VisualStudioCode/STM32F1_HAL/Drivers/STM32F1xx_HAL_Driver/Src\stm32f1xx_hal_dma.c ****     This section provides functions allowing to initialize the DMA Channel source
 142:E:/VisualStudioCode/STM32F1_HAL/Drivers/STM32F1xx_HAL_Driver/Src\stm32f1xx_hal_dma.c ****     and destination addresses, incrementation and data sizes, transfer direction, 
 143:E:/VisualStudioCode/STM32F1_HAL/Drivers/STM32F1xx_HAL_Driver/Src\stm32f1xx_hal_dma.c ****     circular/normal mode selection, memory-to-memory mode selection and Channel priority value.
 144:E:/VisualStudioCode/STM32F1_HAL/Drivers/STM32F1xx_HAL_Driver/Src\stm32f1xx_hal_dma.c ****     [..]
 145:E:/VisualStudioCode/STM32F1_HAL/Drivers/STM32F1xx_HAL_Driver/Src\stm32f1xx_hal_dma.c ****     The HAL_DMA_Init() function follows the DMA configuration procedures as described in
 146:E:/VisualStudioCode/STM32F1_HAL/Drivers/STM32F1xx_HAL_Driver/Src\stm32f1xx_hal_dma.c ****     reference manual.  
 147:E:/VisualStudioCode/STM32F1_HAL/Drivers/STM32F1xx_HAL_Driver/Src\stm32f1xx_hal_dma.c **** 
ARM GAS  C:\Users\ADMINI~1\AppData\Local\Temp\ccwfdPpv.s 			page 4


 148:E:/VisualStudioCode/STM32F1_HAL/Drivers/STM32F1xx_HAL_Driver/Src\stm32f1xx_hal_dma.c **** @endverbatim
 149:E:/VisualStudioCode/STM32F1_HAL/Drivers/STM32F1xx_HAL_Driver/Src\stm32f1xx_hal_dma.c ****   * @{
 150:E:/VisualStudioCode/STM32F1_HAL/Drivers/STM32F1xx_HAL_Driver/Src\stm32f1xx_hal_dma.c ****   */
 151:E:/VisualStudioCode/STM32F1_HAL/Drivers/STM32F1xx_HAL_Driver/Src\stm32f1xx_hal_dma.c **** 
 152:E:/VisualStudioCode/STM32F1_HAL/Drivers/STM32F1xx_HAL_Driver/Src\stm32f1xx_hal_dma.c **** /**
 153:E:/VisualStudioCode/STM32F1_HAL/Drivers/STM32F1xx_HAL_Driver/Src\stm32f1xx_hal_dma.c ****   * @brief  Initialize the DMA according to the specified
 154:E:/VisualStudioCode/STM32F1_HAL/Drivers/STM32F1xx_HAL_Driver/Src\stm32f1xx_hal_dma.c ****   *         parameters in the DMA_InitTypeDef and initialize the associated handle.
 155:E:/VisualStudioCode/STM32F1_HAL/Drivers/STM32F1xx_HAL_Driver/Src\stm32f1xx_hal_dma.c ****   * @param  hdma: Pointer to a DMA_HandleTypeDef structure that contains
 156:E:/VisualStudioCode/STM32F1_HAL/Drivers/STM32F1xx_HAL_Driver/Src\stm32f1xx_hal_dma.c ****   *               the configuration information for the specified DMA Channel.
 157:E:/VisualStudioCode/STM32F1_HAL/Drivers/STM32F1xx_HAL_Driver/Src\stm32f1xx_hal_dma.c ****   * @retval HAL status
 158:E:/VisualStudioCode/STM32F1_HAL/Drivers/STM32F1xx_HAL_Driver/Src\stm32f1xx_hal_dma.c ****   */
 159:E:/VisualStudioCode/STM32F1_HAL/Drivers/STM32F1xx_HAL_Driver/Src\stm32f1xx_hal_dma.c **** HAL_StatusTypeDef HAL_DMA_Init(DMA_HandleTypeDef *hdma)
 160:E:/VisualStudioCode/STM32F1_HAL/Drivers/STM32F1xx_HAL_Driver/Src\stm32f1xx_hal_dma.c **** {
 161:E:/VisualStudioCode/STM32F1_HAL/Drivers/STM32F1xx_HAL_Driver/Src\stm32f1xx_hal_dma.c ****   uint32_t tmp = 0U;
 162:E:/VisualStudioCode/STM32F1_HAL/Drivers/STM32F1xx_HAL_Driver/Src\stm32f1xx_hal_dma.c **** 
 163:E:/VisualStudioCode/STM32F1_HAL/Drivers/STM32F1xx_HAL_Driver/Src\stm32f1xx_hal_dma.c ****   /* Check the DMA handle allocation */
 164:E:/VisualStudioCode/STM32F1_HAL/Drivers/STM32F1xx_HAL_Driver/Src\stm32f1xx_hal_dma.c ****   if(hdma == NULL)
 165:E:/VisualStudioCode/STM32F1_HAL/Drivers/STM32F1xx_HAL_Driver/Src\stm32f1xx_hal_dma.c ****   {
 166:E:/VisualStudioCode/STM32F1_HAL/Drivers/STM32F1xx_HAL_Driver/Src\stm32f1xx_hal_dma.c ****     return HAL_ERROR;
 167:E:/VisualStudioCode/STM32F1_HAL/Drivers/STM32F1xx_HAL_Driver/Src\stm32f1xx_hal_dma.c ****   }
 168:E:/VisualStudioCode/STM32F1_HAL/Drivers/STM32F1xx_HAL_Driver/Src\stm32f1xx_hal_dma.c **** 
 169:E:/VisualStudioCode/STM32F1_HAL/Drivers/STM32F1xx_HAL_Driver/Src\stm32f1xx_hal_dma.c ****   /* Check the parameters */
 170:E:/VisualStudioCode/STM32F1_HAL/Drivers/STM32F1xx_HAL_Driver/Src\stm32f1xx_hal_dma.c ****   assert_param(IS_DMA_ALL_INSTANCE(hdma->Instance));
 171:E:/VisualStudioCode/STM32F1_HAL/Drivers/STM32F1xx_HAL_Driver/Src\stm32f1xx_hal_dma.c ****   assert_param(IS_DMA_DIRECTION(hdma->Init.Direction));
 172:E:/VisualStudioCode/STM32F1_HAL/Drivers/STM32F1xx_HAL_Driver/Src\stm32f1xx_hal_dma.c ****   assert_param(IS_DMA_PERIPHERAL_INC_STATE(hdma->Init.PeriphInc));
 173:E:/VisualStudioCode/STM32F1_HAL/Drivers/STM32F1xx_HAL_Driver/Src\stm32f1xx_hal_dma.c ****   assert_param(IS_DMA_MEMORY_INC_STATE(hdma->Init.MemInc));
 174:E:/VisualStudioCode/STM32F1_HAL/Drivers/STM32F1xx_HAL_Driver/Src\stm32f1xx_hal_dma.c ****   assert_param(IS_DMA_PERIPHERAL_DATA_SIZE(hdma->Init.PeriphDataAlignment));
 175:E:/VisualStudioCode/STM32F1_HAL/Drivers/STM32F1xx_HAL_Driver/Src\stm32f1xx_hal_dma.c ****   assert_param(IS_DMA_MEMORY_DATA_SIZE(hdma->Init.MemDataAlignment));
 176:E:/VisualStudioCode/STM32F1_HAL/Drivers/STM32F1xx_HAL_Driver/Src\stm32f1xx_hal_dma.c ****   assert_param(IS_DMA_MODE(hdma->Init.Mode));
 177:E:/VisualStudioCode/STM32F1_HAL/Drivers/STM32F1xx_HAL_Driver/Src\stm32f1xx_hal_dma.c ****   assert_param(IS_DMA_PRIORITY(hdma->Init.Priority));
 178:E:/VisualStudioCode/STM32F1_HAL/Drivers/STM32F1xx_HAL_Driver/Src\stm32f1xx_hal_dma.c **** 
 179:E:/VisualStudioCode/STM32F1_HAL/Drivers/STM32F1xx_HAL_Driver/Src\stm32f1xx_hal_dma.c **** #if defined (STM32F101xE) || defined (STM32F101xG) || defined (STM32F103xE) || defined (STM32F103xG
 180:E:/VisualStudioCode/STM32F1_HAL/Drivers/STM32F1xx_HAL_Driver/Src\stm32f1xx_hal_dma.c ****   /* calculation of the channel index */
 181:E:/VisualStudioCode/STM32F1_HAL/Drivers/STM32F1xx_HAL_Driver/Src\stm32f1xx_hal_dma.c ****   if ((uint32_t)(hdma->Instance) < (uint32_t)(DMA2_Channel1))
 182:E:/VisualStudioCode/STM32F1_HAL/Drivers/STM32F1xx_HAL_Driver/Src\stm32f1xx_hal_dma.c ****   {
 183:E:/VisualStudioCode/STM32F1_HAL/Drivers/STM32F1xx_HAL_Driver/Src\stm32f1xx_hal_dma.c ****     /* DMA1 */
 184:E:/VisualStudioCode/STM32F1_HAL/Drivers/STM32F1xx_HAL_Driver/Src\stm32f1xx_hal_dma.c ****     hdma->ChannelIndex = (((uint32_t)hdma->Instance - (uint32_t)DMA1_Channel1) / ((uint32_t)DMA1_Ch
 185:E:/VisualStudioCode/STM32F1_HAL/Drivers/STM32F1xx_HAL_Driver/Src\stm32f1xx_hal_dma.c ****     hdma->DmaBaseAddress = DMA1;
 186:E:/VisualStudioCode/STM32F1_HAL/Drivers/STM32F1xx_HAL_Driver/Src\stm32f1xx_hal_dma.c ****   }
 187:E:/VisualStudioCode/STM32F1_HAL/Drivers/STM32F1xx_HAL_Driver/Src\stm32f1xx_hal_dma.c ****   else 
 188:E:/VisualStudioCode/STM32F1_HAL/Drivers/STM32F1xx_HAL_Driver/Src\stm32f1xx_hal_dma.c ****   {
 189:E:/VisualStudioCode/STM32F1_HAL/Drivers/STM32F1xx_HAL_Driver/Src\stm32f1xx_hal_dma.c ****     /* DMA2 */
 190:E:/VisualStudioCode/STM32F1_HAL/Drivers/STM32F1xx_HAL_Driver/Src\stm32f1xx_hal_dma.c ****     hdma->ChannelIndex = (((uint32_t)hdma->Instance - (uint32_t)DMA2_Channel1) / ((uint32_t)DMA2_Ch
 191:E:/VisualStudioCode/STM32F1_HAL/Drivers/STM32F1xx_HAL_Driver/Src\stm32f1xx_hal_dma.c ****     hdma->DmaBaseAddress = DMA2;
 192:E:/VisualStudioCode/STM32F1_HAL/Drivers/STM32F1xx_HAL_Driver/Src\stm32f1xx_hal_dma.c ****   }
 193:E:/VisualStudioCode/STM32F1_HAL/Drivers/STM32F1xx_HAL_Driver/Src\stm32f1xx_hal_dma.c **** #else
 194:E:/VisualStudioCode/STM32F1_HAL/Drivers/STM32F1xx_HAL_Driver/Src\stm32f1xx_hal_dma.c ****   /* DMA1 */
 195:E:/VisualStudioCode/STM32F1_HAL/Drivers/STM32F1xx_HAL_Driver/Src\stm32f1xx_hal_dma.c ****   hdma->ChannelIndex = (((uint32_t)hdma->Instance - (uint32_t)DMA1_Channel1) / ((uint32_t)DMA1_Chan
 196:E:/VisualStudioCode/STM32F1_HAL/Drivers/STM32F1xx_HAL_Driver/Src\stm32f1xx_hal_dma.c ****   hdma->DmaBaseAddress = DMA1;
 197:E:/VisualStudioCode/STM32F1_HAL/Drivers/STM32F1xx_HAL_Driver/Src\stm32f1xx_hal_dma.c **** #endif /* STM32F101xE || STM32F101xG || STM32F103xE || STM32F103xG || STM32F100xE || STM32F105xC ||
 198:E:/VisualStudioCode/STM32F1_HAL/Drivers/STM32F1xx_HAL_Driver/Src\stm32f1xx_hal_dma.c **** 
 199:E:/VisualStudioCode/STM32F1_HAL/Drivers/STM32F1xx_HAL_Driver/Src\stm32f1xx_hal_dma.c ****   /* Change DMA peripheral state */
 200:E:/VisualStudioCode/STM32F1_HAL/Drivers/STM32F1xx_HAL_Driver/Src\stm32f1xx_hal_dma.c ****   hdma->State = HAL_DMA_STATE_BUSY;
 201:E:/VisualStudioCode/STM32F1_HAL/Drivers/STM32F1xx_HAL_Driver/Src\stm32f1xx_hal_dma.c **** 
 202:E:/VisualStudioCode/STM32F1_HAL/Drivers/STM32F1xx_HAL_Driver/Src\stm32f1xx_hal_dma.c ****   /* Get the CR register value */
 203:E:/VisualStudioCode/STM32F1_HAL/Drivers/STM32F1xx_HAL_Driver/Src\stm32f1xx_hal_dma.c ****   tmp = hdma->Instance->CCR;
 204:E:/VisualStudioCode/STM32F1_HAL/Drivers/STM32F1xx_HAL_Driver/Src\stm32f1xx_hal_dma.c **** 
ARM GAS  C:\Users\ADMINI~1\AppData\Local\Temp\ccwfdPpv.s 			page 5


 205:E:/VisualStudioCode/STM32F1_HAL/Drivers/STM32F1xx_HAL_Driver/Src\stm32f1xx_hal_dma.c ****   /* Clear PL, MSIZE, PSIZE, MINC, PINC, CIRC and DIR bits */
 206:E:/VisualStudioCode/STM32F1_HAL/Drivers/STM32F1xx_HAL_Driver/Src\stm32f1xx_hal_dma.c ****   tmp &= ((uint32_t)~(DMA_CCR_PL    | DMA_CCR_MSIZE  | DMA_CCR_PSIZE  | \
 207:E:/VisualStudioCode/STM32F1_HAL/Drivers/STM32F1xx_HAL_Driver/Src\stm32f1xx_hal_dma.c ****                       DMA_CCR_MINC  | DMA_CCR_PINC   | DMA_CCR_CIRC   | \
 208:E:/VisualStudioCode/STM32F1_HAL/Drivers/STM32F1xx_HAL_Driver/Src\stm32f1xx_hal_dma.c ****                       DMA_CCR_DIR));
 209:E:/VisualStudioCode/STM32F1_HAL/Drivers/STM32F1xx_HAL_Driver/Src\stm32f1xx_hal_dma.c **** 
 210:E:/VisualStudioCode/STM32F1_HAL/Drivers/STM32F1xx_HAL_Driver/Src\stm32f1xx_hal_dma.c ****   /* Prepare the DMA Channel configuration */
 211:E:/VisualStudioCode/STM32F1_HAL/Drivers/STM32F1xx_HAL_Driver/Src\stm32f1xx_hal_dma.c ****   tmp |=  hdma->Init.Direction        |
 212:E:/VisualStudioCode/STM32F1_HAL/Drivers/STM32F1xx_HAL_Driver/Src\stm32f1xx_hal_dma.c ****           hdma->Init.PeriphInc           | hdma->Init.MemInc           |
 213:E:/VisualStudioCode/STM32F1_HAL/Drivers/STM32F1xx_HAL_Driver/Src\stm32f1xx_hal_dma.c ****           hdma->Init.PeriphDataAlignment | hdma->Init.MemDataAlignment |
 214:E:/VisualStudioCode/STM32F1_HAL/Drivers/STM32F1xx_HAL_Driver/Src\stm32f1xx_hal_dma.c ****           hdma->Init.Mode                | hdma->Init.Priority;
 215:E:/VisualStudioCode/STM32F1_HAL/Drivers/STM32F1xx_HAL_Driver/Src\stm32f1xx_hal_dma.c **** 
 216:E:/VisualStudioCode/STM32F1_HAL/Drivers/STM32F1xx_HAL_Driver/Src\stm32f1xx_hal_dma.c ****   /* Write to DMA Channel CR register */
 217:E:/VisualStudioCode/STM32F1_HAL/Drivers/STM32F1xx_HAL_Driver/Src\stm32f1xx_hal_dma.c ****   hdma->Instance->CCR = tmp;
 218:E:/VisualStudioCode/STM32F1_HAL/Drivers/STM32F1xx_HAL_Driver/Src\stm32f1xx_hal_dma.c **** 
 219:E:/VisualStudioCode/STM32F1_HAL/Drivers/STM32F1xx_HAL_Driver/Src\stm32f1xx_hal_dma.c **** 
 220:E:/VisualStudioCode/STM32F1_HAL/Drivers/STM32F1xx_HAL_Driver/Src\stm32f1xx_hal_dma.c ****   /* Clean callbacks */
 221:E:/VisualStudioCode/STM32F1_HAL/Drivers/STM32F1xx_HAL_Driver/Src\stm32f1xx_hal_dma.c ****   hdma->XferCpltCallback = NULL;
 222:E:/VisualStudioCode/STM32F1_HAL/Drivers/STM32F1xx_HAL_Driver/Src\stm32f1xx_hal_dma.c ****   hdma->XferHalfCpltCallback = NULL;
 223:E:/VisualStudioCode/STM32F1_HAL/Drivers/STM32F1xx_HAL_Driver/Src\stm32f1xx_hal_dma.c ****   hdma->XferErrorCallback = NULL;
 224:E:/VisualStudioCode/STM32F1_HAL/Drivers/STM32F1xx_HAL_Driver/Src\stm32f1xx_hal_dma.c ****   hdma->XferAbortCallback = NULL;
 225:E:/VisualStudioCode/STM32F1_HAL/Drivers/STM32F1xx_HAL_Driver/Src\stm32f1xx_hal_dma.c **** 
 226:E:/VisualStudioCode/STM32F1_HAL/Drivers/STM32F1xx_HAL_Driver/Src\stm32f1xx_hal_dma.c ****   /* Initialise the error code */
 227:E:/VisualStudioCode/STM32F1_HAL/Drivers/STM32F1xx_HAL_Driver/Src\stm32f1xx_hal_dma.c ****   hdma->ErrorCode = HAL_DMA_ERROR_NONE;
 228:E:/VisualStudioCode/STM32F1_HAL/Drivers/STM32F1xx_HAL_Driver/Src\stm32f1xx_hal_dma.c **** 
 229:E:/VisualStudioCode/STM32F1_HAL/Drivers/STM32F1xx_HAL_Driver/Src\stm32f1xx_hal_dma.c ****   /* Initialize the DMA state*/
 230:E:/VisualStudioCode/STM32F1_HAL/Drivers/STM32F1xx_HAL_Driver/Src\stm32f1xx_hal_dma.c ****   hdma->State = HAL_DMA_STATE_READY;
 231:E:/VisualStudioCode/STM32F1_HAL/Drivers/STM32F1xx_HAL_Driver/Src\stm32f1xx_hal_dma.c ****   /* Allocate lock resource and initialize it */
 232:E:/VisualStudioCode/STM32F1_HAL/Drivers/STM32F1xx_HAL_Driver/Src\stm32f1xx_hal_dma.c ****   hdma->Lock = HAL_UNLOCKED;
 233:E:/VisualStudioCode/STM32F1_HAL/Drivers/STM32F1xx_HAL_Driver/Src\stm32f1xx_hal_dma.c ****   
 234:E:/VisualStudioCode/STM32F1_HAL/Drivers/STM32F1xx_HAL_Driver/Src\stm32f1xx_hal_dma.c ****   return HAL_OK;
 235:E:/VisualStudioCode/STM32F1_HAL/Drivers/STM32F1xx_HAL_Driver/Src\stm32f1xx_hal_dma.c **** }
 236:E:/VisualStudioCode/STM32F1_HAL/Drivers/STM32F1xx_HAL_Driver/Src\stm32f1xx_hal_dma.c **** 
 237:E:/VisualStudioCode/STM32F1_HAL/Drivers/STM32F1xx_HAL_Driver/Src\stm32f1xx_hal_dma.c **** /**
 238:E:/VisualStudioCode/STM32F1_HAL/Drivers/STM32F1xx_HAL_Driver/Src\stm32f1xx_hal_dma.c ****   * @brief  DeInitialize the DMA peripheral.
 239:E:/VisualStudioCode/STM32F1_HAL/Drivers/STM32F1xx_HAL_Driver/Src\stm32f1xx_hal_dma.c ****   * @param  hdma: pointer to a DMA_HandleTypeDef structure that contains
 240:E:/VisualStudioCode/STM32F1_HAL/Drivers/STM32F1xx_HAL_Driver/Src\stm32f1xx_hal_dma.c ****   *               the configuration information for the specified DMA Channel.
 241:E:/VisualStudioCode/STM32F1_HAL/Drivers/STM32F1xx_HAL_Driver/Src\stm32f1xx_hal_dma.c ****   * @retval HAL status
 242:E:/VisualStudioCode/STM32F1_HAL/Drivers/STM32F1xx_HAL_Driver/Src\stm32f1xx_hal_dma.c ****   */
 243:E:/VisualStudioCode/STM32F1_HAL/Drivers/STM32F1xx_HAL_Driver/Src\stm32f1xx_hal_dma.c **** HAL_StatusTypeDef HAL_DMA_DeInit(DMA_HandleTypeDef *hdma)
 244:E:/VisualStudioCode/STM32F1_HAL/Drivers/STM32F1xx_HAL_Driver/Src\stm32f1xx_hal_dma.c **** {
 245:E:/VisualStudioCode/STM32F1_HAL/Drivers/STM32F1xx_HAL_Driver/Src\stm32f1xx_hal_dma.c ****   /* Check the DMA handle allocation */
 246:E:/VisualStudioCode/STM32F1_HAL/Drivers/STM32F1xx_HAL_Driver/Src\stm32f1xx_hal_dma.c ****   if(hdma == NULL)
 247:E:/VisualStudioCode/STM32F1_HAL/Drivers/STM32F1xx_HAL_Driver/Src\stm32f1xx_hal_dma.c ****   {
 248:E:/VisualStudioCode/STM32F1_HAL/Drivers/STM32F1xx_HAL_Driver/Src\stm32f1xx_hal_dma.c ****     return HAL_ERROR;
 249:E:/VisualStudioCode/STM32F1_HAL/Drivers/STM32F1xx_HAL_Driver/Src\stm32f1xx_hal_dma.c ****   }
 250:E:/VisualStudioCode/STM32F1_HAL/Drivers/STM32F1xx_HAL_Driver/Src\stm32f1xx_hal_dma.c **** 
 251:E:/VisualStudioCode/STM32F1_HAL/Drivers/STM32F1xx_HAL_Driver/Src\stm32f1xx_hal_dma.c ****   /* Check the parameters */
 252:E:/VisualStudioCode/STM32F1_HAL/Drivers/STM32F1xx_HAL_Driver/Src\stm32f1xx_hal_dma.c ****   assert_param(IS_DMA_ALL_INSTANCE(hdma->Instance));
 253:E:/VisualStudioCode/STM32F1_HAL/Drivers/STM32F1xx_HAL_Driver/Src\stm32f1xx_hal_dma.c **** 
 254:E:/VisualStudioCode/STM32F1_HAL/Drivers/STM32F1xx_HAL_Driver/Src\stm32f1xx_hal_dma.c ****   /* Disable the selected DMA Channelx */
 255:E:/VisualStudioCode/STM32F1_HAL/Drivers/STM32F1xx_HAL_Driver/Src\stm32f1xx_hal_dma.c ****   __HAL_DMA_DISABLE(hdma);
 256:E:/VisualStudioCode/STM32F1_HAL/Drivers/STM32F1xx_HAL_Driver/Src\stm32f1xx_hal_dma.c **** 
 257:E:/VisualStudioCode/STM32F1_HAL/Drivers/STM32F1xx_HAL_Driver/Src\stm32f1xx_hal_dma.c ****   /* Reset DMA Channel control register */
 258:E:/VisualStudioCode/STM32F1_HAL/Drivers/STM32F1xx_HAL_Driver/Src\stm32f1xx_hal_dma.c ****   hdma->Instance->CCR  = 0U;
 259:E:/VisualStudioCode/STM32F1_HAL/Drivers/STM32F1xx_HAL_Driver/Src\stm32f1xx_hal_dma.c **** 
 260:E:/VisualStudioCode/STM32F1_HAL/Drivers/STM32F1xx_HAL_Driver/Src\stm32f1xx_hal_dma.c ****   /* Reset DMA Channel Number of Data to Transfer register */
 261:E:/VisualStudioCode/STM32F1_HAL/Drivers/STM32F1xx_HAL_Driver/Src\stm32f1xx_hal_dma.c ****   hdma->Instance->CNDTR = 0U;
ARM GAS  C:\Users\ADMINI~1\AppData\Local\Temp\ccwfdPpv.s 			page 6


 262:E:/VisualStudioCode/STM32F1_HAL/Drivers/STM32F1xx_HAL_Driver/Src\stm32f1xx_hal_dma.c **** 
 263:E:/VisualStudioCode/STM32F1_HAL/Drivers/STM32F1xx_HAL_Driver/Src\stm32f1xx_hal_dma.c ****   /* Reset DMA Channel peripheral address register */
 264:E:/VisualStudioCode/STM32F1_HAL/Drivers/STM32F1xx_HAL_Driver/Src\stm32f1xx_hal_dma.c ****   hdma->Instance->CPAR  = 0U;
 265:E:/VisualStudioCode/STM32F1_HAL/Drivers/STM32F1xx_HAL_Driver/Src\stm32f1xx_hal_dma.c **** 
 266:E:/VisualStudioCode/STM32F1_HAL/Drivers/STM32F1xx_HAL_Driver/Src\stm32f1xx_hal_dma.c ****   /* Reset DMA Channel memory address register */
 267:E:/VisualStudioCode/STM32F1_HAL/Drivers/STM32F1xx_HAL_Driver/Src\stm32f1xx_hal_dma.c ****   hdma->Instance->CMAR = 0U;
 268:E:/VisualStudioCode/STM32F1_HAL/Drivers/STM32F1xx_HAL_Driver/Src\stm32f1xx_hal_dma.c **** 
 269:E:/VisualStudioCode/STM32F1_HAL/Drivers/STM32F1xx_HAL_Driver/Src\stm32f1xx_hal_dma.c **** #if defined (STM32F101xE) || defined (STM32F101xG) || defined (STM32F103xE) || defined (STM32F103xG
 270:E:/VisualStudioCode/STM32F1_HAL/Drivers/STM32F1xx_HAL_Driver/Src\stm32f1xx_hal_dma.c ****   /* calculation of the channel index */
 271:E:/VisualStudioCode/STM32F1_HAL/Drivers/STM32F1xx_HAL_Driver/Src\stm32f1xx_hal_dma.c ****   if ((uint32_t)(hdma->Instance) < (uint32_t)(DMA2_Channel1))
 272:E:/VisualStudioCode/STM32F1_HAL/Drivers/STM32F1xx_HAL_Driver/Src\stm32f1xx_hal_dma.c ****   {
 273:E:/VisualStudioCode/STM32F1_HAL/Drivers/STM32F1xx_HAL_Driver/Src\stm32f1xx_hal_dma.c ****     /* DMA1 */
 274:E:/VisualStudioCode/STM32F1_HAL/Drivers/STM32F1xx_HAL_Driver/Src\stm32f1xx_hal_dma.c ****     hdma->ChannelIndex = (((uint32_t)hdma->Instance - (uint32_t)DMA1_Channel1) / ((uint32_t)DMA1_Ch
 275:E:/VisualStudioCode/STM32F1_HAL/Drivers/STM32F1xx_HAL_Driver/Src\stm32f1xx_hal_dma.c ****     hdma->DmaBaseAddress = DMA1;
 276:E:/VisualStudioCode/STM32F1_HAL/Drivers/STM32F1xx_HAL_Driver/Src\stm32f1xx_hal_dma.c ****   }
 277:E:/VisualStudioCode/STM32F1_HAL/Drivers/STM32F1xx_HAL_Driver/Src\stm32f1xx_hal_dma.c ****   else 
 278:E:/VisualStudioCode/STM32F1_HAL/Drivers/STM32F1xx_HAL_Driver/Src\stm32f1xx_hal_dma.c ****   {
 279:E:/VisualStudioCode/STM32F1_HAL/Drivers/STM32F1xx_HAL_Driver/Src\stm32f1xx_hal_dma.c ****     /* DMA2 */
 280:E:/VisualStudioCode/STM32F1_HAL/Drivers/STM32F1xx_HAL_Driver/Src\stm32f1xx_hal_dma.c ****     hdma->ChannelIndex = (((uint32_t)hdma->Instance - (uint32_t)DMA2_Channel1) / ((uint32_t)DMA2_Ch
 281:E:/VisualStudioCode/STM32F1_HAL/Drivers/STM32F1xx_HAL_Driver/Src\stm32f1xx_hal_dma.c ****     hdma->DmaBaseAddress = DMA2;
 282:E:/VisualStudioCode/STM32F1_HAL/Drivers/STM32F1xx_HAL_Driver/Src\stm32f1xx_hal_dma.c ****   }
 283:E:/VisualStudioCode/STM32F1_HAL/Drivers/STM32F1xx_HAL_Driver/Src\stm32f1xx_hal_dma.c **** #else
 284:E:/VisualStudioCode/STM32F1_HAL/Drivers/STM32F1xx_HAL_Driver/Src\stm32f1xx_hal_dma.c ****   /* DMA1 */
 285:E:/VisualStudioCode/STM32F1_HAL/Drivers/STM32F1xx_HAL_Driver/Src\stm32f1xx_hal_dma.c ****   hdma->ChannelIndex = (((uint32_t)hdma->Instance - (uint32_t)DMA1_Channel1) / ((uint32_t)DMA1_Chan
 286:E:/VisualStudioCode/STM32F1_HAL/Drivers/STM32F1xx_HAL_Driver/Src\stm32f1xx_hal_dma.c ****   hdma->DmaBaseAddress = DMA1;
 287:E:/VisualStudioCode/STM32F1_HAL/Drivers/STM32F1xx_HAL_Driver/Src\stm32f1xx_hal_dma.c **** #endif /* STM32F101xE || STM32F101xG || STM32F103xE || STM32F103xG || STM32F100xE || STM32F105xC ||
 288:E:/VisualStudioCode/STM32F1_HAL/Drivers/STM32F1xx_HAL_Driver/Src\stm32f1xx_hal_dma.c **** 
 289:E:/VisualStudioCode/STM32F1_HAL/Drivers/STM32F1xx_HAL_Driver/Src\stm32f1xx_hal_dma.c ****   /* Clear all flags */
 290:E:/VisualStudioCode/STM32F1_HAL/Drivers/STM32F1xx_HAL_Driver/Src\stm32f1xx_hal_dma.c ****   hdma->DmaBaseAddress->IFCR = (DMA_ISR_GIF1 << (hdma->ChannelIndex));
 291:E:/VisualStudioCode/STM32F1_HAL/Drivers/STM32F1xx_HAL_Driver/Src\stm32f1xx_hal_dma.c **** 
 292:E:/VisualStudioCode/STM32F1_HAL/Drivers/STM32F1xx_HAL_Driver/Src\stm32f1xx_hal_dma.c ****   /* Initialize the error code */
 293:E:/VisualStudioCode/STM32F1_HAL/Drivers/STM32F1xx_HAL_Driver/Src\stm32f1xx_hal_dma.c ****   hdma->ErrorCode = HAL_DMA_ERROR_NONE;
 294:E:/VisualStudioCode/STM32F1_HAL/Drivers/STM32F1xx_HAL_Driver/Src\stm32f1xx_hal_dma.c **** 
 295:E:/VisualStudioCode/STM32F1_HAL/Drivers/STM32F1xx_HAL_Driver/Src\stm32f1xx_hal_dma.c ****   /* Initialize the DMA state */
 296:E:/VisualStudioCode/STM32F1_HAL/Drivers/STM32F1xx_HAL_Driver/Src\stm32f1xx_hal_dma.c ****   hdma->State = HAL_DMA_STATE_RESET;
 297:E:/VisualStudioCode/STM32F1_HAL/Drivers/STM32F1xx_HAL_Driver/Src\stm32f1xx_hal_dma.c **** 
 298:E:/VisualStudioCode/STM32F1_HAL/Drivers/STM32F1xx_HAL_Driver/Src\stm32f1xx_hal_dma.c ****   /* Release Lock */
 299:E:/VisualStudioCode/STM32F1_HAL/Drivers/STM32F1xx_HAL_Driver/Src\stm32f1xx_hal_dma.c ****   __HAL_UNLOCK(hdma);
 300:E:/VisualStudioCode/STM32F1_HAL/Drivers/STM32F1xx_HAL_Driver/Src\stm32f1xx_hal_dma.c **** 
 301:E:/VisualStudioCode/STM32F1_HAL/Drivers/STM32F1xx_HAL_Driver/Src\stm32f1xx_hal_dma.c ****   return HAL_OK;
 302:E:/VisualStudioCode/STM32F1_HAL/Drivers/STM32F1xx_HAL_Driver/Src\stm32f1xx_hal_dma.c **** }
 303:E:/VisualStudioCode/STM32F1_HAL/Drivers/STM32F1xx_HAL_Driver/Src\stm32f1xx_hal_dma.c **** 
 304:E:/VisualStudioCode/STM32F1_HAL/Drivers/STM32F1xx_HAL_Driver/Src\stm32f1xx_hal_dma.c **** /**
 305:E:/VisualStudioCode/STM32F1_HAL/Drivers/STM32F1xx_HAL_Driver/Src\stm32f1xx_hal_dma.c ****   * @}
 306:E:/VisualStudioCode/STM32F1_HAL/Drivers/STM32F1xx_HAL_Driver/Src\stm32f1xx_hal_dma.c ****   */
 307:E:/VisualStudioCode/STM32F1_HAL/Drivers/STM32F1xx_HAL_Driver/Src\stm32f1xx_hal_dma.c **** 
 308:E:/VisualStudioCode/STM32F1_HAL/Drivers/STM32F1xx_HAL_Driver/Src\stm32f1xx_hal_dma.c **** /** @defgroup DMA_Exported_Functions_Group2 Input and Output operation functions
 309:E:/VisualStudioCode/STM32F1_HAL/Drivers/STM32F1xx_HAL_Driver/Src\stm32f1xx_hal_dma.c ****   *  @brief   Input and Output operation functions
 310:E:/VisualStudioCode/STM32F1_HAL/Drivers/STM32F1xx_HAL_Driver/Src\stm32f1xx_hal_dma.c ****   *
 311:E:/VisualStudioCode/STM32F1_HAL/Drivers/STM32F1xx_HAL_Driver/Src\stm32f1xx_hal_dma.c **** @verbatim
 312:E:/VisualStudioCode/STM32F1_HAL/Drivers/STM32F1xx_HAL_Driver/Src\stm32f1xx_hal_dma.c ****  ===============================================================================
 313:E:/VisualStudioCode/STM32F1_HAL/Drivers/STM32F1xx_HAL_Driver/Src\stm32f1xx_hal_dma.c ****                       #####  IO operation functions  #####
 314:E:/VisualStudioCode/STM32F1_HAL/Drivers/STM32F1xx_HAL_Driver/Src\stm32f1xx_hal_dma.c ****  ===============================================================================
 315:E:/VisualStudioCode/STM32F1_HAL/Drivers/STM32F1xx_HAL_Driver/Src\stm32f1xx_hal_dma.c ****     [..]  This section provides functions allowing to:
 316:E:/VisualStudioCode/STM32F1_HAL/Drivers/STM32F1xx_HAL_Driver/Src\stm32f1xx_hal_dma.c ****       (+) Configure the source, destination address and data length and Start DMA transfer
 317:E:/VisualStudioCode/STM32F1_HAL/Drivers/STM32F1xx_HAL_Driver/Src\stm32f1xx_hal_dma.c ****       (+) Configure the source, destination address and data length and
 318:E:/VisualStudioCode/STM32F1_HAL/Drivers/STM32F1xx_HAL_Driver/Src\stm32f1xx_hal_dma.c ****           Start DMA transfer with interrupt
ARM GAS  C:\Users\ADMINI~1\AppData\Local\Temp\ccwfdPpv.s 			page 7


 319:E:/VisualStudioCode/STM32F1_HAL/Drivers/STM32F1xx_HAL_Driver/Src\stm32f1xx_hal_dma.c ****       (+) Abort DMA transfer
 320:E:/VisualStudioCode/STM32F1_HAL/Drivers/STM32F1xx_HAL_Driver/Src\stm32f1xx_hal_dma.c ****       (+) Poll for transfer complete
 321:E:/VisualStudioCode/STM32F1_HAL/Drivers/STM32F1xx_HAL_Driver/Src\stm32f1xx_hal_dma.c ****       (+) Handle DMA interrupt request
 322:E:/VisualStudioCode/STM32F1_HAL/Drivers/STM32F1xx_HAL_Driver/Src\stm32f1xx_hal_dma.c **** 
 323:E:/VisualStudioCode/STM32F1_HAL/Drivers/STM32F1xx_HAL_Driver/Src\stm32f1xx_hal_dma.c **** @endverbatim
 324:E:/VisualStudioCode/STM32F1_HAL/Drivers/STM32F1xx_HAL_Driver/Src\stm32f1xx_hal_dma.c ****   * @{
 325:E:/VisualStudioCode/STM32F1_HAL/Drivers/STM32F1xx_HAL_Driver/Src\stm32f1xx_hal_dma.c ****   */
 326:E:/VisualStudioCode/STM32F1_HAL/Drivers/STM32F1xx_HAL_Driver/Src\stm32f1xx_hal_dma.c **** 
 327:E:/VisualStudioCode/STM32F1_HAL/Drivers/STM32F1xx_HAL_Driver/Src\stm32f1xx_hal_dma.c **** /**
 328:E:/VisualStudioCode/STM32F1_HAL/Drivers/STM32F1xx_HAL_Driver/Src\stm32f1xx_hal_dma.c ****   * @brief  Start the DMA Transfer.
 329:E:/VisualStudioCode/STM32F1_HAL/Drivers/STM32F1xx_HAL_Driver/Src\stm32f1xx_hal_dma.c ****   * @param  hdma: pointer to a DMA_HandleTypeDef structure that contains
 330:E:/VisualStudioCode/STM32F1_HAL/Drivers/STM32F1xx_HAL_Driver/Src\stm32f1xx_hal_dma.c ****   *               the configuration information for the specified DMA Channel.
 331:E:/VisualStudioCode/STM32F1_HAL/Drivers/STM32F1xx_HAL_Driver/Src\stm32f1xx_hal_dma.c ****   * @param  SrcAddress: The source memory Buffer address
 332:E:/VisualStudioCode/STM32F1_HAL/Drivers/STM32F1xx_HAL_Driver/Src\stm32f1xx_hal_dma.c ****   * @param  DstAddress: The destination memory Buffer address
 333:E:/VisualStudioCode/STM32F1_HAL/Drivers/STM32F1xx_HAL_Driver/Src\stm32f1xx_hal_dma.c ****   * @param  DataLength: The length of data to be transferred from source to destination
 334:E:/VisualStudioCode/STM32F1_HAL/Drivers/STM32F1xx_HAL_Driver/Src\stm32f1xx_hal_dma.c ****   * @retval HAL status
 335:E:/VisualStudioCode/STM32F1_HAL/Drivers/STM32F1xx_HAL_Driver/Src\stm32f1xx_hal_dma.c ****   */
 336:E:/VisualStudioCode/STM32F1_HAL/Drivers/STM32F1xx_HAL_Driver/Src\stm32f1xx_hal_dma.c **** HAL_StatusTypeDef HAL_DMA_Start(DMA_HandleTypeDef *hdma, uint32_t SrcAddress, uint32_t DstAddress, 
 337:E:/VisualStudioCode/STM32F1_HAL/Drivers/STM32F1xx_HAL_Driver/Src\stm32f1xx_hal_dma.c **** {
 338:E:/VisualStudioCode/STM32F1_HAL/Drivers/STM32F1xx_HAL_Driver/Src\stm32f1xx_hal_dma.c ****   HAL_StatusTypeDef status = HAL_OK;
 339:E:/VisualStudioCode/STM32F1_HAL/Drivers/STM32F1xx_HAL_Driver/Src\stm32f1xx_hal_dma.c **** 
 340:E:/VisualStudioCode/STM32F1_HAL/Drivers/STM32F1xx_HAL_Driver/Src\stm32f1xx_hal_dma.c ****   /* Check the parameters */
 341:E:/VisualStudioCode/STM32F1_HAL/Drivers/STM32F1xx_HAL_Driver/Src\stm32f1xx_hal_dma.c ****   assert_param(IS_DMA_BUFFER_SIZE(DataLength));
 342:E:/VisualStudioCode/STM32F1_HAL/Drivers/STM32F1xx_HAL_Driver/Src\stm32f1xx_hal_dma.c **** 
 343:E:/VisualStudioCode/STM32F1_HAL/Drivers/STM32F1xx_HAL_Driver/Src\stm32f1xx_hal_dma.c ****   /* Process locked */
 344:E:/VisualStudioCode/STM32F1_HAL/Drivers/STM32F1xx_HAL_Driver/Src\stm32f1xx_hal_dma.c ****   __HAL_LOCK(hdma);
 345:E:/VisualStudioCode/STM32F1_HAL/Drivers/STM32F1xx_HAL_Driver/Src\stm32f1xx_hal_dma.c **** 
 346:E:/VisualStudioCode/STM32F1_HAL/Drivers/STM32F1xx_HAL_Driver/Src\stm32f1xx_hal_dma.c ****   if(HAL_DMA_STATE_READY == hdma->State)
 347:E:/VisualStudioCode/STM32F1_HAL/Drivers/STM32F1xx_HAL_Driver/Src\stm32f1xx_hal_dma.c ****   {
 348:E:/VisualStudioCode/STM32F1_HAL/Drivers/STM32F1xx_HAL_Driver/Src\stm32f1xx_hal_dma.c ****     /* Change DMA peripheral state */
 349:E:/VisualStudioCode/STM32F1_HAL/Drivers/STM32F1xx_HAL_Driver/Src\stm32f1xx_hal_dma.c ****     hdma->State = HAL_DMA_STATE_BUSY;
 350:E:/VisualStudioCode/STM32F1_HAL/Drivers/STM32F1xx_HAL_Driver/Src\stm32f1xx_hal_dma.c ****     hdma->ErrorCode = HAL_DMA_ERROR_NONE;
 351:E:/VisualStudioCode/STM32F1_HAL/Drivers/STM32F1xx_HAL_Driver/Src\stm32f1xx_hal_dma.c ****             
 352:E:/VisualStudioCode/STM32F1_HAL/Drivers/STM32F1xx_HAL_Driver/Src\stm32f1xx_hal_dma.c ****     /* Disable the peripheral */
 353:E:/VisualStudioCode/STM32F1_HAL/Drivers/STM32F1xx_HAL_Driver/Src\stm32f1xx_hal_dma.c ****     __HAL_DMA_DISABLE(hdma);
 354:E:/VisualStudioCode/STM32F1_HAL/Drivers/STM32F1xx_HAL_Driver/Src\stm32f1xx_hal_dma.c ****     
 355:E:/VisualStudioCode/STM32F1_HAL/Drivers/STM32F1xx_HAL_Driver/Src\stm32f1xx_hal_dma.c ****     /* Configure the source, destination address and the data length & clear flags*/
 356:E:/VisualStudioCode/STM32F1_HAL/Drivers/STM32F1xx_HAL_Driver/Src\stm32f1xx_hal_dma.c ****     DMA_SetConfig(hdma, SrcAddress, DstAddress, DataLength);
 357:E:/VisualStudioCode/STM32F1_HAL/Drivers/STM32F1xx_HAL_Driver/Src\stm32f1xx_hal_dma.c ****     
 358:E:/VisualStudioCode/STM32F1_HAL/Drivers/STM32F1xx_HAL_Driver/Src\stm32f1xx_hal_dma.c ****     /* Enable the Peripheral */
 359:E:/VisualStudioCode/STM32F1_HAL/Drivers/STM32F1xx_HAL_Driver/Src\stm32f1xx_hal_dma.c ****     __HAL_DMA_ENABLE(hdma);
 360:E:/VisualStudioCode/STM32F1_HAL/Drivers/STM32F1xx_HAL_Driver/Src\stm32f1xx_hal_dma.c ****   }
 361:E:/VisualStudioCode/STM32F1_HAL/Drivers/STM32F1xx_HAL_Driver/Src\stm32f1xx_hal_dma.c ****   else
 362:E:/VisualStudioCode/STM32F1_HAL/Drivers/STM32F1xx_HAL_Driver/Src\stm32f1xx_hal_dma.c ****   {
 363:E:/VisualStudioCode/STM32F1_HAL/Drivers/STM32F1xx_HAL_Driver/Src\stm32f1xx_hal_dma.c ****    /* Process Unlocked */
 364:E:/VisualStudioCode/STM32F1_HAL/Drivers/STM32F1xx_HAL_Driver/Src\stm32f1xx_hal_dma.c ****    __HAL_UNLOCK(hdma);  
 365:E:/VisualStudioCode/STM32F1_HAL/Drivers/STM32F1xx_HAL_Driver/Src\stm32f1xx_hal_dma.c ****    status = HAL_BUSY;
 366:E:/VisualStudioCode/STM32F1_HAL/Drivers/STM32F1xx_HAL_Driver/Src\stm32f1xx_hal_dma.c ****   }  
 367:E:/VisualStudioCode/STM32F1_HAL/Drivers/STM32F1xx_HAL_Driver/Src\stm32f1xx_hal_dma.c ****   return status;
 368:E:/VisualStudioCode/STM32F1_HAL/Drivers/STM32F1xx_HAL_Driver/Src\stm32f1xx_hal_dma.c **** }
 369:E:/VisualStudioCode/STM32F1_HAL/Drivers/STM32F1xx_HAL_Driver/Src\stm32f1xx_hal_dma.c **** 
 370:E:/VisualStudioCode/STM32F1_HAL/Drivers/STM32F1xx_HAL_Driver/Src\stm32f1xx_hal_dma.c **** /**
 371:E:/VisualStudioCode/STM32F1_HAL/Drivers/STM32F1xx_HAL_Driver/Src\stm32f1xx_hal_dma.c ****   * @brief  Start the DMA Transfer with interrupt enabled.
 372:E:/VisualStudioCode/STM32F1_HAL/Drivers/STM32F1xx_HAL_Driver/Src\stm32f1xx_hal_dma.c ****   * @param  hdma: pointer to a DMA_HandleTypeDef structure that contains
 373:E:/VisualStudioCode/STM32F1_HAL/Drivers/STM32F1xx_HAL_Driver/Src\stm32f1xx_hal_dma.c ****   *               the configuration information for the specified DMA Channel.
 374:E:/VisualStudioCode/STM32F1_HAL/Drivers/STM32F1xx_HAL_Driver/Src\stm32f1xx_hal_dma.c ****   * @param  SrcAddress: The source memory Buffer address
 375:E:/VisualStudioCode/STM32F1_HAL/Drivers/STM32F1xx_HAL_Driver/Src\stm32f1xx_hal_dma.c ****   * @param  DstAddress: The destination memory Buffer address
ARM GAS  C:\Users\ADMINI~1\AppData\Local\Temp\ccwfdPpv.s 			page 8


 376:E:/VisualStudioCode/STM32F1_HAL/Drivers/STM32F1xx_HAL_Driver/Src\stm32f1xx_hal_dma.c ****   * @param  DataLength: The length of data to be transferred from source to destination
 377:E:/VisualStudioCode/STM32F1_HAL/Drivers/STM32F1xx_HAL_Driver/Src\stm32f1xx_hal_dma.c ****   * @retval HAL status
 378:E:/VisualStudioCode/STM32F1_HAL/Drivers/STM32F1xx_HAL_Driver/Src\stm32f1xx_hal_dma.c ****   */
 379:E:/VisualStudioCode/STM32F1_HAL/Drivers/STM32F1xx_HAL_Driver/Src\stm32f1xx_hal_dma.c **** HAL_StatusTypeDef HAL_DMA_Start_IT(DMA_HandleTypeDef *hdma, uint32_t SrcAddress, uint32_t DstAddres
 380:E:/VisualStudioCode/STM32F1_HAL/Drivers/STM32F1xx_HAL_Driver/Src\stm32f1xx_hal_dma.c **** {
 381:E:/VisualStudioCode/STM32F1_HAL/Drivers/STM32F1xx_HAL_Driver/Src\stm32f1xx_hal_dma.c ****   HAL_StatusTypeDef status = HAL_OK;
 382:E:/VisualStudioCode/STM32F1_HAL/Drivers/STM32F1xx_HAL_Driver/Src\stm32f1xx_hal_dma.c **** 
 383:E:/VisualStudioCode/STM32F1_HAL/Drivers/STM32F1xx_HAL_Driver/Src\stm32f1xx_hal_dma.c ****   /* Check the parameters */
 384:E:/VisualStudioCode/STM32F1_HAL/Drivers/STM32F1xx_HAL_Driver/Src\stm32f1xx_hal_dma.c ****   assert_param(IS_DMA_BUFFER_SIZE(DataLength));
 385:E:/VisualStudioCode/STM32F1_HAL/Drivers/STM32F1xx_HAL_Driver/Src\stm32f1xx_hal_dma.c **** 
 386:E:/VisualStudioCode/STM32F1_HAL/Drivers/STM32F1xx_HAL_Driver/Src\stm32f1xx_hal_dma.c ****   /* Process locked */
 387:E:/VisualStudioCode/STM32F1_HAL/Drivers/STM32F1xx_HAL_Driver/Src\stm32f1xx_hal_dma.c ****   __HAL_LOCK(hdma);
 388:E:/VisualStudioCode/STM32F1_HAL/Drivers/STM32F1xx_HAL_Driver/Src\stm32f1xx_hal_dma.c ****   
 389:E:/VisualStudioCode/STM32F1_HAL/Drivers/STM32F1xx_HAL_Driver/Src\stm32f1xx_hal_dma.c ****   if(HAL_DMA_STATE_READY == hdma->State)
 390:E:/VisualStudioCode/STM32F1_HAL/Drivers/STM32F1xx_HAL_Driver/Src\stm32f1xx_hal_dma.c ****   {
 391:E:/VisualStudioCode/STM32F1_HAL/Drivers/STM32F1xx_HAL_Driver/Src\stm32f1xx_hal_dma.c ****     /* Change DMA peripheral state */
 392:E:/VisualStudioCode/STM32F1_HAL/Drivers/STM32F1xx_HAL_Driver/Src\stm32f1xx_hal_dma.c ****     hdma->State = HAL_DMA_STATE_BUSY;
 393:E:/VisualStudioCode/STM32F1_HAL/Drivers/STM32F1xx_HAL_Driver/Src\stm32f1xx_hal_dma.c ****     hdma->ErrorCode = HAL_DMA_ERROR_NONE;
 394:E:/VisualStudioCode/STM32F1_HAL/Drivers/STM32F1xx_HAL_Driver/Src\stm32f1xx_hal_dma.c ****     
 395:E:/VisualStudioCode/STM32F1_HAL/Drivers/STM32F1xx_HAL_Driver/Src\stm32f1xx_hal_dma.c ****     /* Disable the peripheral */
 396:E:/VisualStudioCode/STM32F1_HAL/Drivers/STM32F1xx_HAL_Driver/Src\stm32f1xx_hal_dma.c ****     __HAL_DMA_DISABLE(hdma);
 397:E:/VisualStudioCode/STM32F1_HAL/Drivers/STM32F1xx_HAL_Driver/Src\stm32f1xx_hal_dma.c ****     
 398:E:/VisualStudioCode/STM32F1_HAL/Drivers/STM32F1xx_HAL_Driver/Src\stm32f1xx_hal_dma.c ****     /* Configure the source, destination address and the data length & clear flags*/
 399:E:/VisualStudioCode/STM32F1_HAL/Drivers/STM32F1xx_HAL_Driver/Src\stm32f1xx_hal_dma.c ****     DMA_SetConfig(hdma, SrcAddress, DstAddress, DataLength);
 400:E:/VisualStudioCode/STM32F1_HAL/Drivers/STM32F1xx_HAL_Driver/Src\stm32f1xx_hal_dma.c ****     
 401:E:/VisualStudioCode/STM32F1_HAL/Drivers/STM32F1xx_HAL_Driver/Src\stm32f1xx_hal_dma.c ****     /* Enable the transfer complete interrupt */
 402:E:/VisualStudioCode/STM32F1_HAL/Drivers/STM32F1xx_HAL_Driver/Src\stm32f1xx_hal_dma.c ****     /* Enable the transfer Error interrupt */
 403:E:/VisualStudioCode/STM32F1_HAL/Drivers/STM32F1xx_HAL_Driver/Src\stm32f1xx_hal_dma.c ****     if(NULL != hdma->XferHalfCpltCallback)
 404:E:/VisualStudioCode/STM32F1_HAL/Drivers/STM32F1xx_HAL_Driver/Src\stm32f1xx_hal_dma.c ****     {
 405:E:/VisualStudioCode/STM32F1_HAL/Drivers/STM32F1xx_HAL_Driver/Src\stm32f1xx_hal_dma.c ****       /* Enable the Half transfer complete interrupt as well */
 406:E:/VisualStudioCode/STM32F1_HAL/Drivers/STM32F1xx_HAL_Driver/Src\stm32f1xx_hal_dma.c ****       __HAL_DMA_ENABLE_IT(hdma, (DMA_IT_TC | DMA_IT_HT | DMA_IT_TE));
 407:E:/VisualStudioCode/STM32F1_HAL/Drivers/STM32F1xx_HAL_Driver/Src\stm32f1xx_hal_dma.c ****     }
 408:E:/VisualStudioCode/STM32F1_HAL/Drivers/STM32F1xx_HAL_Driver/Src\stm32f1xx_hal_dma.c ****     else
 409:E:/VisualStudioCode/STM32F1_HAL/Drivers/STM32F1xx_HAL_Driver/Src\stm32f1xx_hal_dma.c ****     {
 410:E:/VisualStudioCode/STM32F1_HAL/Drivers/STM32F1xx_HAL_Driver/Src\stm32f1xx_hal_dma.c ****       __HAL_DMA_DISABLE_IT(hdma, DMA_IT_HT);
 411:E:/VisualStudioCode/STM32F1_HAL/Drivers/STM32F1xx_HAL_Driver/Src\stm32f1xx_hal_dma.c ****       __HAL_DMA_ENABLE_IT(hdma, (DMA_IT_TC | DMA_IT_TE));
 412:E:/VisualStudioCode/STM32F1_HAL/Drivers/STM32F1xx_HAL_Driver/Src\stm32f1xx_hal_dma.c ****     }
 413:E:/VisualStudioCode/STM32F1_HAL/Drivers/STM32F1xx_HAL_Driver/Src\stm32f1xx_hal_dma.c ****     /* Enable the Peripheral */
 414:E:/VisualStudioCode/STM32F1_HAL/Drivers/STM32F1xx_HAL_Driver/Src\stm32f1xx_hal_dma.c ****     __HAL_DMA_ENABLE(hdma);
 415:E:/VisualStudioCode/STM32F1_HAL/Drivers/STM32F1xx_HAL_Driver/Src\stm32f1xx_hal_dma.c ****   }
 416:E:/VisualStudioCode/STM32F1_HAL/Drivers/STM32F1xx_HAL_Driver/Src\stm32f1xx_hal_dma.c ****   else
 417:E:/VisualStudioCode/STM32F1_HAL/Drivers/STM32F1xx_HAL_Driver/Src\stm32f1xx_hal_dma.c ****   {      
 418:E:/VisualStudioCode/STM32F1_HAL/Drivers/STM32F1xx_HAL_Driver/Src\stm32f1xx_hal_dma.c ****     /* Process Unlocked */
 419:E:/VisualStudioCode/STM32F1_HAL/Drivers/STM32F1xx_HAL_Driver/Src\stm32f1xx_hal_dma.c ****     __HAL_UNLOCK(hdma); 
 420:E:/VisualStudioCode/STM32F1_HAL/Drivers/STM32F1xx_HAL_Driver/Src\stm32f1xx_hal_dma.c **** 
 421:E:/VisualStudioCode/STM32F1_HAL/Drivers/STM32F1xx_HAL_Driver/Src\stm32f1xx_hal_dma.c ****     /* Remain BUSY */
 422:E:/VisualStudioCode/STM32F1_HAL/Drivers/STM32F1xx_HAL_Driver/Src\stm32f1xx_hal_dma.c ****     status = HAL_BUSY;
 423:E:/VisualStudioCode/STM32F1_HAL/Drivers/STM32F1xx_HAL_Driver/Src\stm32f1xx_hal_dma.c ****   }    
 424:E:/VisualStudioCode/STM32F1_HAL/Drivers/STM32F1xx_HAL_Driver/Src\stm32f1xx_hal_dma.c ****   return status;
 425:E:/VisualStudioCode/STM32F1_HAL/Drivers/STM32F1xx_HAL_Driver/Src\stm32f1xx_hal_dma.c **** }
 426:E:/VisualStudioCode/STM32F1_HAL/Drivers/STM32F1xx_HAL_Driver/Src\stm32f1xx_hal_dma.c **** 
 427:E:/VisualStudioCode/STM32F1_HAL/Drivers/STM32F1xx_HAL_Driver/Src\stm32f1xx_hal_dma.c **** /**
 428:E:/VisualStudioCode/STM32F1_HAL/Drivers/STM32F1xx_HAL_Driver/Src\stm32f1xx_hal_dma.c ****   * @brief  Abort the DMA Transfer.
 429:E:/VisualStudioCode/STM32F1_HAL/Drivers/STM32F1xx_HAL_Driver/Src\stm32f1xx_hal_dma.c ****   * @param  hdma: pointer to a DMA_HandleTypeDef structure that contains
 430:E:/VisualStudioCode/STM32F1_HAL/Drivers/STM32F1xx_HAL_Driver/Src\stm32f1xx_hal_dma.c ****   *               the configuration information for the specified DMA Channel.
 431:E:/VisualStudioCode/STM32F1_HAL/Drivers/STM32F1xx_HAL_Driver/Src\stm32f1xx_hal_dma.c ****   * @retval HAL status
 432:E:/VisualStudioCode/STM32F1_HAL/Drivers/STM32F1xx_HAL_Driver/Src\stm32f1xx_hal_dma.c ****   */
ARM GAS  C:\Users\ADMINI~1\AppData\Local\Temp\ccwfdPpv.s 			page 9


 433:E:/VisualStudioCode/STM32F1_HAL/Drivers/STM32F1xx_HAL_Driver/Src\stm32f1xx_hal_dma.c **** HAL_StatusTypeDef HAL_DMA_Abort(DMA_HandleTypeDef *hdma)
 434:E:/VisualStudioCode/STM32F1_HAL/Drivers/STM32F1xx_HAL_Driver/Src\stm32f1xx_hal_dma.c **** {
 435:E:/VisualStudioCode/STM32F1_HAL/Drivers/STM32F1xx_HAL_Driver/Src\stm32f1xx_hal_dma.c ****   HAL_StatusTypeDef status = HAL_OK;
 436:E:/VisualStudioCode/STM32F1_HAL/Drivers/STM32F1xx_HAL_Driver/Src\stm32f1xx_hal_dma.c **** 
 437:E:/VisualStudioCode/STM32F1_HAL/Drivers/STM32F1xx_HAL_Driver/Src\stm32f1xx_hal_dma.c ****   /* Disable DMA IT */
 438:E:/VisualStudioCode/STM32F1_HAL/Drivers/STM32F1xx_HAL_Driver/Src\stm32f1xx_hal_dma.c ****   __HAL_DMA_DISABLE_IT(hdma, (DMA_IT_TC | DMA_IT_HT | DMA_IT_TE));
 439:E:/VisualStudioCode/STM32F1_HAL/Drivers/STM32F1xx_HAL_Driver/Src\stm32f1xx_hal_dma.c ****     
 440:E:/VisualStudioCode/STM32F1_HAL/Drivers/STM32F1xx_HAL_Driver/Src\stm32f1xx_hal_dma.c ****   /* Disable the channel */
 441:E:/VisualStudioCode/STM32F1_HAL/Drivers/STM32F1xx_HAL_Driver/Src\stm32f1xx_hal_dma.c ****   __HAL_DMA_DISABLE(hdma);
 442:E:/VisualStudioCode/STM32F1_HAL/Drivers/STM32F1xx_HAL_Driver/Src\stm32f1xx_hal_dma.c ****     
 443:E:/VisualStudioCode/STM32F1_HAL/Drivers/STM32F1xx_HAL_Driver/Src\stm32f1xx_hal_dma.c ****   /* Clear all flags */
 444:E:/VisualStudioCode/STM32F1_HAL/Drivers/STM32F1xx_HAL_Driver/Src\stm32f1xx_hal_dma.c ****   hdma->DmaBaseAddress->IFCR = (DMA_ISR_GIF1 << hdma->ChannelIndex);
 445:E:/VisualStudioCode/STM32F1_HAL/Drivers/STM32F1xx_HAL_Driver/Src\stm32f1xx_hal_dma.c **** 
 446:E:/VisualStudioCode/STM32F1_HAL/Drivers/STM32F1xx_HAL_Driver/Src\stm32f1xx_hal_dma.c ****   /* Change the DMA state */
 447:E:/VisualStudioCode/STM32F1_HAL/Drivers/STM32F1xx_HAL_Driver/Src\stm32f1xx_hal_dma.c ****   hdma->State = HAL_DMA_STATE_READY;
 448:E:/VisualStudioCode/STM32F1_HAL/Drivers/STM32F1xx_HAL_Driver/Src\stm32f1xx_hal_dma.c **** 
 449:E:/VisualStudioCode/STM32F1_HAL/Drivers/STM32F1xx_HAL_Driver/Src\stm32f1xx_hal_dma.c ****   /* Process Unlocked */
 450:E:/VisualStudioCode/STM32F1_HAL/Drivers/STM32F1xx_HAL_Driver/Src\stm32f1xx_hal_dma.c ****   __HAL_UNLOCK(hdma);      
 451:E:/VisualStudioCode/STM32F1_HAL/Drivers/STM32F1xx_HAL_Driver/Src\stm32f1xx_hal_dma.c ****   
 452:E:/VisualStudioCode/STM32F1_HAL/Drivers/STM32F1xx_HAL_Driver/Src\stm32f1xx_hal_dma.c ****   return status; 
 453:E:/VisualStudioCode/STM32F1_HAL/Drivers/STM32F1xx_HAL_Driver/Src\stm32f1xx_hal_dma.c **** }
 454:E:/VisualStudioCode/STM32F1_HAL/Drivers/STM32F1xx_HAL_Driver/Src\stm32f1xx_hal_dma.c **** 
 455:E:/VisualStudioCode/STM32F1_HAL/Drivers/STM32F1xx_HAL_Driver/Src\stm32f1xx_hal_dma.c **** /**
 456:E:/VisualStudioCode/STM32F1_HAL/Drivers/STM32F1xx_HAL_Driver/Src\stm32f1xx_hal_dma.c ****   * @brief  Aborts the DMA Transfer in Interrupt mode.
 457:E:/VisualStudioCode/STM32F1_HAL/Drivers/STM32F1xx_HAL_Driver/Src\stm32f1xx_hal_dma.c ****   * @param  hdma  : pointer to a DMA_HandleTypeDef structure that contains
 458:E:/VisualStudioCode/STM32F1_HAL/Drivers/STM32F1xx_HAL_Driver/Src\stm32f1xx_hal_dma.c ****   *                 the configuration information for the specified DMA Channel.
 459:E:/VisualStudioCode/STM32F1_HAL/Drivers/STM32F1xx_HAL_Driver/Src\stm32f1xx_hal_dma.c ****   * @retval HAL status
 460:E:/VisualStudioCode/STM32F1_HAL/Drivers/STM32F1xx_HAL_Driver/Src\stm32f1xx_hal_dma.c ****   */
 461:E:/VisualStudioCode/STM32F1_HAL/Drivers/STM32F1xx_HAL_Driver/Src\stm32f1xx_hal_dma.c **** HAL_StatusTypeDef HAL_DMA_Abort_IT(DMA_HandleTypeDef *hdma)
 462:E:/VisualStudioCode/STM32F1_HAL/Drivers/STM32F1xx_HAL_Driver/Src\stm32f1xx_hal_dma.c **** {  
 463:E:/VisualStudioCode/STM32F1_HAL/Drivers/STM32F1xx_HAL_Driver/Src\stm32f1xx_hal_dma.c ****   HAL_StatusTypeDef status = HAL_OK;
 464:E:/VisualStudioCode/STM32F1_HAL/Drivers/STM32F1xx_HAL_Driver/Src\stm32f1xx_hal_dma.c ****   
 465:E:/VisualStudioCode/STM32F1_HAL/Drivers/STM32F1xx_HAL_Driver/Src\stm32f1xx_hal_dma.c ****   if(HAL_DMA_STATE_BUSY != hdma->State)
 466:E:/VisualStudioCode/STM32F1_HAL/Drivers/STM32F1xx_HAL_Driver/Src\stm32f1xx_hal_dma.c ****   {
 467:E:/VisualStudioCode/STM32F1_HAL/Drivers/STM32F1xx_HAL_Driver/Src\stm32f1xx_hal_dma.c ****     /* no transfer ongoing */
 468:E:/VisualStudioCode/STM32F1_HAL/Drivers/STM32F1xx_HAL_Driver/Src\stm32f1xx_hal_dma.c ****     hdma->ErrorCode = HAL_DMA_ERROR_NO_XFER;
 469:E:/VisualStudioCode/STM32F1_HAL/Drivers/STM32F1xx_HAL_Driver/Src\stm32f1xx_hal_dma.c ****         
 470:E:/VisualStudioCode/STM32F1_HAL/Drivers/STM32F1xx_HAL_Driver/Src\stm32f1xx_hal_dma.c ****     status = HAL_ERROR;
 471:E:/VisualStudioCode/STM32F1_HAL/Drivers/STM32F1xx_HAL_Driver/Src\stm32f1xx_hal_dma.c ****   }
 472:E:/VisualStudioCode/STM32F1_HAL/Drivers/STM32F1xx_HAL_Driver/Src\stm32f1xx_hal_dma.c ****   else
 473:E:/VisualStudioCode/STM32F1_HAL/Drivers/STM32F1xx_HAL_Driver/Src\stm32f1xx_hal_dma.c ****   { 
 474:E:/VisualStudioCode/STM32F1_HAL/Drivers/STM32F1xx_HAL_Driver/Src\stm32f1xx_hal_dma.c ****     /* Disable DMA IT */
 475:E:/VisualStudioCode/STM32F1_HAL/Drivers/STM32F1xx_HAL_Driver/Src\stm32f1xx_hal_dma.c ****     __HAL_DMA_DISABLE_IT(hdma, (DMA_IT_TC | DMA_IT_HT | DMA_IT_TE));
 476:E:/VisualStudioCode/STM32F1_HAL/Drivers/STM32F1xx_HAL_Driver/Src\stm32f1xx_hal_dma.c **** 
 477:E:/VisualStudioCode/STM32F1_HAL/Drivers/STM32F1xx_HAL_Driver/Src\stm32f1xx_hal_dma.c ****     /* Disable the channel */
 478:E:/VisualStudioCode/STM32F1_HAL/Drivers/STM32F1xx_HAL_Driver/Src\stm32f1xx_hal_dma.c ****     __HAL_DMA_DISABLE(hdma);
 479:E:/VisualStudioCode/STM32F1_HAL/Drivers/STM32F1xx_HAL_Driver/Src\stm32f1xx_hal_dma.c **** 
 480:E:/VisualStudioCode/STM32F1_HAL/Drivers/STM32F1xx_HAL_Driver/Src\stm32f1xx_hal_dma.c ****     /* Clear all flags */
 481:E:/VisualStudioCode/STM32F1_HAL/Drivers/STM32F1xx_HAL_Driver/Src\stm32f1xx_hal_dma.c ****     __HAL_DMA_CLEAR_FLAG(hdma, __HAL_DMA_GET_GI_FLAG_INDEX(hdma));
 482:E:/VisualStudioCode/STM32F1_HAL/Drivers/STM32F1xx_HAL_Driver/Src\stm32f1xx_hal_dma.c **** 
 483:E:/VisualStudioCode/STM32F1_HAL/Drivers/STM32F1xx_HAL_Driver/Src\stm32f1xx_hal_dma.c ****     /* Change the DMA state */
 484:E:/VisualStudioCode/STM32F1_HAL/Drivers/STM32F1xx_HAL_Driver/Src\stm32f1xx_hal_dma.c ****     hdma->State = HAL_DMA_STATE_READY;
 485:E:/VisualStudioCode/STM32F1_HAL/Drivers/STM32F1xx_HAL_Driver/Src\stm32f1xx_hal_dma.c **** 
 486:E:/VisualStudioCode/STM32F1_HAL/Drivers/STM32F1xx_HAL_Driver/Src\stm32f1xx_hal_dma.c ****     /* Process Unlocked */
 487:E:/VisualStudioCode/STM32F1_HAL/Drivers/STM32F1xx_HAL_Driver/Src\stm32f1xx_hal_dma.c ****     __HAL_UNLOCK(hdma);
 488:E:/VisualStudioCode/STM32F1_HAL/Drivers/STM32F1xx_HAL_Driver/Src\stm32f1xx_hal_dma.c **** 
 489:E:/VisualStudioCode/STM32F1_HAL/Drivers/STM32F1xx_HAL_Driver/Src\stm32f1xx_hal_dma.c ****     /* Call User Abort callback */
ARM GAS  C:\Users\ADMINI~1\AppData\Local\Temp\ccwfdPpv.s 			page 10


 490:E:/VisualStudioCode/STM32F1_HAL/Drivers/STM32F1xx_HAL_Driver/Src\stm32f1xx_hal_dma.c ****     if(hdma->XferAbortCallback != NULL)
 491:E:/VisualStudioCode/STM32F1_HAL/Drivers/STM32F1xx_HAL_Driver/Src\stm32f1xx_hal_dma.c ****     {
 492:E:/VisualStudioCode/STM32F1_HAL/Drivers/STM32F1xx_HAL_Driver/Src\stm32f1xx_hal_dma.c ****       hdma->XferAbortCallback(hdma);
 493:E:/VisualStudioCode/STM32F1_HAL/Drivers/STM32F1xx_HAL_Driver/Src\stm32f1xx_hal_dma.c ****     } 
 494:E:/VisualStudioCode/STM32F1_HAL/Drivers/STM32F1xx_HAL_Driver/Src\stm32f1xx_hal_dma.c ****   }
 495:E:/VisualStudioCode/STM32F1_HAL/Drivers/STM32F1xx_HAL_Driver/Src\stm32f1xx_hal_dma.c ****   return status;
 496:E:/VisualStudioCode/STM32F1_HAL/Drivers/STM32F1xx_HAL_Driver/Src\stm32f1xx_hal_dma.c **** }
 497:E:/VisualStudioCode/STM32F1_HAL/Drivers/STM32F1xx_HAL_Driver/Src\stm32f1xx_hal_dma.c **** 
 498:E:/VisualStudioCode/STM32F1_HAL/Drivers/STM32F1xx_HAL_Driver/Src\stm32f1xx_hal_dma.c **** /**
 499:E:/VisualStudioCode/STM32F1_HAL/Drivers/STM32F1xx_HAL_Driver/Src\stm32f1xx_hal_dma.c ****   * @brief  Polling for transfer complete.
 500:E:/VisualStudioCode/STM32F1_HAL/Drivers/STM32F1xx_HAL_Driver/Src\stm32f1xx_hal_dma.c ****   * @param  hdma:    pointer to a DMA_HandleTypeDef structure that contains
 501:E:/VisualStudioCode/STM32F1_HAL/Drivers/STM32F1xx_HAL_Driver/Src\stm32f1xx_hal_dma.c ****   *                  the configuration information for the specified DMA Channel.
 502:E:/VisualStudioCode/STM32F1_HAL/Drivers/STM32F1xx_HAL_Driver/Src\stm32f1xx_hal_dma.c ****   * @param  CompleteLevel: Specifies the DMA level complete.
 503:E:/VisualStudioCode/STM32F1_HAL/Drivers/STM32F1xx_HAL_Driver/Src\stm32f1xx_hal_dma.c ****   * @param  Timeout:       Timeout duration.
 504:E:/VisualStudioCode/STM32F1_HAL/Drivers/STM32F1xx_HAL_Driver/Src\stm32f1xx_hal_dma.c ****   * @retval HAL status
 505:E:/VisualStudioCode/STM32F1_HAL/Drivers/STM32F1xx_HAL_Driver/Src\stm32f1xx_hal_dma.c ****   */
 506:E:/VisualStudioCode/STM32F1_HAL/Drivers/STM32F1xx_HAL_Driver/Src\stm32f1xx_hal_dma.c **** HAL_StatusTypeDef HAL_DMA_PollForTransfer(DMA_HandleTypeDef *hdma, uint32_t CompleteLevel, uint32_t
 507:E:/VisualStudioCode/STM32F1_HAL/Drivers/STM32F1xx_HAL_Driver/Src\stm32f1xx_hal_dma.c **** {
 508:E:/VisualStudioCode/STM32F1_HAL/Drivers/STM32F1xx_HAL_Driver/Src\stm32f1xx_hal_dma.c ****   uint32_t temp;
 509:E:/VisualStudioCode/STM32F1_HAL/Drivers/STM32F1xx_HAL_Driver/Src\stm32f1xx_hal_dma.c ****   uint32_t tickstart = 0U;
 510:E:/VisualStudioCode/STM32F1_HAL/Drivers/STM32F1xx_HAL_Driver/Src\stm32f1xx_hal_dma.c **** 
 511:E:/VisualStudioCode/STM32F1_HAL/Drivers/STM32F1xx_HAL_Driver/Src\stm32f1xx_hal_dma.c ****   if(HAL_DMA_STATE_BUSY != hdma->State)
 512:E:/VisualStudioCode/STM32F1_HAL/Drivers/STM32F1xx_HAL_Driver/Src\stm32f1xx_hal_dma.c ****   {
 513:E:/VisualStudioCode/STM32F1_HAL/Drivers/STM32F1xx_HAL_Driver/Src\stm32f1xx_hal_dma.c ****     /* no transfer ongoing */
 514:E:/VisualStudioCode/STM32F1_HAL/Drivers/STM32F1xx_HAL_Driver/Src\stm32f1xx_hal_dma.c ****     hdma->ErrorCode = HAL_DMA_ERROR_NO_XFER;
 515:E:/VisualStudioCode/STM32F1_HAL/Drivers/STM32F1xx_HAL_Driver/Src\stm32f1xx_hal_dma.c ****     __HAL_UNLOCK(hdma);
 516:E:/VisualStudioCode/STM32F1_HAL/Drivers/STM32F1xx_HAL_Driver/Src\stm32f1xx_hal_dma.c ****     return HAL_ERROR;
 517:E:/VisualStudioCode/STM32F1_HAL/Drivers/STM32F1xx_HAL_Driver/Src\stm32f1xx_hal_dma.c ****   }
 518:E:/VisualStudioCode/STM32F1_HAL/Drivers/STM32F1xx_HAL_Driver/Src\stm32f1xx_hal_dma.c **** 
 519:E:/VisualStudioCode/STM32F1_HAL/Drivers/STM32F1xx_HAL_Driver/Src\stm32f1xx_hal_dma.c ****   /* Polling mode not supported in circular mode */
 520:E:/VisualStudioCode/STM32F1_HAL/Drivers/STM32F1xx_HAL_Driver/Src\stm32f1xx_hal_dma.c ****   if (RESET != (hdma->Instance->CCR & DMA_CCR_CIRC))
 521:E:/VisualStudioCode/STM32F1_HAL/Drivers/STM32F1xx_HAL_Driver/Src\stm32f1xx_hal_dma.c ****   {
 522:E:/VisualStudioCode/STM32F1_HAL/Drivers/STM32F1xx_HAL_Driver/Src\stm32f1xx_hal_dma.c ****     hdma->ErrorCode = HAL_DMA_ERROR_NOT_SUPPORTED;
 523:E:/VisualStudioCode/STM32F1_HAL/Drivers/STM32F1xx_HAL_Driver/Src\stm32f1xx_hal_dma.c ****     return HAL_ERROR;
 524:E:/VisualStudioCode/STM32F1_HAL/Drivers/STM32F1xx_HAL_Driver/Src\stm32f1xx_hal_dma.c ****   }
 525:E:/VisualStudioCode/STM32F1_HAL/Drivers/STM32F1xx_HAL_Driver/Src\stm32f1xx_hal_dma.c ****   
 526:E:/VisualStudioCode/STM32F1_HAL/Drivers/STM32F1xx_HAL_Driver/Src\stm32f1xx_hal_dma.c ****   /* Get the level transfer complete flag */
 527:E:/VisualStudioCode/STM32F1_HAL/Drivers/STM32F1xx_HAL_Driver/Src\stm32f1xx_hal_dma.c ****   if(CompleteLevel == HAL_DMA_FULL_TRANSFER)
 528:E:/VisualStudioCode/STM32F1_HAL/Drivers/STM32F1xx_HAL_Driver/Src\stm32f1xx_hal_dma.c ****   {
 529:E:/VisualStudioCode/STM32F1_HAL/Drivers/STM32F1xx_HAL_Driver/Src\stm32f1xx_hal_dma.c ****     /* Transfer Complete flag */
 530:E:/VisualStudioCode/STM32F1_HAL/Drivers/STM32F1xx_HAL_Driver/Src\stm32f1xx_hal_dma.c ****     temp = __HAL_DMA_GET_TC_FLAG_INDEX(hdma);
 531:E:/VisualStudioCode/STM32F1_HAL/Drivers/STM32F1xx_HAL_Driver/Src\stm32f1xx_hal_dma.c ****   }
 532:E:/VisualStudioCode/STM32F1_HAL/Drivers/STM32F1xx_HAL_Driver/Src\stm32f1xx_hal_dma.c ****   else
 533:E:/VisualStudioCode/STM32F1_HAL/Drivers/STM32F1xx_HAL_Driver/Src\stm32f1xx_hal_dma.c ****   {
 534:E:/VisualStudioCode/STM32F1_HAL/Drivers/STM32F1xx_HAL_Driver/Src\stm32f1xx_hal_dma.c ****     /* Half Transfer Complete flag */
 535:E:/VisualStudioCode/STM32F1_HAL/Drivers/STM32F1xx_HAL_Driver/Src\stm32f1xx_hal_dma.c ****     temp = __HAL_DMA_GET_HT_FLAG_INDEX(hdma);
 536:E:/VisualStudioCode/STM32F1_HAL/Drivers/STM32F1xx_HAL_Driver/Src\stm32f1xx_hal_dma.c ****   }
 537:E:/VisualStudioCode/STM32F1_HAL/Drivers/STM32F1xx_HAL_Driver/Src\stm32f1xx_hal_dma.c **** 
 538:E:/VisualStudioCode/STM32F1_HAL/Drivers/STM32F1xx_HAL_Driver/Src\stm32f1xx_hal_dma.c ****   /* Get tick */
 539:E:/VisualStudioCode/STM32F1_HAL/Drivers/STM32F1xx_HAL_Driver/Src\stm32f1xx_hal_dma.c ****   tickstart = HAL_GetTick();
 540:E:/VisualStudioCode/STM32F1_HAL/Drivers/STM32F1xx_HAL_Driver/Src\stm32f1xx_hal_dma.c **** 
 541:E:/VisualStudioCode/STM32F1_HAL/Drivers/STM32F1xx_HAL_Driver/Src\stm32f1xx_hal_dma.c ****   while(__HAL_DMA_GET_FLAG(hdma, temp) == RESET)
 542:E:/VisualStudioCode/STM32F1_HAL/Drivers/STM32F1xx_HAL_Driver/Src\stm32f1xx_hal_dma.c ****   {
 543:E:/VisualStudioCode/STM32F1_HAL/Drivers/STM32F1xx_HAL_Driver/Src\stm32f1xx_hal_dma.c ****     if((__HAL_DMA_GET_FLAG(hdma, __HAL_DMA_GET_TE_FLAG_INDEX(hdma)) != RESET))
 544:E:/VisualStudioCode/STM32F1_HAL/Drivers/STM32F1xx_HAL_Driver/Src\stm32f1xx_hal_dma.c ****     {
 545:E:/VisualStudioCode/STM32F1_HAL/Drivers/STM32F1xx_HAL_Driver/Src\stm32f1xx_hal_dma.c ****       /* When a DMA transfer error occurs */
 546:E:/VisualStudioCode/STM32F1_HAL/Drivers/STM32F1xx_HAL_Driver/Src\stm32f1xx_hal_dma.c ****       /* A hardware clear of its EN bits is performed */
ARM GAS  C:\Users\ADMINI~1\AppData\Local\Temp\ccwfdPpv.s 			page 11


 547:E:/VisualStudioCode/STM32F1_HAL/Drivers/STM32F1xx_HAL_Driver/Src\stm32f1xx_hal_dma.c ****       /* Clear all flags */
 548:E:/VisualStudioCode/STM32F1_HAL/Drivers/STM32F1xx_HAL_Driver/Src\stm32f1xx_hal_dma.c ****       hdma->DmaBaseAddress->IFCR = (DMA_ISR_GIF1 << hdma->ChannelIndex);
 549:E:/VisualStudioCode/STM32F1_HAL/Drivers/STM32F1xx_HAL_Driver/Src\stm32f1xx_hal_dma.c **** 
 550:E:/VisualStudioCode/STM32F1_HAL/Drivers/STM32F1xx_HAL_Driver/Src\stm32f1xx_hal_dma.c ****       /* Update error code */
 551:E:/VisualStudioCode/STM32F1_HAL/Drivers/STM32F1xx_HAL_Driver/Src\stm32f1xx_hal_dma.c ****       SET_BIT(hdma->ErrorCode, HAL_DMA_ERROR_TE);
 552:E:/VisualStudioCode/STM32F1_HAL/Drivers/STM32F1xx_HAL_Driver/Src\stm32f1xx_hal_dma.c **** 
 553:E:/VisualStudioCode/STM32F1_HAL/Drivers/STM32F1xx_HAL_Driver/Src\stm32f1xx_hal_dma.c ****       /* Change the DMA state */
 554:E:/VisualStudioCode/STM32F1_HAL/Drivers/STM32F1xx_HAL_Driver/Src\stm32f1xx_hal_dma.c ****       hdma->State= HAL_DMA_STATE_READY;
 555:E:/VisualStudioCode/STM32F1_HAL/Drivers/STM32F1xx_HAL_Driver/Src\stm32f1xx_hal_dma.c **** 
 556:E:/VisualStudioCode/STM32F1_HAL/Drivers/STM32F1xx_HAL_Driver/Src\stm32f1xx_hal_dma.c ****       /* Process Unlocked */
 557:E:/VisualStudioCode/STM32F1_HAL/Drivers/STM32F1xx_HAL_Driver/Src\stm32f1xx_hal_dma.c ****       __HAL_UNLOCK(hdma);
 558:E:/VisualStudioCode/STM32F1_HAL/Drivers/STM32F1xx_HAL_Driver/Src\stm32f1xx_hal_dma.c **** 
 559:E:/VisualStudioCode/STM32F1_HAL/Drivers/STM32F1xx_HAL_Driver/Src\stm32f1xx_hal_dma.c ****       return HAL_ERROR;
 560:E:/VisualStudioCode/STM32F1_HAL/Drivers/STM32F1xx_HAL_Driver/Src\stm32f1xx_hal_dma.c ****     }
 561:E:/VisualStudioCode/STM32F1_HAL/Drivers/STM32F1xx_HAL_Driver/Src\stm32f1xx_hal_dma.c ****     /* Check for the Timeout */
 562:E:/VisualStudioCode/STM32F1_HAL/Drivers/STM32F1xx_HAL_Driver/Src\stm32f1xx_hal_dma.c ****     if(Timeout != HAL_MAX_DELAY)
 563:E:/VisualStudioCode/STM32F1_HAL/Drivers/STM32F1xx_HAL_Driver/Src\stm32f1xx_hal_dma.c ****     {
 564:E:/VisualStudioCode/STM32F1_HAL/Drivers/STM32F1xx_HAL_Driver/Src\stm32f1xx_hal_dma.c ****       if((Timeout == 0U) || ((HAL_GetTick() - tickstart) > Timeout))
 565:E:/VisualStudioCode/STM32F1_HAL/Drivers/STM32F1xx_HAL_Driver/Src\stm32f1xx_hal_dma.c ****       {
 566:E:/VisualStudioCode/STM32F1_HAL/Drivers/STM32F1xx_HAL_Driver/Src\stm32f1xx_hal_dma.c ****         /* Update error code */
 567:E:/VisualStudioCode/STM32F1_HAL/Drivers/STM32F1xx_HAL_Driver/Src\stm32f1xx_hal_dma.c ****         SET_BIT(hdma->ErrorCode, HAL_DMA_ERROR_TIMEOUT);
 568:E:/VisualStudioCode/STM32F1_HAL/Drivers/STM32F1xx_HAL_Driver/Src\stm32f1xx_hal_dma.c **** 
 569:E:/VisualStudioCode/STM32F1_HAL/Drivers/STM32F1xx_HAL_Driver/Src\stm32f1xx_hal_dma.c ****         /* Change the DMA state */
 570:E:/VisualStudioCode/STM32F1_HAL/Drivers/STM32F1xx_HAL_Driver/Src\stm32f1xx_hal_dma.c ****         hdma->State = HAL_DMA_STATE_READY;
 571:E:/VisualStudioCode/STM32F1_HAL/Drivers/STM32F1xx_HAL_Driver/Src\stm32f1xx_hal_dma.c **** 
 572:E:/VisualStudioCode/STM32F1_HAL/Drivers/STM32F1xx_HAL_Driver/Src\stm32f1xx_hal_dma.c ****         /* Process Unlocked */
 573:E:/VisualStudioCode/STM32F1_HAL/Drivers/STM32F1xx_HAL_Driver/Src\stm32f1xx_hal_dma.c ****         __HAL_UNLOCK(hdma);
 574:E:/VisualStudioCode/STM32F1_HAL/Drivers/STM32F1xx_HAL_Driver/Src\stm32f1xx_hal_dma.c **** 
 575:E:/VisualStudioCode/STM32F1_HAL/Drivers/STM32F1xx_HAL_Driver/Src\stm32f1xx_hal_dma.c ****         return HAL_ERROR;
 576:E:/VisualStudioCode/STM32F1_HAL/Drivers/STM32F1xx_HAL_Driver/Src\stm32f1xx_hal_dma.c ****       }
 577:E:/VisualStudioCode/STM32F1_HAL/Drivers/STM32F1xx_HAL_Driver/Src\stm32f1xx_hal_dma.c ****     }
 578:E:/VisualStudioCode/STM32F1_HAL/Drivers/STM32F1xx_HAL_Driver/Src\stm32f1xx_hal_dma.c ****   }
 579:E:/VisualStudioCode/STM32F1_HAL/Drivers/STM32F1xx_HAL_Driver/Src\stm32f1xx_hal_dma.c **** 
 580:E:/VisualStudioCode/STM32F1_HAL/Drivers/STM32F1xx_HAL_Driver/Src\stm32f1xx_hal_dma.c ****   if(CompleteLevel == HAL_DMA_FULL_TRANSFER)
 581:E:/VisualStudioCode/STM32F1_HAL/Drivers/STM32F1xx_HAL_Driver/Src\stm32f1xx_hal_dma.c ****   {
 582:E:/VisualStudioCode/STM32F1_HAL/Drivers/STM32F1xx_HAL_Driver/Src\stm32f1xx_hal_dma.c ****     /* Clear the transfer complete flag */
 583:E:/VisualStudioCode/STM32F1_HAL/Drivers/STM32F1xx_HAL_Driver/Src\stm32f1xx_hal_dma.c ****     __HAL_DMA_CLEAR_FLAG(hdma, __HAL_DMA_GET_TC_FLAG_INDEX(hdma));
 584:E:/VisualStudioCode/STM32F1_HAL/Drivers/STM32F1xx_HAL_Driver/Src\stm32f1xx_hal_dma.c **** 
 585:E:/VisualStudioCode/STM32F1_HAL/Drivers/STM32F1xx_HAL_Driver/Src\stm32f1xx_hal_dma.c ****     /* The selected Channelx EN bit is cleared (DMA is disabled and
 586:E:/VisualStudioCode/STM32F1_HAL/Drivers/STM32F1xx_HAL_Driver/Src\stm32f1xx_hal_dma.c ****     all transfers are complete) */
 587:E:/VisualStudioCode/STM32F1_HAL/Drivers/STM32F1xx_HAL_Driver/Src\stm32f1xx_hal_dma.c ****     hdma->State = HAL_DMA_STATE_READY;
 588:E:/VisualStudioCode/STM32F1_HAL/Drivers/STM32F1xx_HAL_Driver/Src\stm32f1xx_hal_dma.c ****   }
 589:E:/VisualStudioCode/STM32F1_HAL/Drivers/STM32F1xx_HAL_Driver/Src\stm32f1xx_hal_dma.c ****   else
 590:E:/VisualStudioCode/STM32F1_HAL/Drivers/STM32F1xx_HAL_Driver/Src\stm32f1xx_hal_dma.c ****   {
 591:E:/VisualStudioCode/STM32F1_HAL/Drivers/STM32F1xx_HAL_Driver/Src\stm32f1xx_hal_dma.c ****     /* Clear the half transfer complete flag */
 592:E:/VisualStudioCode/STM32F1_HAL/Drivers/STM32F1xx_HAL_Driver/Src\stm32f1xx_hal_dma.c ****     __HAL_DMA_CLEAR_FLAG(hdma, __HAL_DMA_GET_HT_FLAG_INDEX(hdma));
 593:E:/VisualStudioCode/STM32F1_HAL/Drivers/STM32F1xx_HAL_Driver/Src\stm32f1xx_hal_dma.c ****   }
 594:E:/VisualStudioCode/STM32F1_HAL/Drivers/STM32F1xx_HAL_Driver/Src\stm32f1xx_hal_dma.c ****   
 595:E:/VisualStudioCode/STM32F1_HAL/Drivers/STM32F1xx_HAL_Driver/Src\stm32f1xx_hal_dma.c ****   /* Process unlocked */
 596:E:/VisualStudioCode/STM32F1_HAL/Drivers/STM32F1xx_HAL_Driver/Src\stm32f1xx_hal_dma.c ****   __HAL_UNLOCK(hdma);
 597:E:/VisualStudioCode/STM32F1_HAL/Drivers/STM32F1xx_HAL_Driver/Src\stm32f1xx_hal_dma.c **** 
 598:E:/VisualStudioCode/STM32F1_HAL/Drivers/STM32F1xx_HAL_Driver/Src\stm32f1xx_hal_dma.c ****   return HAL_OK;
 599:E:/VisualStudioCode/STM32F1_HAL/Drivers/STM32F1xx_HAL_Driver/Src\stm32f1xx_hal_dma.c **** }
 600:E:/VisualStudioCode/STM32F1_HAL/Drivers/STM32F1xx_HAL_Driver/Src\stm32f1xx_hal_dma.c **** 
 601:E:/VisualStudioCode/STM32F1_HAL/Drivers/STM32F1xx_HAL_Driver/Src\stm32f1xx_hal_dma.c **** /**
 602:E:/VisualStudioCode/STM32F1_HAL/Drivers/STM32F1xx_HAL_Driver/Src\stm32f1xx_hal_dma.c ****   * @brief  Handles DMA interrupt request.
 603:E:/VisualStudioCode/STM32F1_HAL/Drivers/STM32F1xx_HAL_Driver/Src\stm32f1xx_hal_dma.c ****   * @param  hdma: pointer to a DMA_HandleTypeDef structure that contains
ARM GAS  C:\Users\ADMINI~1\AppData\Local\Temp\ccwfdPpv.s 			page 12


 604:E:/VisualStudioCode/STM32F1_HAL/Drivers/STM32F1xx_HAL_Driver/Src\stm32f1xx_hal_dma.c ****   *               the configuration information for the specified DMA Channel.  
 605:E:/VisualStudioCode/STM32F1_HAL/Drivers/STM32F1xx_HAL_Driver/Src\stm32f1xx_hal_dma.c ****   * @retval None
 606:E:/VisualStudioCode/STM32F1_HAL/Drivers/STM32F1xx_HAL_Driver/Src\stm32f1xx_hal_dma.c ****   */
 607:E:/VisualStudioCode/STM32F1_HAL/Drivers/STM32F1xx_HAL_Driver/Src\stm32f1xx_hal_dma.c **** void HAL_DMA_IRQHandler(DMA_HandleTypeDef *hdma)
 608:E:/VisualStudioCode/STM32F1_HAL/Drivers/STM32F1xx_HAL_Driver/Src\stm32f1xx_hal_dma.c **** {
 609:E:/VisualStudioCode/STM32F1_HAL/Drivers/STM32F1xx_HAL_Driver/Src\stm32f1xx_hal_dma.c ****   uint32_t flag_it = hdma->DmaBaseAddress->ISR;
 610:E:/VisualStudioCode/STM32F1_HAL/Drivers/STM32F1xx_HAL_Driver/Src\stm32f1xx_hal_dma.c ****   uint32_t source_it = hdma->Instance->CCR;
 611:E:/VisualStudioCode/STM32F1_HAL/Drivers/STM32F1xx_HAL_Driver/Src\stm32f1xx_hal_dma.c ****   
 612:E:/VisualStudioCode/STM32F1_HAL/Drivers/STM32F1xx_HAL_Driver/Src\stm32f1xx_hal_dma.c ****   /* Half Transfer Complete Interrupt management ******************************/
 613:E:/VisualStudioCode/STM32F1_HAL/Drivers/STM32F1xx_HAL_Driver/Src\stm32f1xx_hal_dma.c ****   if (((flag_it & (DMA_FLAG_HT1 << hdma->ChannelIndex)) != RESET) && ((source_it & DMA_IT_HT) != RE
 614:E:/VisualStudioCode/STM32F1_HAL/Drivers/STM32F1xx_HAL_Driver/Src\stm32f1xx_hal_dma.c ****   {
 615:E:/VisualStudioCode/STM32F1_HAL/Drivers/STM32F1xx_HAL_Driver/Src\stm32f1xx_hal_dma.c ****     /* Disable the half transfer interrupt if the DMA mode is not CIRCULAR */
 616:E:/VisualStudioCode/STM32F1_HAL/Drivers/STM32F1xx_HAL_Driver/Src\stm32f1xx_hal_dma.c ****     if((hdma->Instance->CCR & DMA_CCR_CIRC) == 0U)
 617:E:/VisualStudioCode/STM32F1_HAL/Drivers/STM32F1xx_HAL_Driver/Src\stm32f1xx_hal_dma.c ****     {
 618:E:/VisualStudioCode/STM32F1_HAL/Drivers/STM32F1xx_HAL_Driver/Src\stm32f1xx_hal_dma.c ****       /* Disable the half transfer interrupt */
 619:E:/VisualStudioCode/STM32F1_HAL/Drivers/STM32F1xx_HAL_Driver/Src\stm32f1xx_hal_dma.c ****       __HAL_DMA_DISABLE_IT(hdma, DMA_IT_HT);
 620:E:/VisualStudioCode/STM32F1_HAL/Drivers/STM32F1xx_HAL_Driver/Src\stm32f1xx_hal_dma.c ****     }
 621:E:/VisualStudioCode/STM32F1_HAL/Drivers/STM32F1xx_HAL_Driver/Src\stm32f1xx_hal_dma.c ****     /* Clear the half transfer complete flag */
 622:E:/VisualStudioCode/STM32F1_HAL/Drivers/STM32F1xx_HAL_Driver/Src\stm32f1xx_hal_dma.c ****     __HAL_DMA_CLEAR_FLAG(hdma, __HAL_DMA_GET_HT_FLAG_INDEX(hdma));
 623:E:/VisualStudioCode/STM32F1_HAL/Drivers/STM32F1xx_HAL_Driver/Src\stm32f1xx_hal_dma.c **** 
 624:E:/VisualStudioCode/STM32F1_HAL/Drivers/STM32F1xx_HAL_Driver/Src\stm32f1xx_hal_dma.c ****     /* DMA peripheral state is not updated in Half Transfer */
 625:E:/VisualStudioCode/STM32F1_HAL/Drivers/STM32F1xx_HAL_Driver/Src\stm32f1xx_hal_dma.c ****     /* but in Transfer Complete case */
 626:E:/VisualStudioCode/STM32F1_HAL/Drivers/STM32F1xx_HAL_Driver/Src\stm32f1xx_hal_dma.c **** 
 627:E:/VisualStudioCode/STM32F1_HAL/Drivers/STM32F1xx_HAL_Driver/Src\stm32f1xx_hal_dma.c ****     if(hdma->XferHalfCpltCallback != NULL)
 628:E:/VisualStudioCode/STM32F1_HAL/Drivers/STM32F1xx_HAL_Driver/Src\stm32f1xx_hal_dma.c ****     {
 629:E:/VisualStudioCode/STM32F1_HAL/Drivers/STM32F1xx_HAL_Driver/Src\stm32f1xx_hal_dma.c ****       /* Half transfer callback */
 630:E:/VisualStudioCode/STM32F1_HAL/Drivers/STM32F1xx_HAL_Driver/Src\stm32f1xx_hal_dma.c ****       hdma->XferHalfCpltCallback(hdma);
 631:E:/VisualStudioCode/STM32F1_HAL/Drivers/STM32F1xx_HAL_Driver/Src\stm32f1xx_hal_dma.c ****     }
 632:E:/VisualStudioCode/STM32F1_HAL/Drivers/STM32F1xx_HAL_Driver/Src\stm32f1xx_hal_dma.c ****   }
 633:E:/VisualStudioCode/STM32F1_HAL/Drivers/STM32F1xx_HAL_Driver/Src\stm32f1xx_hal_dma.c **** 
 634:E:/VisualStudioCode/STM32F1_HAL/Drivers/STM32F1xx_HAL_Driver/Src\stm32f1xx_hal_dma.c ****   /* Transfer Complete Interrupt management ***********************************/
 635:E:/VisualStudioCode/STM32F1_HAL/Drivers/STM32F1xx_HAL_Driver/Src\stm32f1xx_hal_dma.c ****   else if (((flag_it & (DMA_FLAG_TC1 << hdma->ChannelIndex)) != RESET) && ((source_it & DMA_IT_TC) 
 636:E:/VisualStudioCode/STM32F1_HAL/Drivers/STM32F1xx_HAL_Driver/Src\stm32f1xx_hal_dma.c ****   {
 637:E:/VisualStudioCode/STM32F1_HAL/Drivers/STM32F1xx_HAL_Driver/Src\stm32f1xx_hal_dma.c ****     if((hdma->Instance->CCR & DMA_CCR_CIRC) == 0U)
 638:E:/VisualStudioCode/STM32F1_HAL/Drivers/STM32F1xx_HAL_Driver/Src\stm32f1xx_hal_dma.c ****     {
 639:E:/VisualStudioCode/STM32F1_HAL/Drivers/STM32F1xx_HAL_Driver/Src\stm32f1xx_hal_dma.c ****       /* Disable the transfer complete and error interrupt */
 640:E:/VisualStudioCode/STM32F1_HAL/Drivers/STM32F1xx_HAL_Driver/Src\stm32f1xx_hal_dma.c ****       __HAL_DMA_DISABLE_IT(hdma, DMA_IT_TE | DMA_IT_TC);  
 641:E:/VisualStudioCode/STM32F1_HAL/Drivers/STM32F1xx_HAL_Driver/Src\stm32f1xx_hal_dma.c **** 
 642:E:/VisualStudioCode/STM32F1_HAL/Drivers/STM32F1xx_HAL_Driver/Src\stm32f1xx_hal_dma.c ****       /* Change the DMA state */
 643:E:/VisualStudioCode/STM32F1_HAL/Drivers/STM32F1xx_HAL_Driver/Src\stm32f1xx_hal_dma.c ****       hdma->State = HAL_DMA_STATE_READY;
 644:E:/VisualStudioCode/STM32F1_HAL/Drivers/STM32F1xx_HAL_Driver/Src\stm32f1xx_hal_dma.c ****     }
 645:E:/VisualStudioCode/STM32F1_HAL/Drivers/STM32F1xx_HAL_Driver/Src\stm32f1xx_hal_dma.c ****     /* Clear the transfer complete flag */
 646:E:/VisualStudioCode/STM32F1_HAL/Drivers/STM32F1xx_HAL_Driver/Src\stm32f1xx_hal_dma.c ****       __HAL_DMA_CLEAR_FLAG(hdma, __HAL_DMA_GET_TC_FLAG_INDEX(hdma));
 647:E:/VisualStudioCode/STM32F1_HAL/Drivers/STM32F1xx_HAL_Driver/Src\stm32f1xx_hal_dma.c **** 
 648:E:/VisualStudioCode/STM32F1_HAL/Drivers/STM32F1xx_HAL_Driver/Src\stm32f1xx_hal_dma.c ****     /* Process Unlocked */
 649:E:/VisualStudioCode/STM32F1_HAL/Drivers/STM32F1xx_HAL_Driver/Src\stm32f1xx_hal_dma.c ****     __HAL_UNLOCK(hdma);
 650:E:/VisualStudioCode/STM32F1_HAL/Drivers/STM32F1xx_HAL_Driver/Src\stm32f1xx_hal_dma.c **** 
 651:E:/VisualStudioCode/STM32F1_HAL/Drivers/STM32F1xx_HAL_Driver/Src\stm32f1xx_hal_dma.c ****     if(hdma->XferCpltCallback != NULL)
 652:E:/VisualStudioCode/STM32F1_HAL/Drivers/STM32F1xx_HAL_Driver/Src\stm32f1xx_hal_dma.c ****     {
 653:E:/VisualStudioCode/STM32F1_HAL/Drivers/STM32F1xx_HAL_Driver/Src\stm32f1xx_hal_dma.c ****       /* Transfer complete callback */
 654:E:/VisualStudioCode/STM32F1_HAL/Drivers/STM32F1xx_HAL_Driver/Src\stm32f1xx_hal_dma.c ****       hdma->XferCpltCallback(hdma);
 655:E:/VisualStudioCode/STM32F1_HAL/Drivers/STM32F1xx_HAL_Driver/Src\stm32f1xx_hal_dma.c ****     }
 656:E:/VisualStudioCode/STM32F1_HAL/Drivers/STM32F1xx_HAL_Driver/Src\stm32f1xx_hal_dma.c ****   }
 657:E:/VisualStudioCode/STM32F1_HAL/Drivers/STM32F1xx_HAL_Driver/Src\stm32f1xx_hal_dma.c **** 
 658:E:/VisualStudioCode/STM32F1_HAL/Drivers/STM32F1xx_HAL_Driver/Src\stm32f1xx_hal_dma.c ****   /* Transfer Error Interrupt management **************************************/
 659:E:/VisualStudioCode/STM32F1_HAL/Drivers/STM32F1xx_HAL_Driver/Src\stm32f1xx_hal_dma.c ****   else if (( RESET != (flag_it & (DMA_FLAG_TE1 << hdma->ChannelIndex))) && (RESET != (source_it & D
 660:E:/VisualStudioCode/STM32F1_HAL/Drivers/STM32F1xx_HAL_Driver/Src\stm32f1xx_hal_dma.c ****   {
ARM GAS  C:\Users\ADMINI~1\AppData\Local\Temp\ccwfdPpv.s 			page 13


 661:E:/VisualStudioCode/STM32F1_HAL/Drivers/STM32F1xx_HAL_Driver/Src\stm32f1xx_hal_dma.c ****     /* When a DMA transfer error occurs */
 662:E:/VisualStudioCode/STM32F1_HAL/Drivers/STM32F1xx_HAL_Driver/Src\stm32f1xx_hal_dma.c ****     /* A hardware clear of its EN bits is performed */
 663:E:/VisualStudioCode/STM32F1_HAL/Drivers/STM32F1xx_HAL_Driver/Src\stm32f1xx_hal_dma.c ****     /* Disable ALL DMA IT */
 664:E:/VisualStudioCode/STM32F1_HAL/Drivers/STM32F1xx_HAL_Driver/Src\stm32f1xx_hal_dma.c ****     __HAL_DMA_DISABLE_IT(hdma, (DMA_IT_TC | DMA_IT_HT | DMA_IT_TE));
 665:E:/VisualStudioCode/STM32F1_HAL/Drivers/STM32F1xx_HAL_Driver/Src\stm32f1xx_hal_dma.c **** 
 666:E:/VisualStudioCode/STM32F1_HAL/Drivers/STM32F1xx_HAL_Driver/Src\stm32f1xx_hal_dma.c ****     /* Clear all flags */
 667:E:/VisualStudioCode/STM32F1_HAL/Drivers/STM32F1xx_HAL_Driver/Src\stm32f1xx_hal_dma.c ****     hdma->DmaBaseAddress->IFCR = (DMA_ISR_GIF1 << hdma->ChannelIndex);
 668:E:/VisualStudioCode/STM32F1_HAL/Drivers/STM32F1xx_HAL_Driver/Src\stm32f1xx_hal_dma.c **** 
 669:E:/VisualStudioCode/STM32F1_HAL/Drivers/STM32F1xx_HAL_Driver/Src\stm32f1xx_hal_dma.c ****     /* Update error code */
 670:E:/VisualStudioCode/STM32F1_HAL/Drivers/STM32F1xx_HAL_Driver/Src\stm32f1xx_hal_dma.c ****     hdma->ErrorCode = HAL_DMA_ERROR_TE;
 671:E:/VisualStudioCode/STM32F1_HAL/Drivers/STM32F1xx_HAL_Driver/Src\stm32f1xx_hal_dma.c **** 
 672:E:/VisualStudioCode/STM32F1_HAL/Drivers/STM32F1xx_HAL_Driver/Src\stm32f1xx_hal_dma.c ****     /* Change the DMA state */
 673:E:/VisualStudioCode/STM32F1_HAL/Drivers/STM32F1xx_HAL_Driver/Src\stm32f1xx_hal_dma.c ****     hdma->State = HAL_DMA_STATE_READY;
 674:E:/VisualStudioCode/STM32F1_HAL/Drivers/STM32F1xx_HAL_Driver/Src\stm32f1xx_hal_dma.c **** 
 675:E:/VisualStudioCode/STM32F1_HAL/Drivers/STM32F1xx_HAL_Driver/Src\stm32f1xx_hal_dma.c ****     /* Process Unlocked */
 676:E:/VisualStudioCode/STM32F1_HAL/Drivers/STM32F1xx_HAL_Driver/Src\stm32f1xx_hal_dma.c ****     __HAL_UNLOCK(hdma);
 677:E:/VisualStudioCode/STM32F1_HAL/Drivers/STM32F1xx_HAL_Driver/Src\stm32f1xx_hal_dma.c **** 
 678:E:/VisualStudioCode/STM32F1_HAL/Drivers/STM32F1xx_HAL_Driver/Src\stm32f1xx_hal_dma.c ****     if (hdma->XferErrorCallback != NULL)
 679:E:/VisualStudioCode/STM32F1_HAL/Drivers/STM32F1xx_HAL_Driver/Src\stm32f1xx_hal_dma.c ****     {
 680:E:/VisualStudioCode/STM32F1_HAL/Drivers/STM32F1xx_HAL_Driver/Src\stm32f1xx_hal_dma.c ****       /* Transfer error callback */
 681:E:/VisualStudioCode/STM32F1_HAL/Drivers/STM32F1xx_HAL_Driver/Src\stm32f1xx_hal_dma.c ****       hdma->XferErrorCallback(hdma);
 682:E:/VisualStudioCode/STM32F1_HAL/Drivers/STM32F1xx_HAL_Driver/Src\stm32f1xx_hal_dma.c ****     }
 683:E:/VisualStudioCode/STM32F1_HAL/Drivers/STM32F1xx_HAL_Driver/Src\stm32f1xx_hal_dma.c ****   }
 684:E:/VisualStudioCode/STM32F1_HAL/Drivers/STM32F1xx_HAL_Driver/Src\stm32f1xx_hal_dma.c ****   return;
 685:E:/VisualStudioCode/STM32F1_HAL/Drivers/STM32F1xx_HAL_Driver/Src\stm32f1xx_hal_dma.c **** }
 686:E:/VisualStudioCode/STM32F1_HAL/Drivers/STM32F1xx_HAL_Driver/Src\stm32f1xx_hal_dma.c **** 
 687:E:/VisualStudioCode/STM32F1_HAL/Drivers/STM32F1xx_HAL_Driver/Src\stm32f1xx_hal_dma.c **** /**
 688:E:/VisualStudioCode/STM32F1_HAL/Drivers/STM32F1xx_HAL_Driver/Src\stm32f1xx_hal_dma.c ****   * @brief Register callbacks
 689:E:/VisualStudioCode/STM32F1_HAL/Drivers/STM32F1xx_HAL_Driver/Src\stm32f1xx_hal_dma.c ****   * @param hdma: pointer to a DMA_HandleTypeDef structure that contains
 690:E:/VisualStudioCode/STM32F1_HAL/Drivers/STM32F1xx_HAL_Driver/Src\stm32f1xx_hal_dma.c ****   *              the configuration information for the specified DMA Channel.
 691:E:/VisualStudioCode/STM32F1_HAL/Drivers/STM32F1xx_HAL_Driver/Src\stm32f1xx_hal_dma.c ****   * @param CallbackID: User Callback identifer
 692:E:/VisualStudioCode/STM32F1_HAL/Drivers/STM32F1xx_HAL_Driver/Src\stm32f1xx_hal_dma.c ****   *                    a HAL_DMA_CallbackIDTypeDef ENUM as parameter.
 693:E:/VisualStudioCode/STM32F1_HAL/Drivers/STM32F1xx_HAL_Driver/Src\stm32f1xx_hal_dma.c ****   * @param pCallback: pointer to private callbacsk function which has pointer to 
 694:E:/VisualStudioCode/STM32F1_HAL/Drivers/STM32F1xx_HAL_Driver/Src\stm32f1xx_hal_dma.c ****   *                   a DMA_HandleTypeDef structure as parameter.
 695:E:/VisualStudioCode/STM32F1_HAL/Drivers/STM32F1xx_HAL_Driver/Src\stm32f1xx_hal_dma.c ****   * @retval HAL status
 696:E:/VisualStudioCode/STM32F1_HAL/Drivers/STM32F1xx_HAL_Driver/Src\stm32f1xx_hal_dma.c ****   */                          
 697:E:/VisualStudioCode/STM32F1_HAL/Drivers/STM32F1xx_HAL_Driver/Src\stm32f1xx_hal_dma.c **** HAL_StatusTypeDef HAL_DMA_RegisterCallback(DMA_HandleTypeDef *hdma, HAL_DMA_CallbackIDTypeDef Callb
 698:E:/VisualStudioCode/STM32F1_HAL/Drivers/STM32F1xx_HAL_Driver/Src\stm32f1xx_hal_dma.c **** {
 699:E:/VisualStudioCode/STM32F1_HAL/Drivers/STM32F1xx_HAL_Driver/Src\stm32f1xx_hal_dma.c ****   HAL_StatusTypeDef status = HAL_OK;
 700:E:/VisualStudioCode/STM32F1_HAL/Drivers/STM32F1xx_HAL_Driver/Src\stm32f1xx_hal_dma.c ****   
 701:E:/VisualStudioCode/STM32F1_HAL/Drivers/STM32F1xx_HAL_Driver/Src\stm32f1xx_hal_dma.c ****   /* Process locked */
 702:E:/VisualStudioCode/STM32F1_HAL/Drivers/STM32F1xx_HAL_Driver/Src\stm32f1xx_hal_dma.c ****   __HAL_LOCK(hdma);
 703:E:/VisualStudioCode/STM32F1_HAL/Drivers/STM32F1xx_HAL_Driver/Src\stm32f1xx_hal_dma.c ****   
 704:E:/VisualStudioCode/STM32F1_HAL/Drivers/STM32F1xx_HAL_Driver/Src\stm32f1xx_hal_dma.c ****   if(HAL_DMA_STATE_READY == hdma->State)
 705:E:/VisualStudioCode/STM32F1_HAL/Drivers/STM32F1xx_HAL_Driver/Src\stm32f1xx_hal_dma.c ****   {
 706:E:/VisualStudioCode/STM32F1_HAL/Drivers/STM32F1xx_HAL_Driver/Src\stm32f1xx_hal_dma.c ****     switch (CallbackID)
 707:E:/VisualStudioCode/STM32F1_HAL/Drivers/STM32F1xx_HAL_Driver/Src\stm32f1xx_hal_dma.c ****     {
 708:E:/VisualStudioCode/STM32F1_HAL/Drivers/STM32F1xx_HAL_Driver/Src\stm32f1xx_hal_dma.c ****     case  HAL_DMA_XFER_CPLT_CB_ID:
 709:E:/VisualStudioCode/STM32F1_HAL/Drivers/STM32F1xx_HAL_Driver/Src\stm32f1xx_hal_dma.c ****       hdma->XferCpltCallback = pCallback;
 710:E:/VisualStudioCode/STM32F1_HAL/Drivers/STM32F1xx_HAL_Driver/Src\stm32f1xx_hal_dma.c ****       break;
 711:E:/VisualStudioCode/STM32F1_HAL/Drivers/STM32F1xx_HAL_Driver/Src\stm32f1xx_hal_dma.c ****       
 712:E:/VisualStudioCode/STM32F1_HAL/Drivers/STM32F1xx_HAL_Driver/Src\stm32f1xx_hal_dma.c ****     case  HAL_DMA_XFER_HALFCPLT_CB_ID:
 713:E:/VisualStudioCode/STM32F1_HAL/Drivers/STM32F1xx_HAL_Driver/Src\stm32f1xx_hal_dma.c ****       hdma->XferHalfCpltCallback = pCallback;
 714:E:/VisualStudioCode/STM32F1_HAL/Drivers/STM32F1xx_HAL_Driver/Src\stm32f1xx_hal_dma.c ****       break;         
 715:E:/VisualStudioCode/STM32F1_HAL/Drivers/STM32F1xx_HAL_Driver/Src\stm32f1xx_hal_dma.c **** 
 716:E:/VisualStudioCode/STM32F1_HAL/Drivers/STM32F1xx_HAL_Driver/Src\stm32f1xx_hal_dma.c ****     case  HAL_DMA_XFER_ERROR_CB_ID:
 717:E:/VisualStudioCode/STM32F1_HAL/Drivers/STM32F1xx_HAL_Driver/Src\stm32f1xx_hal_dma.c ****       hdma->XferErrorCallback = pCallback;
ARM GAS  C:\Users\ADMINI~1\AppData\Local\Temp\ccwfdPpv.s 			page 14


 718:E:/VisualStudioCode/STM32F1_HAL/Drivers/STM32F1xx_HAL_Driver/Src\stm32f1xx_hal_dma.c ****       break;         
 719:E:/VisualStudioCode/STM32F1_HAL/Drivers/STM32F1xx_HAL_Driver/Src\stm32f1xx_hal_dma.c ****       
 720:E:/VisualStudioCode/STM32F1_HAL/Drivers/STM32F1xx_HAL_Driver/Src\stm32f1xx_hal_dma.c ****     case  HAL_DMA_XFER_ABORT_CB_ID:
 721:E:/VisualStudioCode/STM32F1_HAL/Drivers/STM32F1xx_HAL_Driver/Src\stm32f1xx_hal_dma.c ****       hdma->XferAbortCallback = pCallback;
 722:E:/VisualStudioCode/STM32F1_HAL/Drivers/STM32F1xx_HAL_Driver/Src\stm32f1xx_hal_dma.c ****       break; 
 723:E:/VisualStudioCode/STM32F1_HAL/Drivers/STM32F1xx_HAL_Driver/Src\stm32f1xx_hal_dma.c ****       
 724:E:/VisualStudioCode/STM32F1_HAL/Drivers/STM32F1xx_HAL_Driver/Src\stm32f1xx_hal_dma.c ****     default:
 725:E:/VisualStudioCode/STM32F1_HAL/Drivers/STM32F1xx_HAL_Driver/Src\stm32f1xx_hal_dma.c ****       status = HAL_ERROR;
 726:E:/VisualStudioCode/STM32F1_HAL/Drivers/STM32F1xx_HAL_Driver/Src\stm32f1xx_hal_dma.c ****       break;                                                            
 727:E:/VisualStudioCode/STM32F1_HAL/Drivers/STM32F1xx_HAL_Driver/Src\stm32f1xx_hal_dma.c ****     }
 728:E:/VisualStudioCode/STM32F1_HAL/Drivers/STM32F1xx_HAL_Driver/Src\stm32f1xx_hal_dma.c ****   }
 729:E:/VisualStudioCode/STM32F1_HAL/Drivers/STM32F1xx_HAL_Driver/Src\stm32f1xx_hal_dma.c ****   else
 730:E:/VisualStudioCode/STM32F1_HAL/Drivers/STM32F1xx_HAL_Driver/Src\stm32f1xx_hal_dma.c ****   {
 731:E:/VisualStudioCode/STM32F1_HAL/Drivers/STM32F1xx_HAL_Driver/Src\stm32f1xx_hal_dma.c ****     status = HAL_ERROR;
 732:E:/VisualStudioCode/STM32F1_HAL/Drivers/STM32F1xx_HAL_Driver/Src\stm32f1xx_hal_dma.c ****   } 
 733:E:/VisualStudioCode/STM32F1_HAL/Drivers/STM32F1xx_HAL_Driver/Src\stm32f1xx_hal_dma.c ****   
 734:E:/VisualStudioCode/STM32F1_HAL/Drivers/STM32F1xx_HAL_Driver/Src\stm32f1xx_hal_dma.c ****   /* Release Lock */
 735:E:/VisualStudioCode/STM32F1_HAL/Drivers/STM32F1xx_HAL_Driver/Src\stm32f1xx_hal_dma.c ****   __HAL_UNLOCK(hdma);
 736:E:/VisualStudioCode/STM32F1_HAL/Drivers/STM32F1xx_HAL_Driver/Src\stm32f1xx_hal_dma.c ****   
 737:E:/VisualStudioCode/STM32F1_HAL/Drivers/STM32F1xx_HAL_Driver/Src\stm32f1xx_hal_dma.c ****   return status;
 738:E:/VisualStudioCode/STM32F1_HAL/Drivers/STM32F1xx_HAL_Driver/Src\stm32f1xx_hal_dma.c **** }
 739:E:/VisualStudioCode/STM32F1_HAL/Drivers/STM32F1xx_HAL_Driver/Src\stm32f1xx_hal_dma.c **** 
 740:E:/VisualStudioCode/STM32F1_HAL/Drivers/STM32F1xx_HAL_Driver/Src\stm32f1xx_hal_dma.c **** /**
 741:E:/VisualStudioCode/STM32F1_HAL/Drivers/STM32F1xx_HAL_Driver/Src\stm32f1xx_hal_dma.c ****   * @brief UnRegister callbacks
 742:E:/VisualStudioCode/STM32F1_HAL/Drivers/STM32F1xx_HAL_Driver/Src\stm32f1xx_hal_dma.c ****   * @param hdma: pointer to a DMA_HandleTypeDef structure that contains
 743:E:/VisualStudioCode/STM32F1_HAL/Drivers/STM32F1xx_HAL_Driver/Src\stm32f1xx_hal_dma.c ****   *              the configuration information for the specified DMA Channel.
 744:E:/VisualStudioCode/STM32F1_HAL/Drivers/STM32F1xx_HAL_Driver/Src\stm32f1xx_hal_dma.c ****   * @param CallbackID: User Callback identifer
 745:E:/VisualStudioCode/STM32F1_HAL/Drivers/STM32F1xx_HAL_Driver/Src\stm32f1xx_hal_dma.c ****   *                    a HAL_DMA_CallbackIDTypeDef ENUM as parameter.
 746:E:/VisualStudioCode/STM32F1_HAL/Drivers/STM32F1xx_HAL_Driver/Src\stm32f1xx_hal_dma.c ****   * @retval HAL status
 747:E:/VisualStudioCode/STM32F1_HAL/Drivers/STM32F1xx_HAL_Driver/Src\stm32f1xx_hal_dma.c ****   */              
 748:E:/VisualStudioCode/STM32F1_HAL/Drivers/STM32F1xx_HAL_Driver/Src\stm32f1xx_hal_dma.c **** HAL_StatusTypeDef HAL_DMA_UnRegisterCallback(DMA_HandleTypeDef *hdma, HAL_DMA_CallbackIDTypeDef Cal
 749:E:/VisualStudioCode/STM32F1_HAL/Drivers/STM32F1xx_HAL_Driver/Src\stm32f1xx_hal_dma.c **** {
 750:E:/VisualStudioCode/STM32F1_HAL/Drivers/STM32F1xx_HAL_Driver/Src\stm32f1xx_hal_dma.c ****   HAL_StatusTypeDef status = HAL_OK;
 751:E:/VisualStudioCode/STM32F1_HAL/Drivers/STM32F1xx_HAL_Driver/Src\stm32f1xx_hal_dma.c **** 
 752:E:/VisualStudioCode/STM32F1_HAL/Drivers/STM32F1xx_HAL_Driver/Src\stm32f1xx_hal_dma.c ****   /* Process locked */
 753:E:/VisualStudioCode/STM32F1_HAL/Drivers/STM32F1xx_HAL_Driver/Src\stm32f1xx_hal_dma.c ****   __HAL_LOCK(hdma);
 754:E:/VisualStudioCode/STM32F1_HAL/Drivers/STM32F1xx_HAL_Driver/Src\stm32f1xx_hal_dma.c ****   
 755:E:/VisualStudioCode/STM32F1_HAL/Drivers/STM32F1xx_HAL_Driver/Src\stm32f1xx_hal_dma.c ****   if(HAL_DMA_STATE_READY == hdma->State)
 756:E:/VisualStudioCode/STM32F1_HAL/Drivers/STM32F1xx_HAL_Driver/Src\stm32f1xx_hal_dma.c ****   {
 757:E:/VisualStudioCode/STM32F1_HAL/Drivers/STM32F1xx_HAL_Driver/Src\stm32f1xx_hal_dma.c ****     switch (CallbackID)
 758:E:/VisualStudioCode/STM32F1_HAL/Drivers/STM32F1xx_HAL_Driver/Src\stm32f1xx_hal_dma.c ****     {
 759:E:/VisualStudioCode/STM32F1_HAL/Drivers/STM32F1xx_HAL_Driver/Src\stm32f1xx_hal_dma.c ****     case  HAL_DMA_XFER_CPLT_CB_ID:
 760:E:/VisualStudioCode/STM32F1_HAL/Drivers/STM32F1xx_HAL_Driver/Src\stm32f1xx_hal_dma.c ****       hdma->XferCpltCallback = NULL;
 761:E:/VisualStudioCode/STM32F1_HAL/Drivers/STM32F1xx_HAL_Driver/Src\stm32f1xx_hal_dma.c ****       break;
 762:E:/VisualStudioCode/STM32F1_HAL/Drivers/STM32F1xx_HAL_Driver/Src\stm32f1xx_hal_dma.c **** 
 763:E:/VisualStudioCode/STM32F1_HAL/Drivers/STM32F1xx_HAL_Driver/Src\stm32f1xx_hal_dma.c ****     case  HAL_DMA_XFER_HALFCPLT_CB_ID:
 764:E:/VisualStudioCode/STM32F1_HAL/Drivers/STM32F1xx_HAL_Driver/Src\stm32f1xx_hal_dma.c ****       hdma->XferHalfCpltCallback = NULL;
 765:E:/VisualStudioCode/STM32F1_HAL/Drivers/STM32F1xx_HAL_Driver/Src\stm32f1xx_hal_dma.c ****       break;         
 766:E:/VisualStudioCode/STM32F1_HAL/Drivers/STM32F1xx_HAL_Driver/Src\stm32f1xx_hal_dma.c **** 
 767:E:/VisualStudioCode/STM32F1_HAL/Drivers/STM32F1xx_HAL_Driver/Src\stm32f1xx_hal_dma.c ****     case  HAL_DMA_XFER_ERROR_CB_ID:
 768:E:/VisualStudioCode/STM32F1_HAL/Drivers/STM32F1xx_HAL_Driver/Src\stm32f1xx_hal_dma.c ****       hdma->XferErrorCallback = NULL;
 769:E:/VisualStudioCode/STM32F1_HAL/Drivers/STM32F1xx_HAL_Driver/Src\stm32f1xx_hal_dma.c ****       break;         
 770:E:/VisualStudioCode/STM32F1_HAL/Drivers/STM32F1xx_HAL_Driver/Src\stm32f1xx_hal_dma.c **** 
 771:E:/VisualStudioCode/STM32F1_HAL/Drivers/STM32F1xx_HAL_Driver/Src\stm32f1xx_hal_dma.c ****     case  HAL_DMA_XFER_ABORT_CB_ID:
 772:E:/VisualStudioCode/STM32F1_HAL/Drivers/STM32F1xx_HAL_Driver/Src\stm32f1xx_hal_dma.c ****       hdma->XferAbortCallback = NULL;
 773:E:/VisualStudioCode/STM32F1_HAL/Drivers/STM32F1xx_HAL_Driver/Src\stm32f1xx_hal_dma.c ****       break; 
 774:E:/VisualStudioCode/STM32F1_HAL/Drivers/STM32F1xx_HAL_Driver/Src\stm32f1xx_hal_dma.c **** 
ARM GAS  C:\Users\ADMINI~1\AppData\Local\Temp\ccwfdPpv.s 			page 15


 775:E:/VisualStudioCode/STM32F1_HAL/Drivers/STM32F1xx_HAL_Driver/Src\stm32f1xx_hal_dma.c ****     case   HAL_DMA_XFER_ALL_CB_ID:
 776:E:/VisualStudioCode/STM32F1_HAL/Drivers/STM32F1xx_HAL_Driver/Src\stm32f1xx_hal_dma.c ****       hdma->XferCpltCallback = NULL;
 777:E:/VisualStudioCode/STM32F1_HAL/Drivers/STM32F1xx_HAL_Driver/Src\stm32f1xx_hal_dma.c ****       hdma->XferHalfCpltCallback = NULL;
 778:E:/VisualStudioCode/STM32F1_HAL/Drivers/STM32F1xx_HAL_Driver/Src\stm32f1xx_hal_dma.c ****       hdma->XferErrorCallback = NULL;
 779:E:/VisualStudioCode/STM32F1_HAL/Drivers/STM32F1xx_HAL_Driver/Src\stm32f1xx_hal_dma.c ****       hdma->XferAbortCallback = NULL;
 780:E:/VisualStudioCode/STM32F1_HAL/Drivers/STM32F1xx_HAL_Driver/Src\stm32f1xx_hal_dma.c ****       break; 
 781:E:/VisualStudioCode/STM32F1_HAL/Drivers/STM32F1xx_HAL_Driver/Src\stm32f1xx_hal_dma.c **** 
 782:E:/VisualStudioCode/STM32F1_HAL/Drivers/STM32F1xx_HAL_Driver/Src\stm32f1xx_hal_dma.c ****     default:
 783:E:/VisualStudioCode/STM32F1_HAL/Drivers/STM32F1xx_HAL_Driver/Src\stm32f1xx_hal_dma.c ****       status = HAL_ERROR;
 784:E:/VisualStudioCode/STM32F1_HAL/Drivers/STM32F1xx_HAL_Driver/Src\stm32f1xx_hal_dma.c ****       break;
 785:E:/VisualStudioCode/STM32F1_HAL/Drivers/STM32F1xx_HAL_Driver/Src\stm32f1xx_hal_dma.c ****     }
 786:E:/VisualStudioCode/STM32F1_HAL/Drivers/STM32F1xx_HAL_Driver/Src\stm32f1xx_hal_dma.c ****   }
 787:E:/VisualStudioCode/STM32F1_HAL/Drivers/STM32F1xx_HAL_Driver/Src\stm32f1xx_hal_dma.c ****   else
 788:E:/VisualStudioCode/STM32F1_HAL/Drivers/STM32F1xx_HAL_Driver/Src\stm32f1xx_hal_dma.c ****   {
 789:E:/VisualStudioCode/STM32F1_HAL/Drivers/STM32F1xx_HAL_Driver/Src\stm32f1xx_hal_dma.c ****     status = HAL_ERROR;
 790:E:/VisualStudioCode/STM32F1_HAL/Drivers/STM32F1xx_HAL_Driver/Src\stm32f1xx_hal_dma.c ****   } 
 791:E:/VisualStudioCode/STM32F1_HAL/Drivers/STM32F1xx_HAL_Driver/Src\stm32f1xx_hal_dma.c ****   
 792:E:/VisualStudioCode/STM32F1_HAL/Drivers/STM32F1xx_HAL_Driver/Src\stm32f1xx_hal_dma.c ****   /* Release Lock */
 793:E:/VisualStudioCode/STM32F1_HAL/Drivers/STM32F1xx_HAL_Driver/Src\stm32f1xx_hal_dma.c ****   __HAL_UNLOCK(hdma);
 794:E:/VisualStudioCode/STM32F1_HAL/Drivers/STM32F1xx_HAL_Driver/Src\stm32f1xx_hal_dma.c ****   
 795:E:/VisualStudioCode/STM32F1_HAL/Drivers/STM32F1xx_HAL_Driver/Src\stm32f1xx_hal_dma.c ****   return status;
 796:E:/VisualStudioCode/STM32F1_HAL/Drivers/STM32F1xx_HAL_Driver/Src\stm32f1xx_hal_dma.c **** }
 797:E:/VisualStudioCode/STM32F1_HAL/Drivers/STM32F1xx_HAL_Driver/Src\stm32f1xx_hal_dma.c ****   
 798:E:/VisualStudioCode/STM32F1_HAL/Drivers/STM32F1xx_HAL_Driver/Src\stm32f1xx_hal_dma.c **** /**
 799:E:/VisualStudioCode/STM32F1_HAL/Drivers/STM32F1xx_HAL_Driver/Src\stm32f1xx_hal_dma.c ****   * @}
 800:E:/VisualStudioCode/STM32F1_HAL/Drivers/STM32F1xx_HAL_Driver/Src\stm32f1xx_hal_dma.c ****   */
 801:E:/VisualStudioCode/STM32F1_HAL/Drivers/STM32F1xx_HAL_Driver/Src\stm32f1xx_hal_dma.c **** 
 802:E:/VisualStudioCode/STM32F1_HAL/Drivers/STM32F1xx_HAL_Driver/Src\stm32f1xx_hal_dma.c **** /** @defgroup DMA_Exported_Functions_Group3 Peripheral State and Errors functions
 803:E:/VisualStudioCode/STM32F1_HAL/Drivers/STM32F1xx_HAL_Driver/Src\stm32f1xx_hal_dma.c ****   *  @brief    Peripheral State and Errors functions
 804:E:/VisualStudioCode/STM32F1_HAL/Drivers/STM32F1xx_HAL_Driver/Src\stm32f1xx_hal_dma.c ****   *
 805:E:/VisualStudioCode/STM32F1_HAL/Drivers/STM32F1xx_HAL_Driver/Src\stm32f1xx_hal_dma.c **** @verbatim
 806:E:/VisualStudioCode/STM32F1_HAL/Drivers/STM32F1xx_HAL_Driver/Src\stm32f1xx_hal_dma.c ****  ===============================================================================
 807:E:/VisualStudioCode/STM32F1_HAL/Drivers/STM32F1xx_HAL_Driver/Src\stm32f1xx_hal_dma.c ****             ##### Peripheral State and Errors functions #####
 808:E:/VisualStudioCode/STM32F1_HAL/Drivers/STM32F1xx_HAL_Driver/Src\stm32f1xx_hal_dma.c ****  ===============================================================================  
 809:E:/VisualStudioCode/STM32F1_HAL/Drivers/STM32F1xx_HAL_Driver/Src\stm32f1xx_hal_dma.c ****     [..]
 810:E:/VisualStudioCode/STM32F1_HAL/Drivers/STM32F1xx_HAL_Driver/Src\stm32f1xx_hal_dma.c ****     This subsection provides functions allowing to
 811:E:/VisualStudioCode/STM32F1_HAL/Drivers/STM32F1xx_HAL_Driver/Src\stm32f1xx_hal_dma.c ****       (+) Check the DMA state
 812:E:/VisualStudioCode/STM32F1_HAL/Drivers/STM32F1xx_HAL_Driver/Src\stm32f1xx_hal_dma.c ****       (+) Get error code
 813:E:/VisualStudioCode/STM32F1_HAL/Drivers/STM32F1xx_HAL_Driver/Src\stm32f1xx_hal_dma.c **** 
 814:E:/VisualStudioCode/STM32F1_HAL/Drivers/STM32F1xx_HAL_Driver/Src\stm32f1xx_hal_dma.c **** @endverbatim
 815:E:/VisualStudioCode/STM32F1_HAL/Drivers/STM32F1xx_HAL_Driver/Src\stm32f1xx_hal_dma.c ****   * @{
 816:E:/VisualStudioCode/STM32F1_HAL/Drivers/STM32F1xx_HAL_Driver/Src\stm32f1xx_hal_dma.c ****   */
 817:E:/VisualStudioCode/STM32F1_HAL/Drivers/STM32F1xx_HAL_Driver/Src\stm32f1xx_hal_dma.c **** 
 818:E:/VisualStudioCode/STM32F1_HAL/Drivers/STM32F1xx_HAL_Driver/Src\stm32f1xx_hal_dma.c **** /**
 819:E:/VisualStudioCode/STM32F1_HAL/Drivers/STM32F1xx_HAL_Driver/Src\stm32f1xx_hal_dma.c ****   * @brief  Return the DMA hande state.
 820:E:/VisualStudioCode/STM32F1_HAL/Drivers/STM32F1xx_HAL_Driver/Src\stm32f1xx_hal_dma.c ****   * @param  hdma: pointer to a DMA_HandleTypeDef structure that contains
 821:E:/VisualStudioCode/STM32F1_HAL/Drivers/STM32F1xx_HAL_Driver/Src\stm32f1xx_hal_dma.c ****   *               the configuration information for the specified DMA Channel.
 822:E:/VisualStudioCode/STM32F1_HAL/Drivers/STM32F1xx_HAL_Driver/Src\stm32f1xx_hal_dma.c ****   * @retval HAL state
 823:E:/VisualStudioCode/STM32F1_HAL/Drivers/STM32F1xx_HAL_Driver/Src\stm32f1xx_hal_dma.c ****   */
 824:E:/VisualStudioCode/STM32F1_HAL/Drivers/STM32F1xx_HAL_Driver/Src\stm32f1xx_hal_dma.c **** HAL_DMA_StateTypeDef HAL_DMA_GetState(DMA_HandleTypeDef *hdma)
 825:E:/VisualStudioCode/STM32F1_HAL/Drivers/STM32F1xx_HAL_Driver/Src\stm32f1xx_hal_dma.c **** {
 826:E:/VisualStudioCode/STM32F1_HAL/Drivers/STM32F1xx_HAL_Driver/Src\stm32f1xx_hal_dma.c ****   /* Return DMA handle state */
 827:E:/VisualStudioCode/STM32F1_HAL/Drivers/STM32F1xx_HAL_Driver/Src\stm32f1xx_hal_dma.c ****   return hdma->State;
 828:E:/VisualStudioCode/STM32F1_HAL/Drivers/STM32F1xx_HAL_Driver/Src\stm32f1xx_hal_dma.c **** }
 829:E:/VisualStudioCode/STM32F1_HAL/Drivers/STM32F1xx_HAL_Driver/Src\stm32f1xx_hal_dma.c **** 
 830:E:/VisualStudioCode/STM32F1_HAL/Drivers/STM32F1xx_HAL_Driver/Src\stm32f1xx_hal_dma.c **** /**
 831:E:/VisualStudioCode/STM32F1_HAL/Drivers/STM32F1xx_HAL_Driver/Src\stm32f1xx_hal_dma.c ****   * @brief  Return the DMA error code.
ARM GAS  C:\Users\ADMINI~1\AppData\Local\Temp\ccwfdPpv.s 			page 16


 832:E:/VisualStudioCode/STM32F1_HAL/Drivers/STM32F1xx_HAL_Driver/Src\stm32f1xx_hal_dma.c ****   * @param  hdma : pointer to a DMA_HandleTypeDef structure that contains
 833:E:/VisualStudioCode/STM32F1_HAL/Drivers/STM32F1xx_HAL_Driver/Src\stm32f1xx_hal_dma.c ****   *              the configuration information for the specified DMA Channel.
 834:E:/VisualStudioCode/STM32F1_HAL/Drivers/STM32F1xx_HAL_Driver/Src\stm32f1xx_hal_dma.c ****   * @retval DMA Error Code
 835:E:/VisualStudioCode/STM32F1_HAL/Drivers/STM32F1xx_HAL_Driver/Src\stm32f1xx_hal_dma.c ****   */
 836:E:/VisualStudioCode/STM32F1_HAL/Drivers/STM32F1xx_HAL_Driver/Src\stm32f1xx_hal_dma.c **** uint32_t HAL_DMA_GetError(DMA_HandleTypeDef *hdma)
 837:E:/VisualStudioCode/STM32F1_HAL/Drivers/STM32F1xx_HAL_Driver/Src\stm32f1xx_hal_dma.c **** {
 838:E:/VisualStudioCode/STM32F1_HAL/Drivers/STM32F1xx_HAL_Driver/Src\stm32f1xx_hal_dma.c ****   return hdma->ErrorCode;
 839:E:/VisualStudioCode/STM32F1_HAL/Drivers/STM32F1xx_HAL_Driver/Src\stm32f1xx_hal_dma.c **** }
 840:E:/VisualStudioCode/STM32F1_HAL/Drivers/STM32F1xx_HAL_Driver/Src\stm32f1xx_hal_dma.c **** 
 841:E:/VisualStudioCode/STM32F1_HAL/Drivers/STM32F1xx_HAL_Driver/Src\stm32f1xx_hal_dma.c **** /**
 842:E:/VisualStudioCode/STM32F1_HAL/Drivers/STM32F1xx_HAL_Driver/Src\stm32f1xx_hal_dma.c ****   * @}
 843:E:/VisualStudioCode/STM32F1_HAL/Drivers/STM32F1xx_HAL_Driver/Src\stm32f1xx_hal_dma.c ****   */
 844:E:/VisualStudioCode/STM32F1_HAL/Drivers/STM32F1xx_HAL_Driver/Src\stm32f1xx_hal_dma.c **** 
 845:E:/VisualStudioCode/STM32F1_HAL/Drivers/STM32F1xx_HAL_Driver/Src\stm32f1xx_hal_dma.c **** /**
 846:E:/VisualStudioCode/STM32F1_HAL/Drivers/STM32F1xx_HAL_Driver/Src\stm32f1xx_hal_dma.c ****   * @}
 847:E:/VisualStudioCode/STM32F1_HAL/Drivers/STM32F1xx_HAL_Driver/Src\stm32f1xx_hal_dma.c ****   */
 848:E:/VisualStudioCode/STM32F1_HAL/Drivers/STM32F1xx_HAL_Driver/Src\stm32f1xx_hal_dma.c **** 
 849:E:/VisualStudioCode/STM32F1_HAL/Drivers/STM32F1xx_HAL_Driver/Src\stm32f1xx_hal_dma.c **** /** @addtogroup DMA_Private_Functions
 850:E:/VisualStudioCode/STM32F1_HAL/Drivers/STM32F1xx_HAL_Driver/Src\stm32f1xx_hal_dma.c ****   * @{
 851:E:/VisualStudioCode/STM32F1_HAL/Drivers/STM32F1xx_HAL_Driver/Src\stm32f1xx_hal_dma.c ****   */
 852:E:/VisualStudioCode/STM32F1_HAL/Drivers/STM32F1xx_HAL_Driver/Src\stm32f1xx_hal_dma.c **** 
 853:E:/VisualStudioCode/STM32F1_HAL/Drivers/STM32F1xx_HAL_Driver/Src\stm32f1xx_hal_dma.c **** /**
 854:E:/VisualStudioCode/STM32F1_HAL/Drivers/STM32F1xx_HAL_Driver/Src\stm32f1xx_hal_dma.c ****   * @brief  Sets the DMA Transfer parameter.
 855:E:/VisualStudioCode/STM32F1_HAL/Drivers/STM32F1xx_HAL_Driver/Src\stm32f1xx_hal_dma.c ****   * @param  hdma:       pointer to a DMA_HandleTypeDef structure that contains
 856:E:/VisualStudioCode/STM32F1_HAL/Drivers/STM32F1xx_HAL_Driver/Src\stm32f1xx_hal_dma.c ****   *                     the configuration information for the specified DMA Channel.
 857:E:/VisualStudioCode/STM32F1_HAL/Drivers/STM32F1xx_HAL_Driver/Src\stm32f1xx_hal_dma.c ****   * @param  SrcAddress: The source memory Buffer address
 858:E:/VisualStudioCode/STM32F1_HAL/Drivers/STM32F1xx_HAL_Driver/Src\stm32f1xx_hal_dma.c ****   * @param  DstAddress: The destination memory Buffer address
 859:E:/VisualStudioCode/STM32F1_HAL/Drivers/STM32F1xx_HAL_Driver/Src\stm32f1xx_hal_dma.c ****   * @param  DataLength: The length of data to be transferred from source to destination
 860:E:/VisualStudioCode/STM32F1_HAL/Drivers/STM32F1xx_HAL_Driver/Src\stm32f1xx_hal_dma.c ****   * @retval HAL status
 861:E:/VisualStudioCode/STM32F1_HAL/Drivers/STM32F1xx_HAL_Driver/Src\stm32f1xx_hal_dma.c ****   */
 862:E:/VisualStudioCode/STM32F1_HAL/Drivers/STM32F1xx_HAL_Driver/Src\stm32f1xx_hal_dma.c **** static void DMA_SetConfig(DMA_HandleTypeDef *hdma, uint32_t SrcAddress, uint32_t DstAddress, uint32
 863:E:/VisualStudioCode/STM32F1_HAL/Drivers/STM32F1xx_HAL_Driver/Src\stm32f1xx_hal_dma.c **** {
  26              		.loc 1 863 0
  27              		.cfi_startproc
  28              		@ args = 0, pretend = 0, frame = 0
  29              		@ frame_needed = 0, uses_anonymous_args = 0
  30              		@ link register save eliminated.
  31              	.LVL0:
  32 0000 70B4     		push	{r4, r5, r6}
  33              	.LCFI0:
  34              		.cfi_def_cfa_offset 12
  35              		.cfi_offset 4, -12
  36              		.cfi_offset 5, -8
  37              		.cfi_offset 6, -4
 864:E:/VisualStudioCode/STM32F1_HAL/Drivers/STM32F1xx_HAL_Driver/Src\stm32f1xx_hal_dma.c ****   /* Clear all flags */
 865:E:/VisualStudioCode/STM32F1_HAL/Drivers/STM32F1xx_HAL_Driver/Src\stm32f1xx_hal_dma.c ****   hdma->DmaBaseAddress->IFCR = (DMA_ISR_GIF1 << hdma->ChannelIndex);
  38              		.loc 1 865 0
  39 0002 066C     		ldr	r6, [r0, #64]
  40 0004 C56B     		ldr	r5, [r0, #60]
  41 0006 0124     		movs	r4, #1
  42 0008 B440     		lsls	r4, r4, r6
  43 000a 6C60     		str	r4, [r5, #4]
 866:E:/VisualStudioCode/STM32F1_HAL/Drivers/STM32F1xx_HAL_Driver/Src\stm32f1xx_hal_dma.c **** 
 867:E:/VisualStudioCode/STM32F1_HAL/Drivers/STM32F1xx_HAL_Driver/Src\stm32f1xx_hal_dma.c ****   /* Configure DMA Channel data length */
 868:E:/VisualStudioCode/STM32F1_HAL/Drivers/STM32F1xx_HAL_Driver/Src\stm32f1xx_hal_dma.c ****   hdma->Instance->CNDTR = DataLength;
  44              		.loc 1 868 0
  45 000c 0468     		ldr	r4, [r0]
ARM GAS  C:\Users\ADMINI~1\AppData\Local\Temp\ccwfdPpv.s 			page 17


  46 000e 6360     		str	r3, [r4, #4]
 869:E:/VisualStudioCode/STM32F1_HAL/Drivers/STM32F1xx_HAL_Driver/Src\stm32f1xx_hal_dma.c **** 
 870:E:/VisualStudioCode/STM32F1_HAL/Drivers/STM32F1xx_HAL_Driver/Src\stm32f1xx_hal_dma.c ****   /* Memory to Peripheral */
 871:E:/VisualStudioCode/STM32F1_HAL/Drivers/STM32F1xx_HAL_Driver/Src\stm32f1xx_hal_dma.c ****   if((hdma->Init.Direction) == DMA_MEMORY_TO_PERIPH)
  47              		.loc 1 871 0
  48 0010 4368     		ldr	r3, [r0, #4]
  49              	.LVL1:
  50 0012 102B     		cmp	r3, #16
  51 0014 05D0     		beq	.L5
 872:E:/VisualStudioCode/STM32F1_HAL/Drivers/STM32F1xx_HAL_Driver/Src\stm32f1xx_hal_dma.c ****   {
 873:E:/VisualStudioCode/STM32F1_HAL/Drivers/STM32F1xx_HAL_Driver/Src\stm32f1xx_hal_dma.c ****     /* Configure DMA Channel destination address */
 874:E:/VisualStudioCode/STM32F1_HAL/Drivers/STM32F1xx_HAL_Driver/Src\stm32f1xx_hal_dma.c ****     hdma->Instance->CPAR = DstAddress;
 875:E:/VisualStudioCode/STM32F1_HAL/Drivers/STM32F1xx_HAL_Driver/Src\stm32f1xx_hal_dma.c **** 
 876:E:/VisualStudioCode/STM32F1_HAL/Drivers/STM32F1xx_HAL_Driver/Src\stm32f1xx_hal_dma.c ****     /* Configure DMA Channel source address */
 877:E:/VisualStudioCode/STM32F1_HAL/Drivers/STM32F1xx_HAL_Driver/Src\stm32f1xx_hal_dma.c ****     hdma->Instance->CMAR = SrcAddress;
 878:E:/VisualStudioCode/STM32F1_HAL/Drivers/STM32F1xx_HAL_Driver/Src\stm32f1xx_hal_dma.c ****   }
 879:E:/VisualStudioCode/STM32F1_HAL/Drivers/STM32F1xx_HAL_Driver/Src\stm32f1xx_hal_dma.c ****   /* Peripheral to Memory */
 880:E:/VisualStudioCode/STM32F1_HAL/Drivers/STM32F1xx_HAL_Driver/Src\stm32f1xx_hal_dma.c ****   else
 881:E:/VisualStudioCode/STM32F1_HAL/Drivers/STM32F1xx_HAL_Driver/Src\stm32f1xx_hal_dma.c ****   {
 882:E:/VisualStudioCode/STM32F1_HAL/Drivers/STM32F1xx_HAL_Driver/Src\stm32f1xx_hal_dma.c ****     /* Configure DMA Channel source address */
 883:E:/VisualStudioCode/STM32F1_HAL/Drivers/STM32F1xx_HAL_Driver/Src\stm32f1xx_hal_dma.c ****     hdma->Instance->CPAR = SrcAddress;
  52              		.loc 1 883 0
  53 0016 0368     		ldr	r3, [r0]
  54 0018 9960     		str	r1, [r3, #8]
  55              	.LVL2:
 884:E:/VisualStudioCode/STM32F1_HAL/Drivers/STM32F1xx_HAL_Driver/Src\stm32f1xx_hal_dma.c **** 
 885:E:/VisualStudioCode/STM32F1_HAL/Drivers/STM32F1xx_HAL_Driver/Src\stm32f1xx_hal_dma.c ****     /* Configure DMA Channel destination address */
 886:E:/VisualStudioCode/STM32F1_HAL/Drivers/STM32F1xx_HAL_Driver/Src\stm32f1xx_hal_dma.c ****     hdma->Instance->CMAR = DstAddress;
  56              		.loc 1 886 0
  57 001a 0368     		ldr	r3, [r0]
  58 001c DA60     		str	r2, [r3, #12]
  59              	.L1:
 887:E:/VisualStudioCode/STM32F1_HAL/Drivers/STM32F1xx_HAL_Driver/Src\stm32f1xx_hal_dma.c ****   }
 888:E:/VisualStudioCode/STM32F1_HAL/Drivers/STM32F1xx_HAL_Driver/Src\stm32f1xx_hal_dma.c **** }
  60              		.loc 1 888 0
  61 001e 70BC     		pop	{r4, r5, r6}
  62              	.LCFI1:
  63              		.cfi_remember_state
  64              		.cfi_restore 6
  65              		.cfi_restore 5
  66              		.cfi_restore 4
  67              		.cfi_def_cfa_offset 0
  68 0020 7047     		bx	lr
  69              	.LVL3:
  70              	.L5:
  71              	.LCFI2:
  72              		.cfi_restore_state
 874:E:/VisualStudioCode/STM32F1_HAL/Drivers/STM32F1xx_HAL_Driver/Src\stm32f1xx_hal_dma.c **** 
  73              		.loc 1 874 0
  74 0022 0368     		ldr	r3, [r0]
  75 0024 9A60     		str	r2, [r3, #8]
  76              	.LVL4:
 877:E:/VisualStudioCode/STM32F1_HAL/Drivers/STM32F1xx_HAL_Driver/Src\stm32f1xx_hal_dma.c ****   }
  77              		.loc 1 877 0
  78 0026 0368     		ldr	r3, [r0]
  79 0028 D960     		str	r1, [r3, #12]
  80 002a F8E7     		b	.L1
ARM GAS  C:\Users\ADMINI~1\AppData\Local\Temp\ccwfdPpv.s 			page 18


  81              		.cfi_endproc
  82              	.LFE76:
  83              		.cantunwind
  84              		.fnend
  86              		.section	.text.HAL_DMA_Init,"ax",%progbits
  87              		.align	1
  88              		.global	HAL_DMA_Init
  89              		.syntax unified
  90              		.thumb
  91              		.thumb_func
  92              		.fpu softvfp
  94              	HAL_DMA_Init:
  95              		.fnstart
  96              	.LFB64:
 160:E:/VisualStudioCode/STM32F1_HAL/Drivers/STM32F1xx_HAL_Driver/Src\stm32f1xx_hal_dma.c ****   uint32_t tmp = 0U;
  97              		.loc 1 160 0
  98              		.cfi_startproc
  99              		@ args = 0, pretend = 0, frame = 0
 100              		@ frame_needed = 0, uses_anonymous_args = 0
 101              		@ link register save eliminated.
 102              	.LVL5:
 164:E:/VisualStudioCode/STM32F1_HAL/Drivers/STM32F1xx_HAL_Driver/Src\stm32f1xx_hal_dma.c ****   {
 103              		.loc 1 164 0
 104 0000 0028     		cmp	r0, #0
 105 0002 30D0     		beq	.L8
 160:E:/VisualStudioCode/STM32F1_HAL/Drivers/STM32F1xx_HAL_Driver/Src\stm32f1xx_hal_dma.c ****   uint32_t tmp = 0U;
 106              		.loc 1 160 0
 107 0004 10B4     		push	{r4}
 108              	.LCFI3:
 109              		.cfi_def_cfa_offset 4
 110              		.cfi_offset 4, -4
 111 0006 0346     		mov	r3, r0
 195:E:/VisualStudioCode/STM32F1_HAL/Drivers/STM32F1xx_HAL_Driver/Src\stm32f1xx_hal_dma.c ****   hdma->DmaBaseAddress = DMA1;
 112              		.loc 1 195 0
 113 0008 0168     		ldr	r1, [r0]
 114 000a 184A     		ldr	r2, .L13
 115 000c 0A44     		add	r2, r2, r1
 116 000e 1848     		ldr	r0, .L13+4
 117              	.LVL6:
 118 0010 A0FB0202 		umull	r0, r2, r0, r2
 119 0014 1209     		lsrs	r2, r2, #4
 120 0016 9200     		lsls	r2, r2, #2
 121 0018 1A64     		str	r2, [r3, #64]
 196:E:/VisualStudioCode/STM32F1_HAL/Drivers/STM32F1xx_HAL_Driver/Src\stm32f1xx_hal_dma.c **** #endif /* STM32F101xE || STM32F101xG || STM32F103xE || STM32F103xG || STM32F100xE || STM32F105xC ||
 122              		.loc 1 196 0
 123 001a 164A     		ldr	r2, .L13+8
 124 001c DA63     		str	r2, [r3, #60]
 200:E:/VisualStudioCode/STM32F1_HAL/Drivers/STM32F1xx_HAL_Driver/Src\stm32f1xx_hal_dma.c **** 
 125              		.loc 1 200 0
 126 001e 0222     		movs	r2, #2
 127 0020 83F82120 		strb	r2, [r3, #33]
 203:E:/VisualStudioCode/STM32F1_HAL/Drivers/STM32F1xx_HAL_Driver/Src\stm32f1xx_hal_dma.c **** 
 128              		.loc 1 203 0
 129 0024 0868     		ldr	r0, [r1]
 130              	.LVL7:
 206:E:/VisualStudioCode/STM32F1_HAL/Drivers/STM32F1xx_HAL_Driver/Src\stm32f1xx_hal_dma.c ****                       DMA_CCR_MINC  | DMA_CCR_PINC   | DMA_CCR_CIRC   | \
 131              		.loc 1 206 0
ARM GAS  C:\Users\ADMINI~1\AppData\Local\Temp\ccwfdPpv.s 			page 19


 132 0026 20F47F50 		bic	r0, r0, #16320
 133              	.LVL8:
 134 002a 20F03000 		bic	r0, r0, #48
 135              	.LVL9:
 211:E:/VisualStudioCode/STM32F1_HAL/Drivers/STM32F1xx_HAL_Driver/Src\stm32f1xx_hal_dma.c ****           hdma->Init.PeriphInc           | hdma->Init.MemInc           |
 136              		.loc 1 211 0
 137 002e 5A68     		ldr	r2, [r3, #4]
 212:E:/VisualStudioCode/STM32F1_HAL/Drivers/STM32F1xx_HAL_Driver/Src\stm32f1xx_hal_dma.c ****           hdma->Init.PeriphDataAlignment | hdma->Init.MemDataAlignment |
 138              		.loc 1 212 0
 139 0030 9C68     		ldr	r4, [r3, #8]
 211:E:/VisualStudioCode/STM32F1_HAL/Drivers/STM32F1xx_HAL_Driver/Src\stm32f1xx_hal_dma.c ****           hdma->Init.PeriphInc           | hdma->Init.MemInc           |
 140              		.loc 1 211 0
 141 0032 2243     		orrs	r2, r2, r4
 212:E:/VisualStudioCode/STM32F1_HAL/Drivers/STM32F1xx_HAL_Driver/Src\stm32f1xx_hal_dma.c ****           hdma->Init.PeriphDataAlignment | hdma->Init.MemDataAlignment |
 142              		.loc 1 212 0
 143 0034 DC68     		ldr	r4, [r3, #12]
 144 0036 2243     		orrs	r2, r2, r4
 213:E:/VisualStudioCode/STM32F1_HAL/Drivers/STM32F1xx_HAL_Driver/Src\stm32f1xx_hal_dma.c ****           hdma->Init.Mode                | hdma->Init.Priority;
 145              		.loc 1 213 0
 146 0038 1C69     		ldr	r4, [r3, #16]
 212:E:/VisualStudioCode/STM32F1_HAL/Drivers/STM32F1xx_HAL_Driver/Src\stm32f1xx_hal_dma.c ****           hdma->Init.PeriphDataAlignment | hdma->Init.MemDataAlignment |
 147              		.loc 1 212 0
 148 003a 2243     		orrs	r2, r2, r4
 213:E:/VisualStudioCode/STM32F1_HAL/Drivers/STM32F1xx_HAL_Driver/Src\stm32f1xx_hal_dma.c ****           hdma->Init.Mode                | hdma->Init.Priority;
 149              		.loc 1 213 0
 150 003c 5C69     		ldr	r4, [r3, #20]
 151 003e 2243     		orrs	r2, r2, r4
 214:E:/VisualStudioCode/STM32F1_HAL/Drivers/STM32F1xx_HAL_Driver/Src\stm32f1xx_hal_dma.c **** 
 152              		.loc 1 214 0
 153 0040 9C69     		ldr	r4, [r3, #24]
 213:E:/VisualStudioCode/STM32F1_HAL/Drivers/STM32F1xx_HAL_Driver/Src\stm32f1xx_hal_dma.c ****           hdma->Init.Mode                | hdma->Init.Priority;
 154              		.loc 1 213 0
 155 0042 2243     		orrs	r2, r2, r4
 214:E:/VisualStudioCode/STM32F1_HAL/Drivers/STM32F1xx_HAL_Driver/Src\stm32f1xx_hal_dma.c **** 
 156              		.loc 1 214 0
 157 0044 DC69     		ldr	r4, [r3, #28]
 158 0046 2243     		orrs	r2, r2, r4
 211:E:/VisualStudioCode/STM32F1_HAL/Drivers/STM32F1xx_HAL_Driver/Src\stm32f1xx_hal_dma.c ****           hdma->Init.PeriphInc           | hdma->Init.MemInc           |
 159              		.loc 1 211 0
 160 0048 0243     		orrs	r2, r2, r0
 161              	.LVL10:
 217:E:/VisualStudioCode/STM32F1_HAL/Drivers/STM32F1xx_HAL_Driver/Src\stm32f1xx_hal_dma.c **** 
 162              		.loc 1 217 0
 163 004a 0A60     		str	r2, [r1]
 221:E:/VisualStudioCode/STM32F1_HAL/Drivers/STM32F1xx_HAL_Driver/Src\stm32f1xx_hal_dma.c ****   hdma->XferHalfCpltCallback = NULL;
 164              		.loc 1 221 0
 165 004c 0020     		movs	r0, #0
 166 004e 9862     		str	r0, [r3, #40]
 222:E:/VisualStudioCode/STM32F1_HAL/Drivers/STM32F1xx_HAL_Driver/Src\stm32f1xx_hal_dma.c ****   hdma->XferErrorCallback = NULL;
 167              		.loc 1 222 0
 168 0050 D862     		str	r0, [r3, #44]
 223:E:/VisualStudioCode/STM32F1_HAL/Drivers/STM32F1xx_HAL_Driver/Src\stm32f1xx_hal_dma.c ****   hdma->XferAbortCallback = NULL;
 169              		.loc 1 223 0
 170 0052 1863     		str	r0, [r3, #48]
 224:E:/VisualStudioCode/STM32F1_HAL/Drivers/STM32F1xx_HAL_Driver/Src\stm32f1xx_hal_dma.c **** 
 171              		.loc 1 224 0
 172 0054 5863     		str	r0, [r3, #52]
ARM GAS  C:\Users\ADMINI~1\AppData\Local\Temp\ccwfdPpv.s 			page 20


 227:E:/VisualStudioCode/STM32F1_HAL/Drivers/STM32F1xx_HAL_Driver/Src\stm32f1xx_hal_dma.c **** 
 173              		.loc 1 227 0
 174 0056 9863     		str	r0, [r3, #56]
 230:E:/VisualStudioCode/STM32F1_HAL/Drivers/STM32F1xx_HAL_Driver/Src\stm32f1xx_hal_dma.c ****   /* Allocate lock resource and initialize it */
 175              		.loc 1 230 0
 176 0058 0122     		movs	r2, #1
 177              	.LVL11:
 178 005a 83F82120 		strb	r2, [r3, #33]
 232:E:/VisualStudioCode/STM32F1_HAL/Drivers/STM32F1xx_HAL_Driver/Src\stm32f1xx_hal_dma.c ****   
 179              		.loc 1 232 0
 180 005e 83F82000 		strb	r0, [r3, #32]
 235:E:/VisualStudioCode/STM32F1_HAL/Drivers/STM32F1xx_HAL_Driver/Src\stm32f1xx_hal_dma.c **** 
 181              		.loc 1 235 0
 182 0062 10BC     		pop	{r4}
 183              	.LCFI4:
 184              		.cfi_restore 4
 185              		.cfi_def_cfa_offset 0
 186 0064 7047     		bx	lr
 187              	.LVL12:
 188              	.L8:
 166:E:/VisualStudioCode/STM32F1_HAL/Drivers/STM32F1xx_HAL_Driver/Src\stm32f1xx_hal_dma.c ****   }
 189              		.loc 1 166 0
 190 0066 0120     		movs	r0, #1
 191              	.LVL13:
 235:E:/VisualStudioCode/STM32F1_HAL/Drivers/STM32F1xx_HAL_Driver/Src\stm32f1xx_hal_dma.c **** 
 192              		.loc 1 235 0
 193 0068 7047     		bx	lr
 194              	.L14:
 195 006a 00BF     		.align	2
 196              	.L13:
 197 006c F8FFFDBF 		.word	-1073872904
 198 0070 CDCCCCCC 		.word	-858993459
 199 0074 00000240 		.word	1073872896
 200              		.cfi_endproc
 201              	.LFE64:
 202              		.cantunwind
 203              		.fnend
 205              		.section	.text.HAL_DMA_DeInit,"ax",%progbits
 206              		.align	1
 207              		.global	HAL_DMA_DeInit
 208              		.syntax unified
 209              		.thumb
 210              		.thumb_func
 211              		.fpu softvfp
 213              	HAL_DMA_DeInit:
 214              		.fnstart
 215              	.LFB65:
 244:E:/VisualStudioCode/STM32F1_HAL/Drivers/STM32F1xx_HAL_Driver/Src\stm32f1xx_hal_dma.c ****   /* Check the DMA handle allocation */
 216              		.loc 1 244 0
 217              		.cfi_startproc
 218              		@ args = 0, pretend = 0, frame = 0
 219              		@ frame_needed = 0, uses_anonymous_args = 0
 220              		@ link register save eliminated.
 221              	.LVL14:
 246:E:/VisualStudioCode/STM32F1_HAL/Drivers/STM32F1xx_HAL_Driver/Src\stm32f1xx_hal_dma.c ****   {
 222              		.loc 1 246 0
 223 0000 28B3     		cbz	r0, .L17
ARM GAS  C:\Users\ADMINI~1\AppData\Local\Temp\ccwfdPpv.s 			page 21


 244:E:/VisualStudioCode/STM32F1_HAL/Drivers/STM32F1xx_HAL_Driver/Src\stm32f1xx_hal_dma.c ****   /* Check the DMA handle allocation */
 224              		.loc 1 244 0
 225 0002 10B4     		push	{r4}
 226              	.LCFI5:
 227              		.cfi_def_cfa_offset 4
 228              		.cfi_offset 4, -4
 229 0004 0346     		mov	r3, r0
 255:E:/VisualStudioCode/STM32F1_HAL/Drivers/STM32F1xx_HAL_Driver/Src\stm32f1xx_hal_dma.c **** 
 230              		.loc 1 255 0
 231 0006 0168     		ldr	r1, [r0]
 232 0008 0A68     		ldr	r2, [r1]
 233 000a 22F00102 		bic	r2, r2, #1
 234 000e 0A60     		str	r2, [r1]
 258:E:/VisualStudioCode/STM32F1_HAL/Drivers/STM32F1xx_HAL_Driver/Src\stm32f1xx_hal_dma.c **** 
 235              		.loc 1 258 0
 236 0010 0268     		ldr	r2, [r0]
 237 0012 0020     		movs	r0, #0
 238              	.LVL15:
 239 0014 1060     		str	r0, [r2]
 261:E:/VisualStudioCode/STM32F1_HAL/Drivers/STM32F1xx_HAL_Driver/Src\stm32f1xx_hal_dma.c **** 
 240              		.loc 1 261 0
 241 0016 1A68     		ldr	r2, [r3]
 242 0018 5060     		str	r0, [r2, #4]
 264:E:/VisualStudioCode/STM32F1_HAL/Drivers/STM32F1xx_HAL_Driver/Src\stm32f1xx_hal_dma.c **** 
 243              		.loc 1 264 0
 244 001a 1A68     		ldr	r2, [r3]
 245 001c 9060     		str	r0, [r2, #8]
 267:E:/VisualStudioCode/STM32F1_HAL/Drivers/STM32F1xx_HAL_Driver/Src\stm32f1xx_hal_dma.c **** 
 246              		.loc 1 267 0
 247 001e 1A68     		ldr	r2, [r3]
 248 0020 D060     		str	r0, [r2, #12]
 285:E:/VisualStudioCode/STM32F1_HAL/Drivers/STM32F1xx_HAL_Driver/Src\stm32f1xx_hal_dma.c ****   hdma->DmaBaseAddress = DMA1;
 249              		.loc 1 285 0
 250 0022 1968     		ldr	r1, [r3]
 251 0024 0B4A     		ldr	r2, .L22
 252 0026 0A44     		add	r2, r2, r1
 253 0028 0B49     		ldr	r1, .L22+4
 254 002a A1FB0212 		umull	r1, r2, r1, r2
 255 002e 1209     		lsrs	r2, r2, #4
 256 0030 9200     		lsls	r2, r2, #2
 257 0032 1A64     		str	r2, [r3, #64]
 286:E:/VisualStudioCode/STM32F1_HAL/Drivers/STM32F1xx_HAL_Driver/Src\stm32f1xx_hal_dma.c **** #endif /* STM32F101xE || STM32F101xG || STM32F103xE || STM32F103xG || STM32F100xE || STM32F105xC ||
 258              		.loc 1 286 0
 259 0034 094C     		ldr	r4, .L22+8
 260 0036 DC63     		str	r4, [r3, #60]
 290:E:/VisualStudioCode/STM32F1_HAL/Drivers/STM32F1xx_HAL_Driver/Src\stm32f1xx_hal_dma.c **** 
 261              		.loc 1 290 0
 262 0038 0121     		movs	r1, #1
 263 003a 01FA02F2 		lsl	r2, r1, r2
 264 003e 6260     		str	r2, [r4, #4]
 293:E:/VisualStudioCode/STM32F1_HAL/Drivers/STM32F1xx_HAL_Driver/Src\stm32f1xx_hal_dma.c **** 
 265              		.loc 1 293 0
 266 0040 9863     		str	r0, [r3, #56]
 296:E:/VisualStudioCode/STM32F1_HAL/Drivers/STM32F1xx_HAL_Driver/Src\stm32f1xx_hal_dma.c **** 
 267              		.loc 1 296 0
 268 0042 83F82100 		strb	r0, [r3, #33]
 299:E:/VisualStudioCode/STM32F1_HAL/Drivers/STM32F1xx_HAL_Driver/Src\stm32f1xx_hal_dma.c **** 
ARM GAS  C:\Users\ADMINI~1\AppData\Local\Temp\ccwfdPpv.s 			page 22


 269              		.loc 1 299 0
 270 0046 83F82000 		strb	r0, [r3, #32]
 302:E:/VisualStudioCode/STM32F1_HAL/Drivers/STM32F1xx_HAL_Driver/Src\stm32f1xx_hal_dma.c **** 
 271              		.loc 1 302 0
 272 004a 10BC     		pop	{r4}
 273              	.LCFI6:
 274              		.cfi_restore 4
 275              		.cfi_def_cfa_offset 0
 276 004c 7047     		bx	lr
 277              	.LVL16:
 278              	.L17:
 248:E:/VisualStudioCode/STM32F1_HAL/Drivers/STM32F1xx_HAL_Driver/Src\stm32f1xx_hal_dma.c ****   }
 279              		.loc 1 248 0
 280 004e 0120     		movs	r0, #1
 281              	.LVL17:
 302:E:/VisualStudioCode/STM32F1_HAL/Drivers/STM32F1xx_HAL_Driver/Src\stm32f1xx_hal_dma.c **** 
 282              		.loc 1 302 0
 283 0050 7047     		bx	lr
 284              	.L23:
 285 0052 00BF     		.align	2
 286              	.L22:
 287 0054 F8FFFDBF 		.word	-1073872904
 288 0058 CDCCCCCC 		.word	-858993459
 289 005c 00000240 		.word	1073872896
 290              		.cfi_endproc
 291              	.LFE65:
 292              		.cantunwind
 293              		.fnend
 295              		.section	.text.HAL_DMA_Start,"ax",%progbits
 296              		.align	1
 297              		.global	HAL_DMA_Start
 298              		.syntax unified
 299              		.thumb
 300              		.thumb_func
 301              		.fpu softvfp
 303              	HAL_DMA_Start:
 304              		.fnstart
 305              	.LFB66:
 337:E:/VisualStudioCode/STM32F1_HAL/Drivers/STM32F1xx_HAL_Driver/Src\stm32f1xx_hal_dma.c ****   HAL_StatusTypeDef status = HAL_OK;
 306              		.loc 1 337 0
 307              		.cfi_startproc
 308              		@ args = 0, pretend = 0, frame = 0
 309              		@ frame_needed = 0, uses_anonymous_args = 0
 310              	.LVL18:
 311 0000 70B5     		push	{r4, r5, r6, lr}
 312              	.LCFI7:
 313              		.cfi_def_cfa_offset 16
 314              		.cfi_offset 4, -16
 315              		.cfi_offset 5, -12
 316              		.cfi_offset 6, -8
 317              		.cfi_offset 14, -4
 318              	.LVL19:
 344:E:/VisualStudioCode/STM32F1_HAL/Drivers/STM32F1xx_HAL_Driver/Src\stm32f1xx_hal_dma.c **** 
 319              		.loc 1 344 0
 320 0002 90F82040 		ldrb	r4, [r0, #32]	@ zero_extendqisi2
 321 0006 012C     		cmp	r4, #1
 322 0008 20D0     		beq	.L27
ARM GAS  C:\Users\ADMINI~1\AppData\Local\Temp\ccwfdPpv.s 			page 23


 344:E:/VisualStudioCode/STM32F1_HAL/Drivers/STM32F1xx_HAL_Driver/Src\stm32f1xx_hal_dma.c **** 
 323              		.loc 1 344 0 is_stmt 0 discriminator 2
 324 000a 0124     		movs	r4, #1
 325 000c 80F82040 		strb	r4, [r0, #32]
 346:E:/VisualStudioCode/STM32F1_HAL/Drivers/STM32F1xx_HAL_Driver/Src\stm32f1xx_hal_dma.c ****   {
 326              		.loc 1 346 0 is_stmt 1 discriminator 2
 327 0010 90F82140 		ldrb	r4, [r0, #33]	@ zero_extendqisi2
 328 0014 012C     		cmp	r4, #1
 329 0016 04D0     		beq	.L29
 364:E:/VisualStudioCode/STM32F1_HAL/Drivers/STM32F1xx_HAL_Driver/Src\stm32f1xx_hal_dma.c ****    status = HAL_BUSY;
 330              		.loc 1 364 0
 331 0018 0023     		movs	r3, #0
 332              	.LVL20:
 333 001a 80F82030 		strb	r3, [r0, #32]
 334              	.LVL21:
 365:E:/VisualStudioCode/STM32F1_HAL/Drivers/STM32F1xx_HAL_Driver/Src\stm32f1xx_hal_dma.c ****   }  
 335              		.loc 1 365 0
 336 001e 0220     		movs	r0, #2
 337              	.LVL22:
 338              	.L25:
 368:E:/VisualStudioCode/STM32F1_HAL/Drivers/STM32F1xx_HAL_Driver/Src\stm32f1xx_hal_dma.c **** 
 339              		.loc 1 368 0
 340 0020 70BD     		pop	{r4, r5, r6, pc}
 341              	.LVL23:
 342              	.L29:
 343 0022 0446     		mov	r4, r0
 349:E:/VisualStudioCode/STM32F1_HAL/Drivers/STM32F1xx_HAL_Driver/Src\stm32f1xx_hal_dma.c ****     hdma->ErrorCode = HAL_DMA_ERROR_NONE;
 344              		.loc 1 349 0
 345 0024 0220     		movs	r0, #2
 346              	.LVL24:
 347 0026 84F82100 		strb	r0, [r4, #33]
 350:E:/VisualStudioCode/STM32F1_HAL/Drivers/STM32F1xx_HAL_Driver/Src\stm32f1xx_hal_dma.c ****             
 348              		.loc 1 350 0
 349 002a 0025     		movs	r5, #0
 350 002c A563     		str	r5, [r4, #56]
 353:E:/VisualStudioCode/STM32F1_HAL/Drivers/STM32F1xx_HAL_Driver/Src\stm32f1xx_hal_dma.c ****     
 351              		.loc 1 353 0
 352 002e 2668     		ldr	r6, [r4]
 353 0030 3068     		ldr	r0, [r6]
 354 0032 20F00100 		bic	r0, r0, #1
 355 0036 3060     		str	r0, [r6]
 356:E:/VisualStudioCode/STM32F1_HAL/Drivers/STM32F1xx_HAL_Driver/Src\stm32f1xx_hal_dma.c ****     
 356              		.loc 1 356 0
 357 0038 2046     		mov	r0, r4
 358 003a FFF7FEFF 		bl	_ZL13DMA_SetConfigP19__DMA_HandleTypeDefmmm
 359              	.LVL25:
 359:E:/VisualStudioCode/STM32F1_HAL/Drivers/STM32F1xx_HAL_Driver/Src\stm32f1xx_hal_dma.c ****   }
 360              		.loc 1 359 0
 361 003e 2268     		ldr	r2, [r4]
 362 0040 1368     		ldr	r3, [r2]
 363 0042 43F00103 		orr	r3, r3, #1
 364 0046 1360     		str	r3, [r2]
 338:E:/VisualStudioCode/STM32F1_HAL/Drivers/STM32F1xx_HAL_Driver/Src\stm32f1xx_hal_dma.c **** 
 365              		.loc 1 338 0
 366 0048 2846     		mov	r0, r5
 367 004a E9E7     		b	.L25
 368              	.LVL26:
ARM GAS  C:\Users\ADMINI~1\AppData\Local\Temp\ccwfdPpv.s 			page 24


 369              	.L27:
 344:E:/VisualStudioCode/STM32F1_HAL/Drivers/STM32F1xx_HAL_Driver/Src\stm32f1xx_hal_dma.c **** 
 370              		.loc 1 344 0
 371 004c 0220     		movs	r0, #2
 372              	.LVL27:
 373 004e E7E7     		b	.L25
 374              		.cfi_endproc
 375              	.LFE66:
 376              		.cantunwind
 377              		.fnend
 379              		.section	.text.HAL_DMA_Start_IT,"ax",%progbits
 380              		.align	1
 381              		.global	HAL_DMA_Start_IT
 382              		.syntax unified
 383              		.thumb
 384              		.thumb_func
 385              		.fpu softvfp
 387              	HAL_DMA_Start_IT:
 388              		.fnstart
 389              	.LFB67:
 380:E:/VisualStudioCode/STM32F1_HAL/Drivers/STM32F1xx_HAL_Driver/Src\stm32f1xx_hal_dma.c ****   HAL_StatusTypeDef status = HAL_OK;
 390              		.loc 1 380 0
 391              		.cfi_startproc
 392              		@ args = 0, pretend = 0, frame = 0
 393              		@ frame_needed = 0, uses_anonymous_args = 0
 394              	.LVL28:
 395 0000 38B5     		push	{r3, r4, r5, lr}
 396              	.LCFI8:
 397              		.cfi_def_cfa_offset 16
 398              		.cfi_offset 3, -16
 399              		.cfi_offset 4, -12
 400              		.cfi_offset 5, -8
 401              		.cfi_offset 14, -4
 402              	.LVL29:
 387:E:/VisualStudioCode/STM32F1_HAL/Drivers/STM32F1xx_HAL_Driver/Src\stm32f1xx_hal_dma.c ****   
 403              		.loc 1 387 0
 404 0002 90F82040 		ldrb	r4, [r0, #32]	@ zero_extendqisi2
 405 0006 012C     		cmp	r4, #1
 406 0008 32D0     		beq	.L35
 387:E:/VisualStudioCode/STM32F1_HAL/Drivers/STM32F1xx_HAL_Driver/Src\stm32f1xx_hal_dma.c ****   
 407              		.loc 1 387 0 is_stmt 0 discriminator 2
 408 000a 0124     		movs	r4, #1
 409 000c 80F82040 		strb	r4, [r0, #32]
 389:E:/VisualStudioCode/STM32F1_HAL/Drivers/STM32F1xx_HAL_Driver/Src\stm32f1xx_hal_dma.c ****   {
 410              		.loc 1 389 0 is_stmt 1 discriminator 2
 411 0010 90F82140 		ldrb	r4, [r0, #33]	@ zero_extendqisi2
 412 0014 012C     		cmp	r4, #1
 413 0016 04D0     		beq	.L37
 419:E:/VisualStudioCode/STM32F1_HAL/Drivers/STM32F1xx_HAL_Driver/Src\stm32f1xx_hal_dma.c **** 
 414              		.loc 1 419 0
 415 0018 0023     		movs	r3, #0
 416              	.LVL30:
 417 001a 80F82030 		strb	r3, [r0, #32]
 418              	.LVL31:
 422:E:/VisualStudioCode/STM32F1_HAL/Drivers/STM32F1xx_HAL_Driver/Src\stm32f1xx_hal_dma.c ****   }    
 419              		.loc 1 422 0
 420 001e 0220     		movs	r0, #2
ARM GAS  C:\Users\ADMINI~1\AppData\Local\Temp\ccwfdPpv.s 			page 25


 421              	.LVL32:
 422              	.L31:
 425:E:/VisualStudioCode/STM32F1_HAL/Drivers/STM32F1xx_HAL_Driver/Src\stm32f1xx_hal_dma.c **** 
 423              		.loc 1 425 0
 424 0020 38BD     		pop	{r3, r4, r5, pc}
 425              	.LVL33:
 426              	.L37:
 427 0022 0446     		mov	r4, r0
 392:E:/VisualStudioCode/STM32F1_HAL/Drivers/STM32F1xx_HAL_Driver/Src\stm32f1xx_hal_dma.c ****     hdma->ErrorCode = HAL_DMA_ERROR_NONE;
 428              		.loc 1 392 0
 429 0024 0220     		movs	r0, #2
 430              	.LVL34:
 431 0026 84F82100 		strb	r0, [r4, #33]
 393:E:/VisualStudioCode/STM32F1_HAL/Drivers/STM32F1xx_HAL_Driver/Src\stm32f1xx_hal_dma.c ****     
 432              		.loc 1 393 0
 433 002a 0020     		movs	r0, #0
 434 002c A063     		str	r0, [r4, #56]
 396:E:/VisualStudioCode/STM32F1_HAL/Drivers/STM32F1xx_HAL_Driver/Src\stm32f1xx_hal_dma.c ****     
 435              		.loc 1 396 0
 436 002e 2568     		ldr	r5, [r4]
 437 0030 2868     		ldr	r0, [r5]
 438 0032 20F00100 		bic	r0, r0, #1
 439 0036 2860     		str	r0, [r5]
 399:E:/VisualStudioCode/STM32F1_HAL/Drivers/STM32F1xx_HAL_Driver/Src\stm32f1xx_hal_dma.c ****     
 440              		.loc 1 399 0
 441 0038 2046     		mov	r0, r4
 442 003a FFF7FEFF 		bl	_ZL13DMA_SetConfigP19__DMA_HandleTypeDefmmm
 443              	.LVL35:
 403:E:/VisualStudioCode/STM32F1_HAL/Drivers/STM32F1xx_HAL_Driver/Src\stm32f1xx_hal_dma.c ****     {
 444              		.loc 1 403 0
 445 003e E36A     		ldr	r3, [r4, #44]
 446 0040 5BB1     		cbz	r3, .L33
 406:E:/VisualStudioCode/STM32F1_HAL/Drivers/STM32F1xx_HAL_Driver/Src\stm32f1xx_hal_dma.c ****     }
 447              		.loc 1 406 0
 448 0042 2268     		ldr	r2, [r4]
 449 0044 1368     		ldr	r3, [r2]
 450 0046 43F00E03 		orr	r3, r3, #14
 451 004a 1360     		str	r3, [r2]
 452              	.L34:
 414:E:/VisualStudioCode/STM32F1_HAL/Drivers/STM32F1xx_HAL_Driver/Src\stm32f1xx_hal_dma.c ****   }
 453              		.loc 1 414 0
 454 004c 2268     		ldr	r2, [r4]
 455 004e 1368     		ldr	r3, [r2]
 456 0050 43F00103 		orr	r3, r3, #1
 457 0054 1360     		str	r3, [r2]
 381:E:/VisualStudioCode/STM32F1_HAL/Drivers/STM32F1xx_HAL_Driver/Src\stm32f1xx_hal_dma.c **** 
 458              		.loc 1 381 0
 459 0056 0020     		movs	r0, #0
 460 0058 E2E7     		b	.L31
 461              	.L33:
 410:E:/VisualStudioCode/STM32F1_HAL/Drivers/STM32F1xx_HAL_Driver/Src\stm32f1xx_hal_dma.c ****       __HAL_DMA_ENABLE_IT(hdma, (DMA_IT_TC | DMA_IT_TE));
 462              		.loc 1 410 0
 463 005a 2268     		ldr	r2, [r4]
 464 005c 1368     		ldr	r3, [r2]
 465 005e 23F00403 		bic	r3, r3, #4
 466 0062 1360     		str	r3, [r2]
 411:E:/VisualStudioCode/STM32F1_HAL/Drivers/STM32F1xx_HAL_Driver/Src\stm32f1xx_hal_dma.c ****     }
ARM GAS  C:\Users\ADMINI~1\AppData\Local\Temp\ccwfdPpv.s 			page 26


 467              		.loc 1 411 0
 468 0064 2268     		ldr	r2, [r4]
 469 0066 1368     		ldr	r3, [r2]
 470 0068 43F00A03 		orr	r3, r3, #10
 471 006c 1360     		str	r3, [r2]
 472 006e EDE7     		b	.L34
 473              	.LVL36:
 474              	.L35:
 387:E:/VisualStudioCode/STM32F1_HAL/Drivers/STM32F1xx_HAL_Driver/Src\stm32f1xx_hal_dma.c ****   
 475              		.loc 1 387 0
 476 0070 0220     		movs	r0, #2
 477              	.LVL37:
 478 0072 D5E7     		b	.L31
 479              		.cfi_endproc
 480              	.LFE67:
 481              		.cantunwind
 482              		.fnend
 484              		.section	.text.HAL_DMA_Abort,"ax",%progbits
 485              		.align	1
 486              		.global	HAL_DMA_Abort
 487              		.syntax unified
 488              		.thumb
 489              		.thumb_func
 490              		.fpu softvfp
 492              	HAL_DMA_Abort:
 493              		.fnstart
 494              	.LFB68:
 434:E:/VisualStudioCode/STM32F1_HAL/Drivers/STM32F1xx_HAL_Driver/Src\stm32f1xx_hal_dma.c ****   HAL_StatusTypeDef status = HAL_OK;
 495              		.loc 1 434 0
 496              		.cfi_startproc
 497              		@ args = 0, pretend = 0, frame = 0
 498              		@ frame_needed = 0, uses_anonymous_args = 0
 499              		@ link register save eliminated.
 500              	.LVL38:
 501 0000 0346     		mov	r3, r0
 502              	.LVL39:
 438:E:/VisualStudioCode/STM32F1_HAL/Drivers/STM32F1xx_HAL_Driver/Src\stm32f1xx_hal_dma.c ****     
 503              		.loc 1 438 0
 504 0002 0168     		ldr	r1, [r0]
 505 0004 0A68     		ldr	r2, [r1]
 506 0006 22F00E02 		bic	r2, r2, #14
 507 000a 0A60     		str	r2, [r1]
 441:E:/VisualStudioCode/STM32F1_HAL/Drivers/STM32F1xx_HAL_Driver/Src\stm32f1xx_hal_dma.c ****     
 508              		.loc 1 441 0
 509 000c 0168     		ldr	r1, [r0]
 510 000e 0A68     		ldr	r2, [r1]
 511 0010 22F00102 		bic	r2, r2, #1
 512 0014 0A60     		str	r2, [r1]
 444:E:/VisualStudioCode/STM32F1_HAL/Drivers/STM32F1xx_HAL_Driver/Src\stm32f1xx_hal_dma.c **** 
 513              		.loc 1 444 0
 514 0016 026C     		ldr	r2, [r0, #64]
 515 0018 C06B     		ldr	r0, [r0, #60]
 516              	.LVL40:
 517 001a 0121     		movs	r1, #1
 518 001c 01FA02F2 		lsl	r2, r1, r2
 519 0020 4260     		str	r2, [r0, #4]
 447:E:/VisualStudioCode/STM32F1_HAL/Drivers/STM32F1xx_HAL_Driver/Src\stm32f1xx_hal_dma.c **** 
ARM GAS  C:\Users\ADMINI~1\AppData\Local\Temp\ccwfdPpv.s 			page 27


 520              		.loc 1 447 0
 521 0022 83F82110 		strb	r1, [r3, #33]
 450:E:/VisualStudioCode/STM32F1_HAL/Drivers/STM32F1xx_HAL_Driver/Src\stm32f1xx_hal_dma.c ****   
 522              		.loc 1 450 0
 523 0026 0020     		movs	r0, #0
 524 0028 83F82000 		strb	r0, [r3, #32]
 453:E:/VisualStudioCode/STM32F1_HAL/Drivers/STM32F1xx_HAL_Driver/Src\stm32f1xx_hal_dma.c **** 
 525              		.loc 1 453 0
 526 002c 7047     		bx	lr
 527              		.cfi_endproc
 528              	.LFE68:
 529              		.cantunwind
 530              		.fnend
 532              		.section	.text.HAL_DMA_Abort_IT,"ax",%progbits
 533              		.align	1
 534              		.global	HAL_DMA_Abort_IT
 535              		.syntax unified
 536              		.thumb
 537              		.thumb_func
 538              		.fpu softvfp
 540              	HAL_DMA_Abort_IT:
 541              		.fnstart
 542              	.LFB69:
 462:E:/VisualStudioCode/STM32F1_HAL/Drivers/STM32F1xx_HAL_Driver/Src\stm32f1xx_hal_dma.c ****   HAL_StatusTypeDef status = HAL_OK;
 543              		.loc 1 462 0
 544              		.cfi_startproc
 545              		@ args = 0, pretend = 0, frame = 0
 546              		@ frame_needed = 0, uses_anonymous_args = 0
 547              	.LVL41:
 548 0000 08B5     		push	{r3, lr}
 549              		.save {r3, lr}
 550              	.LCFI9:
 551              		.cfi_def_cfa_offset 8
 552              		.cfi_offset 3, -8
 553              		.cfi_offset 14, -4
 554              	.LVL42:
 465:E:/VisualStudioCode/STM32F1_HAL/Drivers/STM32F1xx_HAL_Driver/Src\stm32f1xx_hal_dma.c ****   {
 555              		.loc 1 465 0
 556 0002 90F82130 		ldrb	r3, [r0, #33]	@ zero_extendqisi2
 557 0006 022B     		cmp	r3, #2
 558 0008 03D0     		beq	.L40
 468:E:/VisualStudioCode/STM32F1_HAL/Drivers/STM32F1xx_HAL_Driver/Src\stm32f1xx_hal_dma.c ****         
 559              		.loc 1 468 0
 560 000a 0423     		movs	r3, #4
 561 000c 8363     		str	r3, [r0, #56]
 562              	.LVL43:
 470:E:/VisualStudioCode/STM32F1_HAL/Drivers/STM32F1xx_HAL_Driver/Src\stm32f1xx_hal_dma.c ****   }
 563              		.loc 1 470 0
 564 000e 0120     		movs	r0, #1
 565              	.LVL44:
 566              	.L41:
 496:E:/VisualStudioCode/STM32F1_HAL/Drivers/STM32F1xx_HAL_Driver/Src\stm32f1xx_hal_dma.c **** 
 567              		.loc 1 496 0
 568 0010 08BD     		pop	{r3, pc}
 569              	.LVL45:
 570              	.L40:
 475:E:/VisualStudioCode/STM32F1_HAL/Drivers/STM32F1xx_HAL_Driver/Src\stm32f1xx_hal_dma.c **** 
ARM GAS  C:\Users\ADMINI~1\AppData\Local\Temp\ccwfdPpv.s 			page 28


 571              		.loc 1 475 0
 572 0012 0268     		ldr	r2, [r0]
 573 0014 1368     		ldr	r3, [r2]
 574 0016 23F00E03 		bic	r3, r3, #14
 575 001a 1360     		str	r3, [r2]
 478:E:/VisualStudioCode/STM32F1_HAL/Drivers/STM32F1xx_HAL_Driver/Src\stm32f1xx_hal_dma.c **** 
 576              		.loc 1 478 0
 577 001c 0268     		ldr	r2, [r0]
 578 001e 1368     		ldr	r3, [r2]
 579 0020 23F00103 		bic	r3, r3, #1
 580 0024 1360     		str	r3, [r2]
 481:E:/VisualStudioCode/STM32F1_HAL/Drivers/STM32F1xx_HAL_Driver/Src\stm32f1xx_hal_dma.c **** 
 581              		.loc 1 481 0
 582 0026 0368     		ldr	r3, [r0]
 583 0028 194A     		ldr	r2, .L52
 584 002a 9342     		cmp	r3, r2
 585 002c 14D0     		beq	.L43
 481:E:/VisualStudioCode/STM32F1_HAL/Drivers/STM32F1xx_HAL_Driver/Src\stm32f1xx_hal_dma.c **** 
 586              		.loc 1 481 0 is_stmt 0 discriminator 1
 587 002e 1432     		adds	r2, r2, #20
 588 0030 9342     		cmp	r3, r2
 589 0032 1FD0     		beq	.L44
 481:E:/VisualStudioCode/STM32F1_HAL/Drivers/STM32F1xx_HAL_Driver/Src\stm32f1xx_hal_dma.c **** 
 590              		.loc 1 481 0 discriminator 3
 591 0034 1432     		adds	r2, r2, #20
 592 0036 9342     		cmp	r3, r2
 593 0038 1ED0     		beq	.L45
 481:E:/VisualStudioCode/STM32F1_HAL/Drivers/STM32F1xx_HAL_Driver/Src\stm32f1xx_hal_dma.c **** 
 594              		.loc 1 481 0 discriminator 5
 595 003a 1432     		adds	r2, r2, #20
 596 003c 9342     		cmp	r3, r2
 597 003e 1ED0     		beq	.L46
 481:E:/VisualStudioCode/STM32F1_HAL/Drivers/STM32F1xx_HAL_Driver/Src\stm32f1xx_hal_dma.c **** 
 598              		.loc 1 481 0 discriminator 7
 599 0040 1432     		adds	r2, r2, #20
 600 0042 9342     		cmp	r3, r2
 601 0044 1ED0     		beq	.L47
 481:E:/VisualStudioCode/STM32F1_HAL/Drivers/STM32F1xx_HAL_Driver/Src\stm32f1xx_hal_dma.c **** 
 602              		.loc 1 481 0 discriminator 9
 603 0046 1432     		adds	r2, r2, #20
 604 0048 9342     		cmp	r3, r2
 605 004a 02D0     		beq	.L51
 481:E:/VisualStudioCode/STM32F1_HAL/Drivers/STM32F1xx_HAL_Driver/Src\stm32f1xx_hal_dma.c **** 
 606              		.loc 1 481 0
 607 004c 4FF08072 		mov	r2, #16777216
 608 0050 03E0     		b	.L42
 609              	.L51:
 610 0052 4FF48012 		mov	r2, #1048576
 611 0056 00E0     		b	.L42
 612              	.L43:
 613 0058 0122     		movs	r2, #1
 614              	.L42:
 481:E:/VisualStudioCode/STM32F1_HAL/Drivers/STM32F1xx_HAL_Driver/Src\stm32f1xx_hal_dma.c **** 
 615              		.loc 1 481 0 discriminator 24
 616 005a 0E4B     		ldr	r3, .L52+4
 617 005c 5A60     		str	r2, [r3, #4]
 484:E:/VisualStudioCode/STM32F1_HAL/Drivers/STM32F1xx_HAL_Driver/Src\stm32f1xx_hal_dma.c **** 
ARM GAS  C:\Users\ADMINI~1\AppData\Local\Temp\ccwfdPpv.s 			page 29


 618              		.loc 1 484 0 is_stmt 1 discriminator 24
 619 005e 0123     		movs	r3, #1
 620 0060 80F82130 		strb	r3, [r0, #33]
 487:E:/VisualStudioCode/STM32F1_HAL/Drivers/STM32F1xx_HAL_Driver/Src\stm32f1xx_hal_dma.c **** 
 621              		.loc 1 487 0 discriminator 24
 622 0064 0023     		movs	r3, #0
 623 0066 80F82030 		strb	r3, [r0, #32]
 490:E:/VisualStudioCode/STM32F1_HAL/Drivers/STM32F1xx_HAL_Driver/Src\stm32f1xx_hal_dma.c ****     {
 624              		.loc 1 490 0 discriminator 24
 625 006a 436B     		ldr	r3, [r0, #52]
 626 006c 6BB1     		cbz	r3, .L49
 492:E:/VisualStudioCode/STM32F1_HAL/Drivers/STM32F1xx_HAL_Driver/Src\stm32f1xx_hal_dma.c ****     } 
 627              		.loc 1 492 0
 628 006e 9847     		blx	r3
 629              	.LVL46:
 463:E:/VisualStudioCode/STM32F1_HAL/Drivers/STM32F1xx_HAL_Driver/Src\stm32f1xx_hal_dma.c ****   
 630              		.loc 1 463 0
 631 0070 0020     		movs	r0, #0
 632 0072 CDE7     		b	.L41
 633              	.LVL47:
 634              	.L44:
 481:E:/VisualStudioCode/STM32F1_HAL/Drivers/STM32F1xx_HAL_Driver/Src\stm32f1xx_hal_dma.c **** 
 635              		.loc 1 481 0
 636 0074 1022     		movs	r2, #16
 637 0076 F0E7     		b	.L42
 638              	.L45:
 639 0078 4FF48072 		mov	r2, #256
 640 007c EDE7     		b	.L42
 641              	.L46:
 642 007e 4FF48052 		mov	r2, #4096
 643 0082 EAE7     		b	.L42
 644              	.L47:
 645 0084 4FF48032 		mov	r2, #65536
 646 0088 E7E7     		b	.L42
 647              	.L49:
 463:E:/VisualStudioCode/STM32F1_HAL/Drivers/STM32F1xx_HAL_Driver/Src\stm32f1xx_hal_dma.c ****   
 648              		.loc 1 463 0
 649 008a 0020     		movs	r0, #0
 650              	.LVL48:
 651 008c C0E7     		b	.L41
 652              	.L53:
 653 008e 00BF     		.align	2
 654              	.L52:
 655 0090 08000240 		.word	1073872904
 656 0094 00000240 		.word	1073872896
 657              		.cfi_endproc
 658              	.LFE69:
 659              		.fnend
 661              		.section	.text.HAL_DMA_PollForTransfer,"ax",%progbits
 662              		.align	1
 663              		.global	HAL_DMA_PollForTransfer
 664              		.syntax unified
 665              		.thumb
 666              		.thumb_func
 667              		.fpu softvfp
 669              	HAL_DMA_PollForTransfer:
 670              		.fnstart
ARM GAS  C:\Users\ADMINI~1\AppData\Local\Temp\ccwfdPpv.s 			page 30


 671              	.LFB70:
 507:E:/VisualStudioCode/STM32F1_HAL/Drivers/STM32F1xx_HAL_Driver/Src\stm32f1xx_hal_dma.c ****   uint32_t temp;
 672              		.loc 1 507 0
 673              		.cfi_startproc
 674              		@ args = 0, pretend = 0, frame = 0
 675              		@ frame_needed = 0, uses_anonymous_args = 0
 676              	.LVL49:
 511:E:/VisualStudioCode/STM32F1_HAL/Drivers/STM32F1xx_HAL_Driver/Src\stm32f1xx_hal_dma.c ****   {
 677              		.loc 1 511 0
 678 0000 90F82130 		ldrb	r3, [r0, #33]	@ zero_extendqisi2
 679 0004 022B     		cmp	r3, #2
 680 0006 06D0     		beq	.L55
 514:E:/VisualStudioCode/STM32F1_HAL/Drivers/STM32F1xx_HAL_Driver/Src\stm32f1xx_hal_dma.c ****     __HAL_UNLOCK(hdma);
 681              		.loc 1 514 0
 682 0008 0423     		movs	r3, #4
 683 000a 8363     		str	r3, [r0, #56]
 515:E:/VisualStudioCode/STM32F1_HAL/Drivers/STM32F1xx_HAL_Driver/Src\stm32f1xx_hal_dma.c ****     return HAL_ERROR;
 684              		.loc 1 515 0
 685 000c 0023     		movs	r3, #0
 686 000e 80F82030 		strb	r3, [r0, #32]
 516:E:/VisualStudioCode/STM32F1_HAL/Drivers/STM32F1xx_HAL_Driver/Src\stm32f1xx_hal_dma.c ****   }
 687              		.loc 1 516 0
 688 0012 0120     		movs	r0, #1
 689              	.LVL50:
 599:E:/VisualStudioCode/STM32F1_HAL/Drivers/STM32F1xx_HAL_Driver/Src\stm32f1xx_hal_dma.c **** 
 690              		.loc 1 599 0
 691 0014 7047     		bx	lr
 692              	.LVL51:
 693              	.L55:
 507:E:/VisualStudioCode/STM32F1_HAL/Drivers/STM32F1xx_HAL_Driver/Src\stm32f1xx_hal_dma.c ****   uint32_t temp;
 694              		.loc 1 507 0
 695 0016 2DE9F041 		push	{r4, r5, r6, r7, r8, lr}
 696              		.save {r4, r5, r6, r7, r8, lr}
 697              	.LCFI10:
 698              		.cfi_def_cfa_offset 24
 699              		.cfi_offset 4, -24
 700              		.cfi_offset 5, -20
 701              		.cfi_offset 6, -16
 702              		.cfi_offset 7, -12
 703              		.cfi_offset 8, -8
 704              		.cfi_offset 14, -4
 520:E:/VisualStudioCode/STM32F1_HAL/Drivers/STM32F1xx_HAL_Driver/Src\stm32f1xx_hal_dma.c ****   {
 705              		.loc 1 520 0
 706 001a 0368     		ldr	r3, [r0]
 707 001c 1C68     		ldr	r4, [r3]
 708 001e 14F0200F 		tst	r4, #32
 709 0022 15D1     		bne	.L103
 527:E:/VisualStudioCode/STM32F1_HAL/Drivers/STM32F1xx_HAL_Driver/Src\stm32f1xx_hal_dma.c ****   {
 710              		.loc 1 527 0
 711 0024 E9B9     		cbnz	r1, .L58
 530:E:/VisualStudioCode/STM32F1_HAL/Drivers/STM32F1xx_HAL_Driver/Src\stm32f1xx_hal_dma.c ****   }
 712              		.loc 1 530 0
 713 0026 7F4C     		ldr	r4, .L111
 714 0028 A342     		cmp	r3, r4
 715 002a 32D0     		beq	.L70
 530:E:/VisualStudioCode/STM32F1_HAL/Drivers/STM32F1xx_HAL_Driver/Src\stm32f1xx_hal_dma.c ****   }
 716              		.loc 1 530 0 is_stmt 0 discriminator 1
ARM GAS  C:\Users\ADMINI~1\AppData\Local\Temp\ccwfdPpv.s 			page 31


 717 002c 1434     		adds	r4, r4, #20
 718 002e A342     		cmp	r3, r4
 719 0030 37D0     		beq	.L71
 530:E:/VisualStudioCode/STM32F1_HAL/Drivers/STM32F1xx_HAL_Driver/Src\stm32f1xx_hal_dma.c ****   }
 720              		.loc 1 530 0 discriminator 3
 721 0032 1434     		adds	r4, r4, #20
 722 0034 A342     		cmp	r3, r4
 723 0036 36D0     		beq	.L72
 530:E:/VisualStudioCode/STM32F1_HAL/Drivers/STM32F1xx_HAL_Driver/Src\stm32f1xx_hal_dma.c ****   }
 724              		.loc 1 530 0 discriminator 5
 725 0038 1434     		adds	r4, r4, #20
 726 003a A342     		cmp	r3, r4
 727 003c 36D0     		beq	.L73
 530:E:/VisualStudioCode/STM32F1_HAL/Drivers/STM32F1xx_HAL_Driver/Src\stm32f1xx_hal_dma.c ****   }
 728              		.loc 1 530 0 discriminator 7
 729 003e 1434     		adds	r4, r4, #20
 730 0040 A342     		cmp	r3, r4
 731 0042 36D0     		beq	.L74
 530:E:/VisualStudioCode/STM32F1_HAL/Drivers/STM32F1xx_HAL_Driver/Src\stm32f1xx_hal_dma.c ****   }
 732              		.loc 1 530 0 discriminator 9
 733 0044 1434     		adds	r4, r4, #20
 734 0046 A342     		cmp	r3, r4
 735 0048 08D0     		beq	.L104
 530:E:/VisualStudioCode/STM32F1_HAL/Drivers/STM32F1xx_HAL_Driver/Src\stm32f1xx_hal_dma.c ****   }
 736              		.loc 1 530 0
 737 004a 4FF00076 		mov	r6, #33554432
 738 004e 21E0     		b	.L59
 739              	.L103:
 522:E:/VisualStudioCode/STM32F1_HAL/Drivers/STM32F1xx_HAL_Driver/Src\stm32f1xx_hal_dma.c ****     return HAL_ERROR;
 740              		.loc 1 522 0 is_stmt 1
 741 0050 4FF48073 		mov	r3, #256
 742 0054 8363     		str	r3, [r0, #56]
 523:E:/VisualStudioCode/STM32F1_HAL/Drivers/STM32F1xx_HAL_Driver/Src\stm32f1xx_hal_dma.c ****   }
 743              		.loc 1 523 0
 744 0056 0120     		movs	r0, #1
 745              	.LVL52:
 746              	.L56:
 599:E:/VisualStudioCode/STM32F1_HAL/Drivers/STM32F1xx_HAL_Driver/Src\stm32f1xx_hal_dma.c **** 
 747              		.loc 1 599 0
 748 0058 BDE8F081 		pop	{r4, r5, r6, r7, r8, pc}
 749              	.LVL53:
 750              	.L104:
 530:E:/VisualStudioCode/STM32F1_HAL/Drivers/STM32F1xx_HAL_Driver/Src\stm32f1xx_hal_dma.c ****   }
 751              		.loc 1 530 0
 752 005c 4FF40016 		mov	r6, #2097152
 753 0060 18E0     		b	.L59
 754              	.L58:
 535:E:/VisualStudioCode/STM32F1_HAL/Drivers/STM32F1xx_HAL_Driver/Src\stm32f1xx_hal_dma.c ****   }
 755              		.loc 1 535 0
 756 0062 704C     		ldr	r4, .L111
 757 0064 A342     		cmp	r3, r4
 758 0066 27D0     		beq	.L76
 535:E:/VisualStudioCode/STM32F1_HAL/Drivers/STM32F1xx_HAL_Driver/Src\stm32f1xx_hal_dma.c ****   }
 759              		.loc 1 535 0 is_stmt 0 discriminator 1
 760 0068 1434     		adds	r4, r4, #20
 761 006a A342     		cmp	r3, r4
 762 006c 26D0     		beq	.L77
ARM GAS  C:\Users\ADMINI~1\AppData\Local\Temp\ccwfdPpv.s 			page 32


 535:E:/VisualStudioCode/STM32F1_HAL/Drivers/STM32F1xx_HAL_Driver/Src\stm32f1xx_hal_dma.c ****   }
 763              		.loc 1 535 0 discriminator 3
 764 006e 1434     		adds	r4, r4, #20
 765 0070 A342     		cmp	r3, r4
 766 0072 25D0     		beq	.L78
 535:E:/VisualStudioCode/STM32F1_HAL/Drivers/STM32F1xx_HAL_Driver/Src\stm32f1xx_hal_dma.c ****   }
 767              		.loc 1 535 0 discriminator 5
 768 0074 1434     		adds	r4, r4, #20
 769 0076 A342     		cmp	r3, r4
 770 0078 25D0     		beq	.L79
 535:E:/VisualStudioCode/STM32F1_HAL/Drivers/STM32F1xx_HAL_Driver/Src\stm32f1xx_hal_dma.c ****   }
 771              		.loc 1 535 0 discriminator 7
 772 007a 1434     		adds	r4, r4, #20
 773 007c A342     		cmp	r3, r4
 774 007e 25D0     		beq	.L80
 535:E:/VisualStudioCode/STM32F1_HAL/Drivers/STM32F1xx_HAL_Driver/Src\stm32f1xx_hal_dma.c ****   }
 775              		.loc 1 535 0 discriminator 9
 776 0080 1434     		adds	r4, r4, #20
 777 0082 A342     		cmp	r3, r4
 778 0084 02D0     		beq	.L105
 535:E:/VisualStudioCode/STM32F1_HAL/Drivers/STM32F1xx_HAL_Driver/Src\stm32f1xx_hal_dma.c ****   }
 779              		.loc 1 535 0
 780 0086 4FF08066 		mov	r6, #67108864
 781 008a 03E0     		b	.L59
 782              	.L105:
 783 008c 4FF48006 		mov	r6, #4194304
 784 0090 00E0     		b	.L59
 785              	.L70:
 530:E:/VisualStudioCode/STM32F1_HAL/Drivers/STM32F1xx_HAL_Driver/Src\stm32f1xx_hal_dma.c ****   }
 786              		.loc 1 530 0 is_stmt 1
 787 0092 0226     		movs	r6, #2
 788              	.L59:
 789 0094 1546     		mov	r5, r2
 790 0096 0F46     		mov	r7, r1
 791 0098 0446     		mov	r4, r0
 792              	.LVL54:
 539:E:/VisualStudioCode/STM32F1_HAL/Drivers/STM32F1xx_HAL_Driver/Src\stm32f1xx_hal_dma.c **** 
 793              		.loc 1 539 0
 794 009a FFF7FEFF 		bl	HAL_GetTick
 795              	.LVL55:
 796 009e 8046     		mov	r8, r0
 797              	.LVL56:
 798 00a0 20E0     		b	.L63
 799              	.LVL57:
 800              	.L71:
 530:E:/VisualStudioCode/STM32F1_HAL/Drivers/STM32F1xx_HAL_Driver/Src\stm32f1xx_hal_dma.c ****   }
 801              		.loc 1 530 0
 802 00a2 2026     		movs	r6, #32
 803 00a4 F6E7     		b	.L59
 804              	.L72:
 805 00a6 4FF40076 		mov	r6, #512
 806 00aa F3E7     		b	.L59
 807              	.L73:
 808 00ac 4FF40056 		mov	r6, #8192
 809 00b0 F0E7     		b	.L59
 810              	.L74:
 811 00b2 4FF40036 		mov	r6, #131072
ARM GAS  C:\Users\ADMINI~1\AppData\Local\Temp\ccwfdPpv.s 			page 33


 812 00b6 EDE7     		b	.L59
 813              	.L76:
 535:E:/VisualStudioCode/STM32F1_HAL/Drivers/STM32F1xx_HAL_Driver/Src\stm32f1xx_hal_dma.c ****   }
 814              		.loc 1 535 0
 815 00b8 0426     		movs	r6, #4
 816 00ba EBE7     		b	.L59
 817              	.L77:
 818 00bc 4026     		movs	r6, #64
 819 00be E9E7     		b	.L59
 820              	.L78:
 821 00c0 4FF48066 		mov	r6, #1024
 822 00c4 E6E7     		b	.L59
 823              	.L79:
 824 00c6 4FF48046 		mov	r6, #16384
 825 00ca E3E7     		b	.L59
 826              	.L80:
 827 00cc 4FF48026 		mov	r6, #262144
 828 00d0 E0E7     		b	.L59
 829              	.LVL58:
 830              	.L108:
 543:E:/VisualStudioCode/STM32F1_HAL/Drivers/STM32F1xx_HAL_Driver/Src\stm32f1xx_hal_dma.c ****     {
 831              		.loc 1 543 0
 832 00d2 4FF40003 		mov	r3, #8388608
 833 00d6 00E0     		b	.L61
 834              	.L82:
 835 00d8 0823     		movs	r3, #8
 836              	.L61:
 543:E:/VisualStudioCode/STM32F1_HAL/Drivers/STM32F1xx_HAL_Driver/Src\stm32f1xx_hal_dma.c ****     {
 837              		.loc 1 543 0 is_stmt 0 discriminator 24
 838 00da 1A42     		tst	r2, r3
 839 00dc 29D1     		bne	.L106
 562:E:/VisualStudioCode/STM32F1_HAL/Drivers/STM32F1xx_HAL_Driver/Src\stm32f1xx_hal_dma.c ****     {
 840              		.loc 1 562 0 is_stmt 1
 841 00de B5F1FF3F 		cmp	r5, #-1
 842 00e2 35D1     		bne	.L107
 843              	.L63:
 541:E:/VisualStudioCode/STM32F1_HAL/Drivers/STM32F1xx_HAL_Driver/Src\stm32f1xx_hal_dma.c ****   {
 844              		.loc 1 541 0
 845 00e4 504B     		ldr	r3, .L111+4
 846 00e6 1B68     		ldr	r3, [r3]
 847 00e8 3342     		tst	r3, r6
 848 00ea 43D1     		bne	.L60
 543:E:/VisualStudioCode/STM32F1_HAL/Drivers/STM32F1xx_HAL_Driver/Src\stm32f1xx_hal_dma.c ****     {
 849              		.loc 1 543 0
 850 00ec 4E4B     		ldr	r3, .L111+4
 851 00ee 1A68     		ldr	r2, [r3]
 852 00f0 2368     		ldr	r3, [r4]
 853 00f2 4C49     		ldr	r1, .L111
 854 00f4 8B42     		cmp	r3, r1
 855 00f6 EFD0     		beq	.L82
 543:E:/VisualStudioCode/STM32F1_HAL/Drivers/STM32F1xx_HAL_Driver/Src\stm32f1xx_hal_dma.c ****     {
 856              		.loc 1 543 0 is_stmt 0 discriminator 1
 857 00f8 1431     		adds	r1, r1, #20
 858 00fa 8B42     		cmp	r3, r1
 859 00fc 0ED0     		beq	.L83
 543:E:/VisualStudioCode/STM32F1_HAL/Drivers/STM32F1xx_HAL_Driver/Src\stm32f1xx_hal_dma.c ****     {
 860              		.loc 1 543 0 discriminator 3
ARM GAS  C:\Users\ADMINI~1\AppData\Local\Temp\ccwfdPpv.s 			page 34


 861 00fe 1431     		adds	r1, r1, #20
 862 0100 8B42     		cmp	r3, r1
 863 0102 0DD0     		beq	.L84
 543:E:/VisualStudioCode/STM32F1_HAL/Drivers/STM32F1xx_HAL_Driver/Src\stm32f1xx_hal_dma.c ****     {
 864              		.loc 1 543 0 discriminator 5
 865 0104 1431     		adds	r1, r1, #20
 866 0106 8B42     		cmp	r3, r1
 867 0108 0DD0     		beq	.L85
 543:E:/VisualStudioCode/STM32F1_HAL/Drivers/STM32F1xx_HAL_Driver/Src\stm32f1xx_hal_dma.c ****     {
 868              		.loc 1 543 0 discriminator 7
 869 010a 1431     		adds	r1, r1, #20
 870 010c 8B42     		cmp	r3, r1
 871 010e 0DD0     		beq	.L86
 543:E:/VisualStudioCode/STM32F1_HAL/Drivers/STM32F1xx_HAL_Driver/Src\stm32f1xx_hal_dma.c ****     {
 872              		.loc 1 543 0 discriminator 9
 873 0110 1431     		adds	r1, r1, #20
 874 0112 8B42     		cmp	r3, r1
 875 0114 DDD0     		beq	.L108
 543:E:/VisualStudioCode/STM32F1_HAL/Drivers/STM32F1xx_HAL_Driver/Src\stm32f1xx_hal_dma.c ****     {
 876              		.loc 1 543 0
 877 0116 4FF00063 		mov	r3, #134217728
 878 011a DEE7     		b	.L61
 879              	.L83:
 880 011c 8023     		movs	r3, #128
 881 011e DCE7     		b	.L61
 882              	.L84:
 883 0120 4FF40063 		mov	r3, #2048
 884 0124 D9E7     		b	.L61
 885              	.L85:
 886 0126 4FF40043 		mov	r3, #32768
 887 012a D6E7     		b	.L61
 888              	.L86:
 889 012c 4FF40023 		mov	r3, #524288
 890 0130 D3E7     		b	.L61
 891              	.L106:
 548:E:/VisualStudioCode/STM32F1_HAL/Drivers/STM32F1xx_HAL_Driver/Src\stm32f1xx_hal_dma.c **** 
 892              		.loc 1 548 0 is_stmt 1
 893 0132 236C     		ldr	r3, [r4, #64]
 894 0134 E26B     		ldr	r2, [r4, #60]
 895 0136 0120     		movs	r0, #1
 896 0138 00FA03F3 		lsl	r3, r0, r3
 897 013c 5360     		str	r3, [r2, #4]
 551:E:/VisualStudioCode/STM32F1_HAL/Drivers/STM32F1xx_HAL_Driver/Src\stm32f1xx_hal_dma.c **** 
 898              		.loc 1 551 0
 899 013e A36B     		ldr	r3, [r4, #56]
 900 0140 0343     		orrs	r3, r3, r0
 901 0142 A363     		str	r3, [r4, #56]
 554:E:/VisualStudioCode/STM32F1_HAL/Drivers/STM32F1xx_HAL_Driver/Src\stm32f1xx_hal_dma.c **** 
 902              		.loc 1 554 0
 903 0144 84F82100 		strb	r0, [r4, #33]
 557:E:/VisualStudioCode/STM32F1_HAL/Drivers/STM32F1xx_HAL_Driver/Src\stm32f1xx_hal_dma.c **** 
 904              		.loc 1 557 0
 905 0148 0023     		movs	r3, #0
 906 014a 84F82030 		strb	r3, [r4, #32]
 559:E:/VisualStudioCode/STM32F1_HAL/Drivers/STM32F1xx_HAL_Driver/Src\stm32f1xx_hal_dma.c ****     }
 907              		.loc 1 559 0
 908 014e 83E7     		b	.L56
ARM GAS  C:\Users\ADMINI~1\AppData\Local\Temp\ccwfdPpv.s 			page 35


 909              	.L107:
 564:E:/VisualStudioCode/STM32F1_HAL/Drivers/STM32F1xx_HAL_Driver/Src\stm32f1xx_hal_dma.c ****       {
 910              		.loc 1 564 0
 911 0150 2DB1     		cbz	r5, .L64
 564:E:/VisualStudioCode/STM32F1_HAL/Drivers/STM32F1xx_HAL_Driver/Src\stm32f1xx_hal_dma.c ****       {
 912              		.loc 1 564 0 is_stmt 0 discriminator 2
 913 0152 FFF7FEFF 		bl	HAL_GetTick
 914              	.LVL59:
 915 0156 A0EB0800 		sub	r0, r0, r8
 916 015a A842     		cmp	r0, r5
 917 015c C2D9     		bls	.L63
 918              	.L64:
 567:E:/VisualStudioCode/STM32F1_HAL/Drivers/STM32F1xx_HAL_Driver/Src\stm32f1xx_hal_dma.c **** 
 919              		.loc 1 567 0 is_stmt 1 discriminator 3
 920 015e A36B     		ldr	r3, [r4, #56]
 921 0160 43F02003 		orr	r3, r3, #32
 922 0164 A363     		str	r3, [r4, #56]
 570:E:/VisualStudioCode/STM32F1_HAL/Drivers/STM32F1xx_HAL_Driver/Src\stm32f1xx_hal_dma.c **** 
 923              		.loc 1 570 0 discriminator 3
 924 0166 0120     		movs	r0, #1
 925 0168 84F82100 		strb	r0, [r4, #33]
 573:E:/VisualStudioCode/STM32F1_HAL/Drivers/STM32F1xx_HAL_Driver/Src\stm32f1xx_hal_dma.c **** 
 926              		.loc 1 573 0 discriminator 3
 927 016c 0023     		movs	r3, #0
 928 016e 84F82030 		strb	r3, [r4, #32]
 575:E:/VisualStudioCode/STM32F1_HAL/Drivers/STM32F1xx_HAL_Driver/Src\stm32f1xx_hal_dma.c ****       }
 929              		.loc 1 575 0 discriminator 3
 930 0172 71E7     		b	.L56
 931              	.L60:
 580:E:/VisualStudioCode/STM32F1_HAL/Drivers/STM32F1xx_HAL_Driver/Src\stm32f1xx_hal_dma.c ****   {
 932              		.loc 1 580 0
 933 0174 6FBB     		cbnz	r7, .L66
 583:E:/VisualStudioCode/STM32F1_HAL/Drivers/STM32F1xx_HAL_Driver/Src\stm32f1xx_hal_dma.c **** 
 934              		.loc 1 583 0
 935 0176 2368     		ldr	r3, [r4]
 936 0178 2A4A     		ldr	r2, .L111
 937 017a 9342     		cmp	r3, r2
 938 017c 14D0     		beq	.L88
 583:E:/VisualStudioCode/STM32F1_HAL/Drivers/STM32F1xx_HAL_Driver/Src\stm32f1xx_hal_dma.c **** 
 939              		.loc 1 583 0 is_stmt 0 discriminator 1
 940 017e 1432     		adds	r2, r2, #20
 941 0180 9342     		cmp	r3, r2
 942 0182 1BD0     		beq	.L89
 583:E:/VisualStudioCode/STM32F1_HAL/Drivers/STM32F1xx_HAL_Driver/Src\stm32f1xx_hal_dma.c **** 
 943              		.loc 1 583 0 discriminator 3
 944 0184 1432     		adds	r2, r2, #20
 945 0186 9342     		cmp	r3, r2
 946 0188 1AD0     		beq	.L90
 583:E:/VisualStudioCode/STM32F1_HAL/Drivers/STM32F1xx_HAL_Driver/Src\stm32f1xx_hal_dma.c **** 
 947              		.loc 1 583 0 discriminator 5
 948 018a 1432     		adds	r2, r2, #20
 949 018c 9342     		cmp	r3, r2
 950 018e 1AD0     		beq	.L91
 583:E:/VisualStudioCode/STM32F1_HAL/Drivers/STM32F1xx_HAL_Driver/Src\stm32f1xx_hal_dma.c **** 
 951              		.loc 1 583 0 discriminator 7
 952 0190 1432     		adds	r2, r2, #20
 953 0192 9342     		cmp	r3, r2
ARM GAS  C:\Users\ADMINI~1\AppData\Local\Temp\ccwfdPpv.s 			page 36


 954 0194 1AD0     		beq	.L92
 583:E:/VisualStudioCode/STM32F1_HAL/Drivers/STM32F1xx_HAL_Driver/Src\stm32f1xx_hal_dma.c **** 
 955              		.loc 1 583 0 discriminator 9
 956 0196 1432     		adds	r2, r2, #20
 957 0198 9342     		cmp	r3, r2
 958 019a 02D0     		beq	.L109
 583:E:/VisualStudioCode/STM32F1_HAL/Drivers/STM32F1xx_HAL_Driver/Src\stm32f1xx_hal_dma.c **** 
 959              		.loc 1 583 0
 960 019c 4FF00072 		mov	r2, #33554432
 961 01a0 03E0     		b	.L67
 962              	.L109:
 963 01a2 4FF40012 		mov	r2, #2097152
 964 01a6 00E0     		b	.L67
 965              	.L88:
 966 01a8 0222     		movs	r2, #2
 967              	.L67:
 583:E:/VisualStudioCode/STM32F1_HAL/Drivers/STM32F1xx_HAL_Driver/Src\stm32f1xx_hal_dma.c **** 
 968              		.loc 1 583 0 discriminator 24
 969 01aa 1F4B     		ldr	r3, .L111+4
 970 01ac 5A60     		str	r2, [r3, #4]
 587:E:/VisualStudioCode/STM32F1_HAL/Drivers/STM32F1xx_HAL_Driver/Src\stm32f1xx_hal_dma.c ****   }
 971              		.loc 1 587 0 is_stmt 1 discriminator 24
 972 01ae 0123     		movs	r3, #1
 973 01b0 84F82130 		strb	r3, [r4, #33]
 974              	.L68:
 596:E:/VisualStudioCode/STM32F1_HAL/Drivers/STM32F1xx_HAL_Driver/Src\stm32f1xx_hal_dma.c **** 
 975              		.loc 1 596 0
 976 01b4 0020     		movs	r0, #0
 977 01b6 84F82000 		strb	r0, [r4, #32]
 598:E:/VisualStudioCode/STM32F1_HAL/Drivers/STM32F1xx_HAL_Driver/Src\stm32f1xx_hal_dma.c **** }
 978              		.loc 1 598 0
 979 01ba 4DE7     		b	.L56
 980              	.L89:
 583:E:/VisualStudioCode/STM32F1_HAL/Drivers/STM32F1xx_HAL_Driver/Src\stm32f1xx_hal_dma.c **** 
 981              		.loc 1 583 0
 982 01bc 2022     		movs	r2, #32
 983 01be F4E7     		b	.L67
 984              	.L90:
 985 01c0 4FF40072 		mov	r2, #512
 986 01c4 F1E7     		b	.L67
 987              	.L91:
 988 01c6 4FF40052 		mov	r2, #8192
 989 01ca EEE7     		b	.L67
 990              	.L92:
 991 01cc 4FF40032 		mov	r2, #131072
 992 01d0 EBE7     		b	.L67
 993              	.L66:
 592:E:/VisualStudioCode/STM32F1_HAL/Drivers/STM32F1xx_HAL_Driver/Src\stm32f1xx_hal_dma.c ****   }
 994              		.loc 1 592 0
 995 01d2 2368     		ldr	r3, [r4]
 996 01d4 134A     		ldr	r2, .L111
 997 01d6 9342     		cmp	r3, r2
 998 01d8 14D0     		beq	.L94
 592:E:/VisualStudioCode/STM32F1_HAL/Drivers/STM32F1xx_HAL_Driver/Src\stm32f1xx_hal_dma.c ****   }
 999              		.loc 1 592 0 is_stmt 0 discriminator 1
 1000 01da 1432     		adds	r2, r2, #20
 1001 01dc 9342     		cmp	r3, r2
ARM GAS  C:\Users\ADMINI~1\AppData\Local\Temp\ccwfdPpv.s 			page 37


 1002 01de 15D0     		beq	.L95
 592:E:/VisualStudioCode/STM32F1_HAL/Drivers/STM32F1xx_HAL_Driver/Src\stm32f1xx_hal_dma.c ****   }
 1003              		.loc 1 592 0 discriminator 3
 1004 01e0 1432     		adds	r2, r2, #20
 1005 01e2 9342     		cmp	r3, r2
 1006 01e4 14D0     		beq	.L96
 592:E:/VisualStudioCode/STM32F1_HAL/Drivers/STM32F1xx_HAL_Driver/Src\stm32f1xx_hal_dma.c ****   }
 1007              		.loc 1 592 0 discriminator 5
 1008 01e6 1432     		adds	r2, r2, #20
 1009 01e8 9342     		cmp	r3, r2
 1010 01ea 14D0     		beq	.L97
 592:E:/VisualStudioCode/STM32F1_HAL/Drivers/STM32F1xx_HAL_Driver/Src\stm32f1xx_hal_dma.c ****   }
 1011              		.loc 1 592 0 discriminator 7
 1012 01ec 1432     		adds	r2, r2, #20
 1013 01ee 9342     		cmp	r3, r2
 1014 01f0 14D0     		beq	.L98
 592:E:/VisualStudioCode/STM32F1_HAL/Drivers/STM32F1xx_HAL_Driver/Src\stm32f1xx_hal_dma.c ****   }
 1015              		.loc 1 592 0 discriminator 9
 1016 01f2 1432     		adds	r2, r2, #20
 1017 01f4 9342     		cmp	r3, r2
 1018 01f6 02D0     		beq	.L110
 592:E:/VisualStudioCode/STM32F1_HAL/Drivers/STM32F1xx_HAL_Driver/Src\stm32f1xx_hal_dma.c ****   }
 1019              		.loc 1 592 0
 1020 01f8 4FF08062 		mov	r2, #67108864
 1021 01fc 03E0     		b	.L69
 1022              	.L110:
 1023 01fe 4FF48002 		mov	r2, #4194304
 1024 0202 00E0     		b	.L69
 1025              	.L94:
 1026 0204 0422     		movs	r2, #4
 1027              	.L69:
 592:E:/VisualStudioCode/STM32F1_HAL/Drivers/STM32F1xx_HAL_Driver/Src\stm32f1xx_hal_dma.c ****   }
 1028              		.loc 1 592 0 discriminator 24
 1029 0206 084B     		ldr	r3, .L111+4
 1030 0208 5A60     		str	r2, [r3, #4]
 1031 020a D3E7     		b	.L68
 1032              	.L95:
 592:E:/VisualStudioCode/STM32F1_HAL/Drivers/STM32F1xx_HAL_Driver/Src\stm32f1xx_hal_dma.c ****   }
 1033              		.loc 1 592 0
 1034 020c 4022     		movs	r2, #64
 1035 020e FAE7     		b	.L69
 1036              	.L96:
 1037 0210 4FF48062 		mov	r2, #1024
 1038 0214 F7E7     		b	.L69
 1039              	.L97:
 1040 0216 4FF48042 		mov	r2, #16384
 1041 021a F4E7     		b	.L69
 1042              	.L98:
 1043 021c 4FF48022 		mov	r2, #262144
 1044 0220 F1E7     		b	.L69
 1045              	.L112:
 1046 0222 00BF     		.align	2
 1047              	.L111:
 1048 0224 08000240 		.word	1073872904
 1049 0228 00000240 		.word	1073872896
 1050              		.cfi_endproc
 1051              	.LFE70:
ARM GAS  C:\Users\ADMINI~1\AppData\Local\Temp\ccwfdPpv.s 			page 38


 1052              		.fnend
 1054              		.section	.text.HAL_DMA_IRQHandler,"ax",%progbits
 1055              		.align	1
 1056              		.global	HAL_DMA_IRQHandler
 1057              		.syntax unified
 1058              		.thumb
 1059              		.thumb_func
 1060              		.fpu softvfp
 1062              	HAL_DMA_IRQHandler:
 1063              		.fnstart
 1064              	.LFB71:
 608:E:/VisualStudioCode/STM32F1_HAL/Drivers/STM32F1xx_HAL_Driver/Src\stm32f1xx_hal_dma.c ****   uint32_t flag_it = hdma->DmaBaseAddress->ISR;
 1065              		.loc 1 608 0 is_stmt 1
 1066              		.cfi_startproc
 1067              		@ args = 0, pretend = 0, frame = 0
 1068              		@ frame_needed = 0, uses_anonymous_args = 0
 1069              	.LVL60:
 1070 0000 38B5     		push	{r3, r4, r5, lr}
 1071              		.save {r3, r4, r5, lr}
 1072              	.LCFI11:
 1073              		.cfi_def_cfa_offset 16
 1074              		.cfi_offset 3, -16
 1075              		.cfi_offset 4, -12
 1076              		.cfi_offset 5, -8
 1077              		.cfi_offset 14, -4
 609:E:/VisualStudioCode/STM32F1_HAL/Drivers/STM32F1xx_HAL_Driver/Src\stm32f1xx_hal_dma.c ****   uint32_t source_it = hdma->Instance->CCR;
 1078              		.loc 1 609 0
 1079 0002 C36B     		ldr	r3, [r0, #60]
 1080 0004 1A68     		ldr	r2, [r3]
 1081              	.LVL61:
 610:E:/VisualStudioCode/STM32F1_HAL/Drivers/STM32F1xx_HAL_Driver/Src\stm32f1xx_hal_dma.c ****   
 1082              		.loc 1 610 0
 1083 0006 0468     		ldr	r4, [r0]
 1084 0008 2568     		ldr	r5, [r4]
 1085              	.LVL62:
 613:E:/VisualStudioCode/STM32F1_HAL/Drivers/STM32F1xx_HAL_Driver/Src\stm32f1xx_hal_dma.c ****   {
 1086              		.loc 1 613 0
 1087 000a 016C     		ldr	r1, [r0, #64]
 1088 000c 0423     		movs	r3, #4
 1089 000e 8B40     		lsls	r3, r3, r1
 1090 0010 1342     		tst	r3, r2
 1091 0012 35D0     		beq	.L114
 613:E:/VisualStudioCode/STM32F1_HAL/Drivers/STM32F1xx_HAL_Driver/Src\stm32f1xx_hal_dma.c ****   {
 1092              		.loc 1 613 0 is_stmt 0 discriminator 1
 1093 0014 15F0040F 		tst	r5, #4
 1094 0018 32D0     		beq	.L114
 616:E:/VisualStudioCode/STM32F1_HAL/Drivers/STM32F1xx_HAL_Driver/Src\stm32f1xx_hal_dma.c ****     {
 1095              		.loc 1 616 0 is_stmt 1
 1096 001a 2368     		ldr	r3, [r4]
 1097 001c 13F0200F 		tst	r3, #32
 1098 0020 03D1     		bne	.L115
 619:E:/VisualStudioCode/STM32F1_HAL/Drivers/STM32F1xx_HAL_Driver/Src\stm32f1xx_hal_dma.c ****     }
 1099              		.loc 1 619 0
 1100 0022 2368     		ldr	r3, [r4]
 1101 0024 23F00403 		bic	r3, r3, #4
 1102 0028 2360     		str	r3, [r4]
 1103              	.L115:
ARM GAS  C:\Users\ADMINI~1\AppData\Local\Temp\ccwfdPpv.s 			page 39


 622:E:/VisualStudioCode/STM32F1_HAL/Drivers/STM32F1xx_HAL_Driver/Src\stm32f1xx_hal_dma.c **** 
 1104              		.loc 1 622 0
 1105 002a 0368     		ldr	r3, [r0]
 1106 002c 434A     		ldr	r2, .L136
 1107              	.LVL63:
 1108 002e 9342     		cmp	r3, r2
 1109 0030 14D0     		beq	.L121
 622:E:/VisualStudioCode/STM32F1_HAL/Drivers/STM32F1xx_HAL_Driver/Src\stm32f1xx_hal_dma.c **** 
 1110              		.loc 1 622 0 is_stmt 0 discriminator 1
 1111 0032 1432     		adds	r2, r2, #20
 1112 0034 9342     		cmp	r3, r2
 1113 0036 18D0     		beq	.L122
 622:E:/VisualStudioCode/STM32F1_HAL/Drivers/STM32F1xx_HAL_Driver/Src\stm32f1xx_hal_dma.c **** 
 1114              		.loc 1 622 0 discriminator 3
 1115 0038 1432     		adds	r2, r2, #20
 1116 003a 9342     		cmp	r3, r2
 1117 003c 17D0     		beq	.L123
 622:E:/VisualStudioCode/STM32F1_HAL/Drivers/STM32F1xx_HAL_Driver/Src\stm32f1xx_hal_dma.c **** 
 1118              		.loc 1 622 0 discriminator 5
 1119 003e 1432     		adds	r2, r2, #20
 1120 0040 9342     		cmp	r3, r2
 1121 0042 17D0     		beq	.L124
 622:E:/VisualStudioCode/STM32F1_HAL/Drivers/STM32F1xx_HAL_Driver/Src\stm32f1xx_hal_dma.c **** 
 1122              		.loc 1 622 0 discriminator 7
 1123 0044 1432     		adds	r2, r2, #20
 1124 0046 9342     		cmp	r3, r2
 1125 0048 17D0     		beq	.L125
 622:E:/VisualStudioCode/STM32F1_HAL/Drivers/STM32F1xx_HAL_Driver/Src\stm32f1xx_hal_dma.c **** 
 1126              		.loc 1 622 0 discriminator 9
 1127 004a 1432     		adds	r2, r2, #20
 1128 004c 9342     		cmp	r3, r2
 1129 004e 02D0     		beq	.L134
 622:E:/VisualStudioCode/STM32F1_HAL/Drivers/STM32F1xx_HAL_Driver/Src\stm32f1xx_hal_dma.c **** 
 1130              		.loc 1 622 0
 1131 0050 4FF08062 		mov	r2, #67108864
 1132 0054 03E0     		b	.L116
 1133              	.L134:
 1134 0056 4FF48002 		mov	r2, #4194304
 1135 005a 00E0     		b	.L116
 1136              	.L121:
 1137 005c 0422     		movs	r2, #4
 1138              	.L116:
 622:E:/VisualStudioCode/STM32F1_HAL/Drivers/STM32F1xx_HAL_Driver/Src\stm32f1xx_hal_dma.c **** 
 1139              		.loc 1 622 0 discriminator 24
 1140 005e 384B     		ldr	r3, .L136+4
 1141 0060 5A60     		str	r2, [r3, #4]
 627:E:/VisualStudioCode/STM32F1_HAL/Drivers/STM32F1xx_HAL_Driver/Src\stm32f1xx_hal_dma.c ****     {
 1142              		.loc 1 627 0 is_stmt 1 discriminator 24
 1143 0062 C36A     		ldr	r3, [r0, #44]
 1144 0064 03B1     		cbz	r3, .L113
 630:E:/VisualStudioCode/STM32F1_HAL/Drivers/STM32F1xx_HAL_Driver/Src\stm32f1xx_hal_dma.c ****     }
 1145              		.loc 1 630 0
 1146 0066 9847     		blx	r3
 1147              	.LVL64:
 1148              	.L113:
 685:E:/VisualStudioCode/STM32F1_HAL/Drivers/STM32F1xx_HAL_Driver/Src\stm32f1xx_hal_dma.c **** 
 1149              		.loc 1 685 0
ARM GAS  C:\Users\ADMINI~1\AppData\Local\Temp\ccwfdPpv.s 			page 40


 1150 0068 38BD     		pop	{r3, r4, r5, pc}
 1151              	.LVL65:
 1152              	.L122:
 622:E:/VisualStudioCode/STM32F1_HAL/Drivers/STM32F1xx_HAL_Driver/Src\stm32f1xx_hal_dma.c **** 
 1153              		.loc 1 622 0
 1154 006a 4022     		movs	r2, #64
 1155 006c F7E7     		b	.L116
 1156              	.L123:
 1157 006e 4FF48062 		mov	r2, #1024
 1158 0072 F4E7     		b	.L116
 1159              	.L124:
 1160 0074 4FF48042 		mov	r2, #16384
 1161 0078 F1E7     		b	.L116
 1162              	.L125:
 1163 007a 4FF48022 		mov	r2, #262144
 1164 007e EEE7     		b	.L116
 1165              	.LVL66:
 1166              	.L114:
 635:E:/VisualStudioCode/STM32F1_HAL/Drivers/STM32F1xx_HAL_Driver/Src\stm32f1xx_hal_dma.c ****   {
 1167              		.loc 1 635 0
 1168 0080 0223     		movs	r3, #2
 1169 0082 8B40     		lsls	r3, r3, r1
 1170 0084 1342     		tst	r3, r2
 1171 0086 3CD0     		beq	.L118
 635:E:/VisualStudioCode/STM32F1_HAL/Drivers/STM32F1xx_HAL_Driver/Src\stm32f1xx_hal_dma.c ****   {
 1172              		.loc 1 635 0 is_stmt 0 discriminator 1
 1173 0088 15F0020F 		tst	r5, #2
 1174 008c 39D0     		beq	.L118
 637:E:/VisualStudioCode/STM32F1_HAL/Drivers/STM32F1xx_HAL_Driver/Src\stm32f1xx_hal_dma.c ****     {
 1175              		.loc 1 637 0 is_stmt 1
 1176 008e 2368     		ldr	r3, [r4]
 1177 0090 13F0200F 		tst	r3, #32
 1178 0094 06D1     		bne	.L119
 640:E:/VisualStudioCode/STM32F1_HAL/Drivers/STM32F1xx_HAL_Driver/Src\stm32f1xx_hal_dma.c **** 
 1179              		.loc 1 640 0
 1180 0096 2368     		ldr	r3, [r4]
 1181 0098 23F00A03 		bic	r3, r3, #10
 1182 009c 2360     		str	r3, [r4]
 643:E:/VisualStudioCode/STM32F1_HAL/Drivers/STM32F1xx_HAL_Driver/Src\stm32f1xx_hal_dma.c ****     }
 1183              		.loc 1 643 0
 1184 009e 0123     		movs	r3, #1
 1185 00a0 80F82130 		strb	r3, [r0, #33]
 1186              	.L119:
 646:E:/VisualStudioCode/STM32F1_HAL/Drivers/STM32F1xx_HAL_Driver/Src\stm32f1xx_hal_dma.c **** 
 1187              		.loc 1 646 0
 1188 00a4 0368     		ldr	r3, [r0]
 1189 00a6 254A     		ldr	r2, .L136
 1190              	.LVL67:
 1191 00a8 9342     		cmp	r3, r2
 1192 00aa 14D0     		beq	.L127
 646:E:/VisualStudioCode/STM32F1_HAL/Drivers/STM32F1xx_HAL_Driver/Src\stm32f1xx_hal_dma.c **** 
 1193              		.loc 1 646 0 is_stmt 0 discriminator 1
 1194 00ac 1432     		adds	r2, r2, #20
 1195 00ae 9342     		cmp	r3, r2
 1196 00b0 1CD0     		beq	.L128
 646:E:/VisualStudioCode/STM32F1_HAL/Drivers/STM32F1xx_HAL_Driver/Src\stm32f1xx_hal_dma.c **** 
 1197              		.loc 1 646 0 discriminator 3
ARM GAS  C:\Users\ADMINI~1\AppData\Local\Temp\ccwfdPpv.s 			page 41


 1198 00b2 1432     		adds	r2, r2, #20
 1199 00b4 9342     		cmp	r3, r2
 1200 00b6 1BD0     		beq	.L129
 646:E:/VisualStudioCode/STM32F1_HAL/Drivers/STM32F1xx_HAL_Driver/Src\stm32f1xx_hal_dma.c **** 
 1201              		.loc 1 646 0 discriminator 5
 1202 00b8 1432     		adds	r2, r2, #20
 1203 00ba 9342     		cmp	r3, r2
 1204 00bc 1BD0     		beq	.L130
 646:E:/VisualStudioCode/STM32F1_HAL/Drivers/STM32F1xx_HAL_Driver/Src\stm32f1xx_hal_dma.c **** 
 1205              		.loc 1 646 0 discriminator 7
 1206 00be 1432     		adds	r2, r2, #20
 1207 00c0 9342     		cmp	r3, r2
 1208 00c2 1BD0     		beq	.L131
 646:E:/VisualStudioCode/STM32F1_HAL/Drivers/STM32F1xx_HAL_Driver/Src\stm32f1xx_hal_dma.c **** 
 1209              		.loc 1 646 0 discriminator 9
 1210 00c4 1432     		adds	r2, r2, #20
 1211 00c6 9342     		cmp	r3, r2
 1212 00c8 02D0     		beq	.L135
 646:E:/VisualStudioCode/STM32F1_HAL/Drivers/STM32F1xx_HAL_Driver/Src\stm32f1xx_hal_dma.c **** 
 1213              		.loc 1 646 0
 1214 00ca 4FF00072 		mov	r2, #33554432
 1215 00ce 03E0     		b	.L120
 1216              	.L135:
 1217 00d0 4FF40012 		mov	r2, #2097152
 1218 00d4 00E0     		b	.L120
 1219              	.L127:
 1220 00d6 0222     		movs	r2, #2
 1221              	.L120:
 646:E:/VisualStudioCode/STM32F1_HAL/Drivers/STM32F1xx_HAL_Driver/Src\stm32f1xx_hal_dma.c **** 
 1222              		.loc 1 646 0 discriminator 24
 1223 00d8 194B     		ldr	r3, .L136+4
 1224 00da 5A60     		str	r2, [r3, #4]
 649:E:/VisualStudioCode/STM32F1_HAL/Drivers/STM32F1xx_HAL_Driver/Src\stm32f1xx_hal_dma.c **** 
 1225              		.loc 1 649 0 is_stmt 1 discriminator 24
 1226 00dc 0023     		movs	r3, #0
 1227 00de 80F82030 		strb	r3, [r0, #32]
 651:E:/VisualStudioCode/STM32F1_HAL/Drivers/STM32F1xx_HAL_Driver/Src\stm32f1xx_hal_dma.c ****     {
 1228              		.loc 1 651 0 discriminator 24
 1229 00e2 836A     		ldr	r3, [r0, #40]
 1230 00e4 002B     		cmp	r3, #0
 1231 00e6 BFD0     		beq	.L113
 654:E:/VisualStudioCode/STM32F1_HAL/Drivers/STM32F1xx_HAL_Driver/Src\stm32f1xx_hal_dma.c ****     }
 1232              		.loc 1 654 0
 1233 00e8 9847     		blx	r3
 1234              	.LVL68:
 1235 00ea BDE7     		b	.L113
 1236              	.LVL69:
 1237              	.L128:
 646:E:/VisualStudioCode/STM32F1_HAL/Drivers/STM32F1xx_HAL_Driver/Src\stm32f1xx_hal_dma.c **** 
 1238              		.loc 1 646 0
 1239 00ec 2022     		movs	r2, #32
 1240 00ee F3E7     		b	.L120
 1241              	.L129:
 1242 00f0 4FF40072 		mov	r2, #512
 1243 00f4 F0E7     		b	.L120
 1244              	.L130:
 1245 00f6 4FF40052 		mov	r2, #8192
ARM GAS  C:\Users\ADMINI~1\AppData\Local\Temp\ccwfdPpv.s 			page 42


 1246 00fa EDE7     		b	.L120
 1247              	.L131:
 1248 00fc 4FF40032 		mov	r2, #131072
 1249 0100 EAE7     		b	.L120
 1250              	.LVL70:
 1251              	.L118:
 659:E:/VisualStudioCode/STM32F1_HAL/Drivers/STM32F1xx_HAL_Driver/Src\stm32f1xx_hal_dma.c ****   {
 1252              		.loc 1 659 0
 1253 0102 0823     		movs	r3, #8
 1254 0104 03FA01F1 		lsl	r1, r3, r1
 1255 0108 1142     		tst	r1, r2
 1256 010a ADD0     		beq	.L113
 659:E:/VisualStudioCode/STM32F1_HAL/Drivers/STM32F1xx_HAL_Driver/Src\stm32f1xx_hal_dma.c ****   {
 1257              		.loc 1 659 0 is_stmt 0 discriminator 1
 1258 010c 15F0080F 		tst	r5, #8
 1259 0110 AAD0     		beq	.L113
 664:E:/VisualStudioCode/STM32F1_HAL/Drivers/STM32F1xx_HAL_Driver/Src\stm32f1xx_hal_dma.c **** 
 1260              		.loc 1 664 0 is_stmt 1
 1261 0112 2368     		ldr	r3, [r4]
 1262 0114 23F00E03 		bic	r3, r3, #14
 1263 0118 2360     		str	r3, [r4]
 667:E:/VisualStudioCode/STM32F1_HAL/Drivers/STM32F1xx_HAL_Driver/Src\stm32f1xx_hal_dma.c **** 
 1264              		.loc 1 667 0
 1265 011a 026C     		ldr	r2, [r0, #64]
 1266              	.LVL71:
 1267 011c C16B     		ldr	r1, [r0, #60]
 1268 011e 0123     		movs	r3, #1
 1269 0120 03FA02F2 		lsl	r2, r3, r2
 1270 0124 4A60     		str	r2, [r1, #4]
 670:E:/VisualStudioCode/STM32F1_HAL/Drivers/STM32F1xx_HAL_Driver/Src\stm32f1xx_hal_dma.c **** 
 1271              		.loc 1 670 0
 1272 0126 8363     		str	r3, [r0, #56]
 673:E:/VisualStudioCode/STM32F1_HAL/Drivers/STM32F1xx_HAL_Driver/Src\stm32f1xx_hal_dma.c **** 
 1273              		.loc 1 673 0
 1274 0128 80F82130 		strb	r3, [r0, #33]
 676:E:/VisualStudioCode/STM32F1_HAL/Drivers/STM32F1xx_HAL_Driver/Src\stm32f1xx_hal_dma.c **** 
 1275              		.loc 1 676 0
 1276 012c 0023     		movs	r3, #0
 1277 012e 80F82030 		strb	r3, [r0, #32]
 678:E:/VisualStudioCode/STM32F1_HAL/Drivers/STM32F1xx_HAL_Driver/Src\stm32f1xx_hal_dma.c ****     {
 1278              		.loc 1 678 0
 1279 0132 036B     		ldr	r3, [r0, #48]
 1280 0134 002B     		cmp	r3, #0
 1281 0136 97D0     		beq	.L113
 681:E:/VisualStudioCode/STM32F1_HAL/Drivers/STM32F1xx_HAL_Driver/Src\stm32f1xx_hal_dma.c ****     }
 1282              		.loc 1 681 0
 1283 0138 9847     		blx	r3
 1284              	.LVL72:
 684:E:/VisualStudioCode/STM32F1_HAL/Drivers/STM32F1xx_HAL_Driver/Src\stm32f1xx_hal_dma.c **** }
 1285              		.loc 1 684 0
 1286 013a 95E7     		b	.L113
 1287              	.L137:
 1288              		.align	2
 1289              	.L136:
 1290 013c 08000240 		.word	1073872904
 1291 0140 00000240 		.word	1073872896
 1292              		.cfi_endproc
ARM GAS  C:\Users\ADMINI~1\AppData\Local\Temp\ccwfdPpv.s 			page 43


 1293              	.LFE71:
 1294              		.fnend
 1296              		.section	.text.HAL_DMA_RegisterCallback,"ax",%progbits
 1297              		.align	1
 1298              		.global	HAL_DMA_RegisterCallback
 1299              		.syntax unified
 1300              		.thumb
 1301              		.thumb_func
 1302              		.fpu softvfp
 1304              	HAL_DMA_RegisterCallback:
 1305              		.fnstart
 1306              	.LFB72:
 698:E:/VisualStudioCode/STM32F1_HAL/Drivers/STM32F1xx_HAL_Driver/Src\stm32f1xx_hal_dma.c ****   HAL_StatusTypeDef status = HAL_OK;
 1307              		.loc 1 698 0
 1308              		.cfi_startproc
 1309              		@ args = 0, pretend = 0, frame = 0
 1310              		@ frame_needed = 0, uses_anonymous_args = 0
 1311              		@ link register save eliminated.
 1312              	.LVL73:
 1313 0000 0346     		mov	r3, r0
 1314              	.LVL74:
 702:E:/VisualStudioCode/STM32F1_HAL/Drivers/STM32F1xx_HAL_Driver/Src\stm32f1xx_hal_dma.c ****   
 1315              		.loc 1 702 0
 1316 0002 90F82000 		ldrb	r0, [r0, #32]	@ zero_extendqisi2
 1317              	.LVL75:
 1318 0006 0128     		cmp	r0, #1
 1319 0008 1FD0     		beq	.L146
 702:E:/VisualStudioCode/STM32F1_HAL/Drivers/STM32F1xx_HAL_Driver/Src\stm32f1xx_hal_dma.c ****   
 1320              		.loc 1 702 0 is_stmt 0 discriminator 2
 1321 000a 0120     		movs	r0, #1
 1322 000c 83F82000 		strb	r0, [r3, #32]
 704:E:/VisualStudioCode/STM32F1_HAL/Drivers/STM32F1xx_HAL_Driver/Src\stm32f1xx_hal_dma.c ****   {
 1323              		.loc 1 704 0 is_stmt 1 discriminator 2
 1324 0010 93F82100 		ldrb	r0, [r3, #33]	@ zero_extendqisi2
 1325 0014 0128     		cmp	r0, #1
 1326 0016 04D0     		beq	.L149
 731:E:/VisualStudioCode/STM32F1_HAL/Drivers/STM32F1xx_HAL_Driver/Src\stm32f1xx_hal_dma.c ****   } 
 1327              		.loc 1 731 0
 1328 0018 0120     		movs	r0, #1
 1329              	.L140:
 1330              	.LVL76:
 735:E:/VisualStudioCode/STM32F1_HAL/Drivers/STM32F1xx_HAL_Driver/Src\stm32f1xx_hal_dma.c ****   
 1331              		.loc 1 735 0
 1332 001a 0022     		movs	r2, #0
 1333              	.LVL77:
 1334 001c 83F82020 		strb	r2, [r3, #32]
 737:E:/VisualStudioCode/STM32F1_HAL/Drivers/STM32F1xx_HAL_Driver/Src\stm32f1xx_hal_dma.c **** }
 1335              		.loc 1 737 0
 1336 0020 7047     		bx	lr
 1337              	.LVL78:
 1338              	.L149:
 706:E:/VisualStudioCode/STM32F1_HAL/Drivers/STM32F1xx_HAL_Driver/Src\stm32f1xx_hal_dma.c ****     {
 1339              		.loc 1 706 0
 1340 0022 0329     		cmp	r1, #3
 1341 0024 0FD8     		bhi	.L148
 1342 0026 DFE801F0 		tbb	[pc, r1]
 1343              	.L142:
ARM GAS  C:\Users\ADMINI~1\AppData\Local\Temp\ccwfdPpv.s 			page 44


 1344 002a 02       		.byte	(.L141-.L142)/2
 1345 002b 05       		.byte	(.L143-.L142)/2
 1346 002c 08       		.byte	(.L144-.L142)/2
 1347 002d 0B       		.byte	(.L145-.L142)/2
 1348              		.p2align 1
 1349              	.L141:
 709:E:/VisualStudioCode/STM32F1_HAL/Drivers/STM32F1xx_HAL_Driver/Src\stm32f1xx_hal_dma.c ****       break;
 1350              		.loc 1 709 0
 1351 002e 9A62     		str	r2, [r3, #40]
 699:E:/VisualStudioCode/STM32F1_HAL/Drivers/STM32F1xx_HAL_Driver/Src\stm32f1xx_hal_dma.c ****   
 1352              		.loc 1 699 0
 1353 0030 0020     		movs	r0, #0
 710:E:/VisualStudioCode/STM32F1_HAL/Drivers/STM32F1xx_HAL_Driver/Src\stm32f1xx_hal_dma.c ****       
 1354              		.loc 1 710 0
 1355 0032 F2E7     		b	.L140
 1356              	.L143:
 713:E:/VisualStudioCode/STM32F1_HAL/Drivers/STM32F1xx_HAL_Driver/Src\stm32f1xx_hal_dma.c ****       break;         
 1357              		.loc 1 713 0
 1358 0034 DA62     		str	r2, [r3, #44]
 699:E:/VisualStudioCode/STM32F1_HAL/Drivers/STM32F1xx_HAL_Driver/Src\stm32f1xx_hal_dma.c ****   
 1359              		.loc 1 699 0
 1360 0036 0020     		movs	r0, #0
 714:E:/VisualStudioCode/STM32F1_HAL/Drivers/STM32F1xx_HAL_Driver/Src\stm32f1xx_hal_dma.c **** 
 1361              		.loc 1 714 0
 1362 0038 EFE7     		b	.L140
 1363              	.L144:
 717:E:/VisualStudioCode/STM32F1_HAL/Drivers/STM32F1xx_HAL_Driver/Src\stm32f1xx_hal_dma.c ****       break;         
 1364              		.loc 1 717 0
 1365 003a 1A63     		str	r2, [r3, #48]
 699:E:/VisualStudioCode/STM32F1_HAL/Drivers/STM32F1xx_HAL_Driver/Src\stm32f1xx_hal_dma.c ****   
 1366              		.loc 1 699 0
 1367 003c 0020     		movs	r0, #0
 718:E:/VisualStudioCode/STM32F1_HAL/Drivers/STM32F1xx_HAL_Driver/Src\stm32f1xx_hal_dma.c ****       
 1368              		.loc 1 718 0
 1369 003e ECE7     		b	.L140
 1370              	.L145:
 721:E:/VisualStudioCode/STM32F1_HAL/Drivers/STM32F1xx_HAL_Driver/Src\stm32f1xx_hal_dma.c ****       break; 
 1371              		.loc 1 721 0
 1372 0040 5A63     		str	r2, [r3, #52]
 699:E:/VisualStudioCode/STM32F1_HAL/Drivers/STM32F1xx_HAL_Driver/Src\stm32f1xx_hal_dma.c ****   
 1373              		.loc 1 699 0
 1374 0042 0020     		movs	r0, #0
 722:E:/VisualStudioCode/STM32F1_HAL/Drivers/STM32F1xx_HAL_Driver/Src\stm32f1xx_hal_dma.c ****       
 1375              		.loc 1 722 0
 1376 0044 E9E7     		b	.L140
 1377              	.L148:
 725:E:/VisualStudioCode/STM32F1_HAL/Drivers/STM32F1xx_HAL_Driver/Src\stm32f1xx_hal_dma.c ****       break;                                                            
 1378              		.loc 1 725 0
 1379 0046 0120     		movs	r0, #1
 1380 0048 E7E7     		b	.L140
 1381              	.L146:
 702:E:/VisualStudioCode/STM32F1_HAL/Drivers/STM32F1xx_HAL_Driver/Src\stm32f1xx_hal_dma.c ****   
 1382              		.loc 1 702 0
 1383 004a 0220     		movs	r0, #2
 738:E:/VisualStudioCode/STM32F1_HAL/Drivers/STM32F1xx_HAL_Driver/Src\stm32f1xx_hal_dma.c **** 
 1384              		.loc 1 738 0
 1385 004c 7047     		bx	lr
ARM GAS  C:\Users\ADMINI~1\AppData\Local\Temp\ccwfdPpv.s 			page 45


 1386              		.cfi_endproc
 1387              	.LFE72:
 1388              		.cantunwind
 1389              		.fnend
 1391              		.section	.text.HAL_DMA_UnRegisterCallback,"ax",%progbits
 1392              		.align	1
 1393              		.global	HAL_DMA_UnRegisterCallback
 1394              		.syntax unified
 1395              		.thumb
 1396              		.thumb_func
 1397              		.fpu softvfp
 1399              	HAL_DMA_UnRegisterCallback:
 1400              		.fnstart
 1401              	.LFB73:
 749:E:/VisualStudioCode/STM32F1_HAL/Drivers/STM32F1xx_HAL_Driver/Src\stm32f1xx_hal_dma.c ****   HAL_StatusTypeDef status = HAL_OK;
 1402              		.loc 1 749 0
 1403              		.cfi_startproc
 1404              		@ args = 0, pretend = 0, frame = 0
 1405              		@ frame_needed = 0, uses_anonymous_args = 0
 1406              		@ link register save eliminated.
 1407              	.LVL79:
 1408 0000 0346     		mov	r3, r0
 1409              	.LVL80:
 753:E:/VisualStudioCode/STM32F1_HAL/Drivers/STM32F1xx_HAL_Driver/Src\stm32f1xx_hal_dma.c ****   
 1410              		.loc 1 753 0
 1411 0002 90F82020 		ldrb	r2, [r0, #32]	@ zero_extendqisi2
 1412 0006 012A     		cmp	r2, #1
 1413 0008 26D0     		beq	.L159
 753:E:/VisualStudioCode/STM32F1_HAL/Drivers/STM32F1xx_HAL_Driver/Src\stm32f1xx_hal_dma.c ****   
 1414              		.loc 1 753 0 is_stmt 0 discriminator 2
 1415 000a 0122     		movs	r2, #1
 1416 000c 80F82020 		strb	r2, [r0, #32]
 755:E:/VisualStudioCode/STM32F1_HAL/Drivers/STM32F1xx_HAL_Driver/Src\stm32f1xx_hal_dma.c ****   {
 1417              		.loc 1 755 0 is_stmt 1 discriminator 2
 1418 0010 90F82120 		ldrb	r2, [r0, #33]	@ zero_extendqisi2
 1419 0014 012A     		cmp	r2, #1
 1420 0016 04D0     		beq	.L162
 789:E:/VisualStudioCode/STM32F1_HAL/Drivers/STM32F1xx_HAL_Driver/Src\stm32f1xx_hal_dma.c ****   } 
 1421              		.loc 1 789 0
 1422 0018 0120     		movs	r0, #1
 1423              	.LVL81:
 1424              	.L152:
 793:E:/VisualStudioCode/STM32F1_HAL/Drivers/STM32F1xx_HAL_Driver/Src\stm32f1xx_hal_dma.c ****   
 1425              		.loc 1 793 0
 1426 001a 0022     		movs	r2, #0
 1427 001c 83F82020 		strb	r2, [r3, #32]
 795:E:/VisualStudioCode/STM32F1_HAL/Drivers/STM32F1xx_HAL_Driver/Src\stm32f1xx_hal_dma.c **** }
 1428              		.loc 1 795 0
 1429 0020 7047     		bx	lr
 1430              	.LVL82:
 1431              	.L162:
 757:E:/VisualStudioCode/STM32F1_HAL/Drivers/STM32F1xx_HAL_Driver/Src\stm32f1xx_hal_dma.c ****     {
 1432              		.loc 1 757 0
 1433 0022 0429     		cmp	r1, #4
 1434 0024 16D8     		bhi	.L161
 1435 0026 DFE801F0 		tbb	[pc, r1]
 1436              	.L154:
ARM GAS  C:\Users\ADMINI~1\AppData\Local\Temp\ccwfdPpv.s 			page 46


 1437 002a 03       		.byte	(.L153-.L154)/2
 1438 002b 06       		.byte	(.L155-.L154)/2
 1439 002c 09       		.byte	(.L156-.L154)/2
 1440 002d 0C       		.byte	(.L157-.L154)/2
 1441 002e 0F       		.byte	(.L158-.L154)/2
 1442 002f 00       		.p2align 1
 1443              	.L153:
 760:E:/VisualStudioCode/STM32F1_HAL/Drivers/STM32F1xx_HAL_Driver/Src\stm32f1xx_hal_dma.c ****       break;
 1444              		.loc 1 760 0
 1445 0030 0020     		movs	r0, #0
 1446              	.LVL83:
 1447 0032 9862     		str	r0, [r3, #40]
 761:E:/VisualStudioCode/STM32F1_HAL/Drivers/STM32F1xx_HAL_Driver/Src\stm32f1xx_hal_dma.c **** 
 1448              		.loc 1 761 0
 1449 0034 F1E7     		b	.L152
 1450              	.LVL84:
 1451              	.L155:
 764:E:/VisualStudioCode/STM32F1_HAL/Drivers/STM32F1xx_HAL_Driver/Src\stm32f1xx_hal_dma.c ****       break;         
 1452              		.loc 1 764 0
 1453 0036 0020     		movs	r0, #0
 1454              	.LVL85:
 1455 0038 D862     		str	r0, [r3, #44]
 765:E:/VisualStudioCode/STM32F1_HAL/Drivers/STM32F1xx_HAL_Driver/Src\stm32f1xx_hal_dma.c **** 
 1456              		.loc 1 765 0
 1457 003a EEE7     		b	.L152
 1458              	.LVL86:
 1459              	.L156:
 768:E:/VisualStudioCode/STM32F1_HAL/Drivers/STM32F1xx_HAL_Driver/Src\stm32f1xx_hal_dma.c ****       break;         
 1460              		.loc 1 768 0
 1461 003c 0020     		movs	r0, #0
 1462              	.LVL87:
 1463 003e 1863     		str	r0, [r3, #48]
 769:E:/VisualStudioCode/STM32F1_HAL/Drivers/STM32F1xx_HAL_Driver/Src\stm32f1xx_hal_dma.c **** 
 1464              		.loc 1 769 0
 1465 0040 EBE7     		b	.L152
 1466              	.LVL88:
 1467              	.L157:
 772:E:/VisualStudioCode/STM32F1_HAL/Drivers/STM32F1xx_HAL_Driver/Src\stm32f1xx_hal_dma.c ****       break; 
 1468              		.loc 1 772 0
 1469 0042 0020     		movs	r0, #0
 1470              	.LVL89:
 1471 0044 5863     		str	r0, [r3, #52]
 773:E:/VisualStudioCode/STM32F1_HAL/Drivers/STM32F1xx_HAL_Driver/Src\stm32f1xx_hal_dma.c **** 
 1472              		.loc 1 773 0
 1473 0046 E8E7     		b	.L152
 1474              	.LVL90:
 1475              	.L158:
 776:E:/VisualStudioCode/STM32F1_HAL/Drivers/STM32F1xx_HAL_Driver/Src\stm32f1xx_hal_dma.c ****       hdma->XferHalfCpltCallback = NULL;
 1476              		.loc 1 776 0
 1477 0048 0020     		movs	r0, #0
 1478              	.LVL91:
 1479 004a 9862     		str	r0, [r3, #40]
 777:E:/VisualStudioCode/STM32F1_HAL/Drivers/STM32F1xx_HAL_Driver/Src\stm32f1xx_hal_dma.c ****       hdma->XferErrorCallback = NULL;
 1480              		.loc 1 777 0
 1481 004c D862     		str	r0, [r3, #44]
 778:E:/VisualStudioCode/STM32F1_HAL/Drivers/STM32F1xx_HAL_Driver/Src\stm32f1xx_hal_dma.c ****       hdma->XferAbortCallback = NULL;
 1482              		.loc 1 778 0
ARM GAS  C:\Users\ADMINI~1\AppData\Local\Temp\ccwfdPpv.s 			page 47


 1483 004e 1863     		str	r0, [r3, #48]
 779:E:/VisualStudioCode/STM32F1_HAL/Drivers/STM32F1xx_HAL_Driver/Src\stm32f1xx_hal_dma.c ****       break; 
 1484              		.loc 1 779 0
 1485 0050 5863     		str	r0, [r3, #52]
 780:E:/VisualStudioCode/STM32F1_HAL/Drivers/STM32F1xx_HAL_Driver/Src\stm32f1xx_hal_dma.c **** 
 1486              		.loc 1 780 0
 1487 0052 E2E7     		b	.L152
 1488              	.LVL92:
 1489              	.L161:
 783:E:/VisualStudioCode/STM32F1_HAL/Drivers/STM32F1xx_HAL_Driver/Src\stm32f1xx_hal_dma.c ****       break;
 1490              		.loc 1 783 0
 1491 0054 0120     		movs	r0, #1
 1492              	.LVL93:
 1493 0056 E0E7     		b	.L152
 1494              	.LVL94:
 1495              	.L159:
 753:E:/VisualStudioCode/STM32F1_HAL/Drivers/STM32F1xx_HAL_Driver/Src\stm32f1xx_hal_dma.c ****   
 1496              		.loc 1 753 0
 1497 0058 0220     		movs	r0, #2
 1498              	.LVL95:
 796:E:/VisualStudioCode/STM32F1_HAL/Drivers/STM32F1xx_HAL_Driver/Src\stm32f1xx_hal_dma.c ****   
 1499              		.loc 1 796 0
 1500 005a 7047     		bx	lr
 1501              		.cfi_endproc
 1502              	.LFE73:
 1503              		.cantunwind
 1504              		.fnend
 1506              		.section	.text.HAL_DMA_GetState,"ax",%progbits
 1507              		.align	1
 1508              		.global	HAL_DMA_GetState
 1509              		.syntax unified
 1510              		.thumb
 1511              		.thumb_func
 1512              		.fpu softvfp
 1514              	HAL_DMA_GetState:
 1515              		.fnstart
 1516              	.LFB74:
 825:E:/VisualStudioCode/STM32F1_HAL/Drivers/STM32F1xx_HAL_Driver/Src\stm32f1xx_hal_dma.c ****   /* Return DMA handle state */
 1517              		.loc 1 825 0
 1518              		.cfi_startproc
 1519              		@ args = 0, pretend = 0, frame = 0
 1520              		@ frame_needed = 0, uses_anonymous_args = 0
 1521              		@ link register save eliminated.
 1522              	.LVL96:
 828:E:/VisualStudioCode/STM32F1_HAL/Drivers/STM32F1xx_HAL_Driver/Src\stm32f1xx_hal_dma.c **** 
 1523              		.loc 1 828 0
 1524 0000 90F82100 		ldrb	r0, [r0, #33]	@ zero_extendqisi2
 1525              	.LVL97:
 1526 0004 7047     		bx	lr
 1527              		.cfi_endproc
 1528              	.LFE74:
 1529              		.cantunwind
 1530              		.fnend
 1532              		.section	.text.HAL_DMA_GetError,"ax",%progbits
 1533              		.align	1
 1534              		.global	HAL_DMA_GetError
 1535              		.syntax unified
ARM GAS  C:\Users\ADMINI~1\AppData\Local\Temp\ccwfdPpv.s 			page 48


 1536              		.thumb
 1537              		.thumb_func
 1538              		.fpu softvfp
 1540              	HAL_DMA_GetError:
 1541              		.fnstart
 1542              	.LFB75:
 837:E:/VisualStudioCode/STM32F1_HAL/Drivers/STM32F1xx_HAL_Driver/Src\stm32f1xx_hal_dma.c ****   return hdma->ErrorCode;
 1543              		.loc 1 837 0
 1544              		.cfi_startproc
 1545              		@ args = 0, pretend = 0, frame = 0
 1546              		@ frame_needed = 0, uses_anonymous_args = 0
 1547              		@ link register save eliminated.
 1548              	.LVL98:
 838:E:/VisualStudioCode/STM32F1_HAL/Drivers/STM32F1xx_HAL_Driver/Src\stm32f1xx_hal_dma.c **** }
 1549              		.loc 1 838 0
 1550 0000 806B     		ldr	r0, [r0, #56]
 1551              	.LVL99:
 839:E:/VisualStudioCode/STM32F1_HAL/Drivers/STM32F1xx_HAL_Driver/Src\stm32f1xx_hal_dma.c **** 
 1552              		.loc 1 839 0
 1553 0002 7047     		bx	lr
 1554              		.cfi_endproc
 1555              	.LFE75:
 1556              		.cantunwind
 1557              		.fnend
 1559              		.text
 1560              	.Letext0:
 1561              		.file 2 "e:\\visualstudiocode\\gcc-arm-none-eabi\\arm-none-eabi\\include\\machine\\_default_types.
 1562              		.file 3 "e:\\visualstudiocode\\gcc-arm-none-eabi\\arm-none-eabi\\include\\sys\\_stdint.h"
 1563              		.file 4 "E:/VisualStudioCode/STM32F1_HAL/Drivers/CMSIS/Include/core_cm3.h"
 1564              		.file 5 "E:/VisualStudioCode/STM32F1_HAL/Drivers/CMSIS/Device/ST/STM32F1xx/Include/system_stm32f1x
 1565              		.file 6 "E:/VisualStudioCode/STM32F1_HAL/Drivers/CMSIS/Device/ST/STM32F1xx/Include/stm32f103xb.h"
 1566              		.file 7 "E:/VisualStudioCode/STM32F1_HAL/Drivers/CMSIS/Device/ST/STM32F1xx/Include/stm32f1xx.h"
 1567              		.file 8 "e:\\visualstudiocode\\gcc-arm-none-eabi\\arm-none-eabi\\include\\sys\\lock.h"
 1568              		.file 9 "e:\\visualstudiocode\\gcc-arm-none-eabi\\arm-none-eabi\\include\\sys\\_types.h"
 1569              		.file 10 "e:\\visualstudiocode\\gcc-arm-none-eabi\\lib\\gcc\\arm-none-eabi\\7.2.1\\include\\stddef
 1570              		.file 11 "e:\\visualstudiocode\\gcc-arm-none-eabi\\arm-none-eabi\\include\\sys\\reent.h"
 1571              		.file 12 "E:/VisualStudioCode/STM32F1_HAL/Drivers/STM32F1xx_HAL_Driver/Inc/stm32f1xx_hal_def.h"
 1572              		.file 13 "E:/VisualStudioCode/STM32F1_HAL/Drivers/STM32F1xx_HAL_Driver/Inc/stm32f1xx_hal_dma.h"
 1573              		.file 14 "E:/VisualStudioCode/STM32F1_HAL/Drivers/STM32F1xx_HAL_Driver/Inc/stm32f1xx_hal.h"
ARM GAS  C:\Users\ADMINI~1\AppData\Local\Temp\ccwfdPpv.s 			page 49


DEFINED SYMBOLS
                            *ABS*:00000000 stm32f1xx_hal_dma.c
C:\Users\ADMINI~1\AppData\Local\Temp\ccwfdPpv.s:16     .text._ZL13DMA_SetConfigP19__DMA_HandleTypeDefmmm:00000000 $t
C:\Users\ADMINI~1\AppData\Local\Temp\ccwfdPpv.s:22     .text._ZL13DMA_SetConfigP19__DMA_HandleTypeDefmmm:00000000 _ZL13DMA_SetConfigP19__DMA_HandleTypeDefmmm
.ARM.exidx.text._ZL13DMA_SetConfigP19__DMA_HandleTypeDefmmm:00000000 $d
C:\Users\ADMINI~1\AppData\Local\Temp\ccwfdPpv.s:87     .text.HAL_DMA_Init:00000000 $t
C:\Users\ADMINI~1\AppData\Local\Temp\ccwfdPpv.s:94     .text.HAL_DMA_Init:00000000 HAL_DMA_Init
C:\Users\ADMINI~1\AppData\Local\Temp\ccwfdPpv.s:197    .text.HAL_DMA_Init:0000006c $d
     .ARM.exidx.text.HAL_DMA_Init:00000000 $d
C:\Users\ADMINI~1\AppData\Local\Temp\ccwfdPpv.s:206    .text.HAL_DMA_DeInit:00000000 $t
C:\Users\ADMINI~1\AppData\Local\Temp\ccwfdPpv.s:213    .text.HAL_DMA_DeInit:00000000 HAL_DMA_DeInit
C:\Users\ADMINI~1\AppData\Local\Temp\ccwfdPpv.s:287    .text.HAL_DMA_DeInit:00000054 $d
   .ARM.exidx.text.HAL_DMA_DeInit:00000000 $d
C:\Users\ADMINI~1\AppData\Local\Temp\ccwfdPpv.s:296    .text.HAL_DMA_Start:00000000 $t
C:\Users\ADMINI~1\AppData\Local\Temp\ccwfdPpv.s:303    .text.HAL_DMA_Start:00000000 HAL_DMA_Start
    .ARM.exidx.text.HAL_DMA_Start:00000000 $d
C:\Users\ADMINI~1\AppData\Local\Temp\ccwfdPpv.s:380    .text.HAL_DMA_Start_IT:00000000 $t
C:\Users\ADMINI~1\AppData\Local\Temp\ccwfdPpv.s:387    .text.HAL_DMA_Start_IT:00000000 HAL_DMA_Start_IT
 .ARM.exidx.text.HAL_DMA_Start_IT:00000000 $d
C:\Users\ADMINI~1\AppData\Local\Temp\ccwfdPpv.s:485    .text.HAL_DMA_Abort:00000000 $t
C:\Users\ADMINI~1\AppData\Local\Temp\ccwfdPpv.s:492    .text.HAL_DMA_Abort:00000000 HAL_DMA_Abort
    .ARM.exidx.text.HAL_DMA_Abort:00000000 $d
C:\Users\ADMINI~1\AppData\Local\Temp\ccwfdPpv.s:533    .text.HAL_DMA_Abort_IT:00000000 $t
C:\Users\ADMINI~1\AppData\Local\Temp\ccwfdPpv.s:540    .text.HAL_DMA_Abort_IT:00000000 HAL_DMA_Abort_IT
C:\Users\ADMINI~1\AppData\Local\Temp\ccwfdPpv.s:655    .text.HAL_DMA_Abort_IT:00000090 $d
 .ARM.extab.text.HAL_DMA_Abort_IT:00000000 $d
 .ARM.exidx.text.HAL_DMA_Abort_IT:00000000 $d
C:\Users\ADMINI~1\AppData\Local\Temp\ccwfdPpv.s:662    .text.HAL_DMA_PollForTransfer:00000000 $t
C:\Users\ADMINI~1\AppData\Local\Temp\ccwfdPpv.s:669    .text.HAL_DMA_PollForTransfer:00000000 HAL_DMA_PollForTransfer
C:\Users\ADMINI~1\AppData\Local\Temp\ccwfdPpv.s:1048   .text.HAL_DMA_PollForTransfer:00000224 $d
.ARM.exidx.text.HAL_DMA_PollForTransfer:00000000 $d
C:\Users\ADMINI~1\AppData\Local\Temp\ccwfdPpv.s:1055   .text.HAL_DMA_IRQHandler:00000000 $t
C:\Users\ADMINI~1\AppData\Local\Temp\ccwfdPpv.s:1062   .text.HAL_DMA_IRQHandler:00000000 HAL_DMA_IRQHandler
C:\Users\ADMINI~1\AppData\Local\Temp\ccwfdPpv.s:1290   .text.HAL_DMA_IRQHandler:0000013c $d
.ARM.exidx.text.HAL_DMA_IRQHandler:00000000 $d
C:\Users\ADMINI~1\AppData\Local\Temp\ccwfdPpv.s:1297   .text.HAL_DMA_RegisterCallback:00000000 $t
C:\Users\ADMINI~1\AppData\Local\Temp\ccwfdPpv.s:1304   .text.HAL_DMA_RegisterCallback:00000000 HAL_DMA_RegisterCallback
C:\Users\ADMINI~1\AppData\Local\Temp\ccwfdPpv.s:1344   .text.HAL_DMA_RegisterCallback:0000002a $d
C:\Users\ADMINI~1\AppData\Local\Temp\ccwfdPpv.s:1348   .text.HAL_DMA_RegisterCallback:0000002e $t
.ARM.exidx.text.HAL_DMA_RegisterCallback:00000000 $d
C:\Users\ADMINI~1\AppData\Local\Temp\ccwfdPpv.s:1392   .text.HAL_DMA_UnRegisterCallback:00000000 $t
C:\Users\ADMINI~1\AppData\Local\Temp\ccwfdPpv.s:1399   .text.HAL_DMA_UnRegisterCallback:00000000 HAL_DMA_UnRegisterCallback
C:\Users\ADMINI~1\AppData\Local\Temp\ccwfdPpv.s:1437   .text.HAL_DMA_UnRegisterCallback:0000002a $d
.ARM.exidx.text.HAL_DMA_UnRegisterCallback:00000000 $d
C:\Users\ADMINI~1\AppData\Local\Temp\ccwfdPpv.s:1507   .text.HAL_DMA_GetState:00000000 $t
C:\Users\ADMINI~1\AppData\Local\Temp\ccwfdPpv.s:1514   .text.HAL_DMA_GetState:00000000 HAL_DMA_GetState
 .ARM.exidx.text.HAL_DMA_GetState:00000000 $d
C:\Users\ADMINI~1\AppData\Local\Temp\ccwfdPpv.s:1533   .text.HAL_DMA_GetError:00000000 $t
C:\Users\ADMINI~1\AppData\Local\Temp\ccwfdPpv.s:1540   .text.HAL_DMA_GetError:00000000 HAL_DMA_GetError
 .ARM.exidx.text.HAL_DMA_GetError:00000000 $d
C:\Users\ADMINI~1\AppData\Local\Temp\ccwfdPpv.s:1442   .text.HAL_DMA_UnRegisterCallback:0000002f $d
C:\Users\ADMINI~1\AppData\Local\Temp\ccwfdPpv.s:1442   .text.HAL_DMA_UnRegisterCallback:00000030 $t

UNDEFINED SYMBOLS
__aeabi_unwind_cpp_pr1
HAL_GetTick
__aeabi_unwind_cpp_pr0
ARM GAS  C:\Users\ADMINI~1\AppData\Local\Temp\ccwfdPpv.s 			page 50


