ARM GAS  C:\Users\ADMINI~1\AppData\Local\Temp\ccRfmGKA.s 			page 1


   1              		.cpu cortex-m3
   2              		.eabi_attribute 20, 1
   3              		.eabi_attribute 21, 1
   4              		.eabi_attribute 23, 3
   5              		.eabi_attribute 24, 1
   6              		.eabi_attribute 25, 1
   7              		.eabi_attribute 26, 1
   8              		.eabi_attribute 30, 1
   9              		.eabi_attribute 34, 1
  10              		.eabi_attribute 18, 4
  11              		.file	"stm32f1xx_hal_flash_ex.c"
  12              		.text
  13              	.Ltext0:
  14              		.cfi_sections	.debug_frame
  15              		.section	.text._ZL15FLASH_MassErasem,"ax",%progbits
  16              		.align	1
  17              		.syntax unified
  18              		.thumb
  19              		.thumb_func
  20              		.fpu softvfp
  22              	_ZL15FLASH_MassErasem:
  23              		.fnstart
  24              	.LFB70:
  25              		.file 1 "E:/VisualStudioCode/STM32F1_HAL/Drivers/STM32F1xx_HAL_Driver/Src/stm32f1xx_hal_flash_ex.c
   1:E:/VisualStudioCode/STM32F1_HAL/Drivers/STM32F1xx_HAL_Driver/Src\stm32f1xx_hal_flash_ex.c **** /**
   2:E:/VisualStudioCode/STM32F1_HAL/Drivers/STM32F1xx_HAL_Driver/Src\stm32f1xx_hal_flash_ex.c ****   ******************************************************************************
   3:E:/VisualStudioCode/STM32F1_HAL/Drivers/STM32F1xx_HAL_Driver/Src\stm32f1xx_hal_flash_ex.c ****   * @file    stm32f1xx_hal_flash_ex.c
   4:E:/VisualStudioCode/STM32F1_HAL/Drivers/STM32F1xx_HAL_Driver/Src\stm32f1xx_hal_flash_ex.c ****   * @author  MCD Application Team
   5:E:/VisualStudioCode/STM32F1_HAL/Drivers/STM32F1xx_HAL_Driver/Src\stm32f1xx_hal_flash_ex.c ****   * @brief   Extended FLASH HAL module driver.
   6:E:/VisualStudioCode/STM32F1_HAL/Drivers/STM32F1xx_HAL_Driver/Src\stm32f1xx_hal_flash_ex.c ****   *    
   7:E:/VisualStudioCode/STM32F1_HAL/Drivers/STM32F1xx_HAL_Driver/Src\stm32f1xx_hal_flash_ex.c ****   *          This file provides firmware functions to manage the following 
   8:E:/VisualStudioCode/STM32F1_HAL/Drivers/STM32F1xx_HAL_Driver/Src\stm32f1xx_hal_flash_ex.c ****   *          functionalities of the FLASH peripheral:
   9:E:/VisualStudioCode/STM32F1_HAL/Drivers/STM32F1xx_HAL_Driver/Src\stm32f1xx_hal_flash_ex.c ****   *           + Extended Initialization/de-initialization functions
  10:E:/VisualStudioCode/STM32F1_HAL/Drivers/STM32F1xx_HAL_Driver/Src\stm32f1xx_hal_flash_ex.c ****   *           + Extended I/O operation functions
  11:E:/VisualStudioCode/STM32F1_HAL/Drivers/STM32F1xx_HAL_Driver/Src\stm32f1xx_hal_flash_ex.c ****   *           + Extended Peripheral Control functions 
  12:E:/VisualStudioCode/STM32F1_HAL/Drivers/STM32F1xx_HAL_Driver/Src\stm32f1xx_hal_flash_ex.c ****   *         
  13:E:/VisualStudioCode/STM32F1_HAL/Drivers/STM32F1xx_HAL_Driver/Src\stm32f1xx_hal_flash_ex.c ****   @verbatim
  14:E:/VisualStudioCode/STM32F1_HAL/Drivers/STM32F1xx_HAL_Driver/Src\stm32f1xx_hal_flash_ex.c ****   ==============================================================================
  15:E:/VisualStudioCode/STM32F1_HAL/Drivers/STM32F1xx_HAL_Driver/Src\stm32f1xx_hal_flash_ex.c ****                ##### Flash peripheral extended features  #####
  16:E:/VisualStudioCode/STM32F1_HAL/Drivers/STM32F1xx_HAL_Driver/Src\stm32f1xx_hal_flash_ex.c ****   ==============================================================================
  17:E:/VisualStudioCode/STM32F1_HAL/Drivers/STM32F1xx_HAL_Driver/Src\stm32f1xx_hal_flash_ex.c ****            
  18:E:/VisualStudioCode/STM32F1_HAL/Drivers/STM32F1xx_HAL_Driver/Src\stm32f1xx_hal_flash_ex.c ****                       ##### How to use this driver #####
  19:E:/VisualStudioCode/STM32F1_HAL/Drivers/STM32F1xx_HAL_Driver/Src\stm32f1xx_hal_flash_ex.c ****   ==============================================================================
  20:E:/VisualStudioCode/STM32F1_HAL/Drivers/STM32F1xx_HAL_Driver/Src\stm32f1xx_hal_flash_ex.c ****   [..] This driver provides functions to configure and program the FLASH memory 
  21:E:/VisualStudioCode/STM32F1_HAL/Drivers/STM32F1xx_HAL_Driver/Src\stm32f1xx_hal_flash_ex.c ****        of all STM32F1xxx devices. It includes
  22:E:/VisualStudioCode/STM32F1_HAL/Drivers/STM32F1xx_HAL_Driver/Src\stm32f1xx_hal_flash_ex.c ****        
  23:E:/VisualStudioCode/STM32F1_HAL/Drivers/STM32F1xx_HAL_Driver/Src\stm32f1xx_hal_flash_ex.c ****         (++) Set/Reset the write protection
  24:E:/VisualStudioCode/STM32F1_HAL/Drivers/STM32F1xx_HAL_Driver/Src\stm32f1xx_hal_flash_ex.c ****         (++) Program the user Option Bytes
  25:E:/VisualStudioCode/STM32F1_HAL/Drivers/STM32F1xx_HAL_Driver/Src\stm32f1xx_hal_flash_ex.c ****         (++) Get the Read protection Level
  26:E:/VisualStudioCode/STM32F1_HAL/Drivers/STM32F1xx_HAL_Driver/Src\stm32f1xx_hal_flash_ex.c ****   
  27:E:/VisualStudioCode/STM32F1_HAL/Drivers/STM32F1xx_HAL_Driver/Src\stm32f1xx_hal_flash_ex.c ****   @endverbatim
  28:E:/VisualStudioCode/STM32F1_HAL/Drivers/STM32F1xx_HAL_Driver/Src\stm32f1xx_hal_flash_ex.c ****   ******************************************************************************
  29:E:/VisualStudioCode/STM32F1_HAL/Drivers/STM32F1xx_HAL_Driver/Src\stm32f1xx_hal_flash_ex.c ****   * @attention
  30:E:/VisualStudioCode/STM32F1_HAL/Drivers/STM32F1xx_HAL_Driver/Src\stm32f1xx_hal_flash_ex.c ****   *
  31:E:/VisualStudioCode/STM32F1_HAL/Drivers/STM32F1xx_HAL_Driver/Src\stm32f1xx_hal_flash_ex.c ****   * <h2><center>&copy; COPYRIGHT(c) 2016 STMicroelectronics</center></h2>
  32:E:/VisualStudioCode/STM32F1_HAL/Drivers/STM32F1xx_HAL_Driver/Src\stm32f1xx_hal_flash_ex.c ****   *
  33:E:/VisualStudioCode/STM32F1_HAL/Drivers/STM32F1xx_HAL_Driver/Src\stm32f1xx_hal_flash_ex.c ****   * Redistribution and use in source and binary forms, with or without modification,
ARM GAS  C:\Users\ADMINI~1\AppData\Local\Temp\ccRfmGKA.s 			page 2


  34:E:/VisualStudioCode/STM32F1_HAL/Drivers/STM32F1xx_HAL_Driver/Src\stm32f1xx_hal_flash_ex.c ****   * are permitted provided that the following conditions are met:
  35:E:/VisualStudioCode/STM32F1_HAL/Drivers/STM32F1xx_HAL_Driver/Src\stm32f1xx_hal_flash_ex.c ****   *   1. Redistributions of source code must retain the above copyright notice,
  36:E:/VisualStudioCode/STM32F1_HAL/Drivers/STM32F1xx_HAL_Driver/Src\stm32f1xx_hal_flash_ex.c ****   *      this list of conditions and the following disclaimer.
  37:E:/VisualStudioCode/STM32F1_HAL/Drivers/STM32F1xx_HAL_Driver/Src\stm32f1xx_hal_flash_ex.c ****   *   2. Redistributions in binary form must reproduce the above copyright notice,
  38:E:/VisualStudioCode/STM32F1_HAL/Drivers/STM32F1xx_HAL_Driver/Src\stm32f1xx_hal_flash_ex.c ****   *      this list of conditions and the following disclaimer in the documentation
  39:E:/VisualStudioCode/STM32F1_HAL/Drivers/STM32F1xx_HAL_Driver/Src\stm32f1xx_hal_flash_ex.c ****   *      and/or other materials provided with the distribution.
  40:E:/VisualStudioCode/STM32F1_HAL/Drivers/STM32F1xx_HAL_Driver/Src\stm32f1xx_hal_flash_ex.c ****   *   3. Neither the name of STMicroelectronics nor the names of its contributors
  41:E:/VisualStudioCode/STM32F1_HAL/Drivers/STM32F1xx_HAL_Driver/Src\stm32f1xx_hal_flash_ex.c ****   *      may be used to endorse or promote products derived from this software
  42:E:/VisualStudioCode/STM32F1_HAL/Drivers/STM32F1xx_HAL_Driver/Src\stm32f1xx_hal_flash_ex.c ****   *      without specific prior written permission.
  43:E:/VisualStudioCode/STM32F1_HAL/Drivers/STM32F1xx_HAL_Driver/Src\stm32f1xx_hal_flash_ex.c ****   *
  44:E:/VisualStudioCode/STM32F1_HAL/Drivers/STM32F1xx_HAL_Driver/Src\stm32f1xx_hal_flash_ex.c ****   * THIS SOFTWARE IS PROVIDED BY THE COPYRIGHT HOLDERS AND CONTRIBUTORS "AS IS"
  45:E:/VisualStudioCode/STM32F1_HAL/Drivers/STM32F1xx_HAL_Driver/Src\stm32f1xx_hal_flash_ex.c ****   * AND ANY EXPRESS OR IMPLIED WARRANTIES, INCLUDING, BUT NOT LIMITED TO, THE
  46:E:/VisualStudioCode/STM32F1_HAL/Drivers/STM32F1xx_HAL_Driver/Src\stm32f1xx_hal_flash_ex.c ****   * IMPLIED WARRANTIES OF MERCHANTABILITY AND FITNESS FOR A PARTICULAR PURPOSE ARE
  47:E:/VisualStudioCode/STM32F1_HAL/Drivers/STM32F1xx_HAL_Driver/Src\stm32f1xx_hal_flash_ex.c ****   * DISCLAIMED. IN NO EVENT SHALL THE COPYRIGHT HOLDER OR CONTRIBUTORS BE LIABLE
  48:E:/VisualStudioCode/STM32F1_HAL/Drivers/STM32F1xx_HAL_Driver/Src\stm32f1xx_hal_flash_ex.c ****   * FOR ANY DIRECT, INDIRECT, INCIDENTAL, SPECIAL, EXEMPLARY, OR CONSEQUENTIAL
  49:E:/VisualStudioCode/STM32F1_HAL/Drivers/STM32F1xx_HAL_Driver/Src\stm32f1xx_hal_flash_ex.c ****   * DAMAGES (INCLUDING, BUT NOT LIMITED TO, PROCUREMENT OF SUBSTITUTE GOODS OR
  50:E:/VisualStudioCode/STM32F1_HAL/Drivers/STM32F1xx_HAL_Driver/Src\stm32f1xx_hal_flash_ex.c ****   * SERVICES; LOSS OF USE, DATA, OR PROFITS; OR BUSINESS INTERRUPTION) HOWEVER
  51:E:/VisualStudioCode/STM32F1_HAL/Drivers/STM32F1xx_HAL_Driver/Src\stm32f1xx_hal_flash_ex.c ****   * CAUSED AND ON ANY THEORY OF LIABILITY, WHETHER IN CONTRACT, STRICT LIABILITY,
  52:E:/VisualStudioCode/STM32F1_HAL/Drivers/STM32F1xx_HAL_Driver/Src\stm32f1xx_hal_flash_ex.c ****   * OR TORT (INCLUDING NEGLIGENCE OR OTHERWISE) ARISING IN ANY WAY OUT OF THE USE
  53:E:/VisualStudioCode/STM32F1_HAL/Drivers/STM32F1xx_HAL_Driver/Src\stm32f1xx_hal_flash_ex.c ****   * OF THIS SOFTWARE, EVEN IF ADVISED OF THE POSSIBILITY OF SUCH DAMAGE.
  54:E:/VisualStudioCode/STM32F1_HAL/Drivers/STM32F1xx_HAL_Driver/Src\stm32f1xx_hal_flash_ex.c ****   *
  55:E:/VisualStudioCode/STM32F1_HAL/Drivers/STM32F1xx_HAL_Driver/Src\stm32f1xx_hal_flash_ex.c ****   ******************************************************************************  
  56:E:/VisualStudioCode/STM32F1_HAL/Drivers/STM32F1xx_HAL_Driver/Src\stm32f1xx_hal_flash_ex.c ****   */
  57:E:/VisualStudioCode/STM32F1_HAL/Drivers/STM32F1xx_HAL_Driver/Src\stm32f1xx_hal_flash_ex.c **** 
  58:E:/VisualStudioCode/STM32F1_HAL/Drivers/STM32F1xx_HAL_Driver/Src\stm32f1xx_hal_flash_ex.c **** /* Includes ------------------------------------------------------------------*/
  59:E:/VisualStudioCode/STM32F1_HAL/Drivers/STM32F1xx_HAL_Driver/Src\stm32f1xx_hal_flash_ex.c **** #include "stm32f1xx_hal.h"
  60:E:/VisualStudioCode/STM32F1_HAL/Drivers/STM32F1xx_HAL_Driver/Src\stm32f1xx_hal_flash_ex.c **** 
  61:E:/VisualStudioCode/STM32F1_HAL/Drivers/STM32F1xx_HAL_Driver/Src\stm32f1xx_hal_flash_ex.c **** /** @addtogroup STM32F1xx_HAL_Driver
  62:E:/VisualStudioCode/STM32F1_HAL/Drivers/STM32F1xx_HAL_Driver/Src\stm32f1xx_hal_flash_ex.c ****   * @{
  63:E:/VisualStudioCode/STM32F1_HAL/Drivers/STM32F1xx_HAL_Driver/Src\stm32f1xx_hal_flash_ex.c ****   */
  64:E:/VisualStudioCode/STM32F1_HAL/Drivers/STM32F1xx_HAL_Driver/Src\stm32f1xx_hal_flash_ex.c **** #ifdef HAL_FLASH_MODULE_ENABLED
  65:E:/VisualStudioCode/STM32F1_HAL/Drivers/STM32F1xx_HAL_Driver/Src\stm32f1xx_hal_flash_ex.c **** 
  66:E:/VisualStudioCode/STM32F1_HAL/Drivers/STM32F1xx_HAL_Driver/Src\stm32f1xx_hal_flash_ex.c **** /** @addtogroup FLASH
  67:E:/VisualStudioCode/STM32F1_HAL/Drivers/STM32F1xx_HAL_Driver/Src\stm32f1xx_hal_flash_ex.c ****   * @{
  68:E:/VisualStudioCode/STM32F1_HAL/Drivers/STM32F1xx_HAL_Driver/Src\stm32f1xx_hal_flash_ex.c ****   */
  69:E:/VisualStudioCode/STM32F1_HAL/Drivers/STM32F1xx_HAL_Driver/Src\stm32f1xx_hal_flash_ex.c **** /** @addtogroup FLASH_Private_Variables
  70:E:/VisualStudioCode/STM32F1_HAL/Drivers/STM32F1xx_HAL_Driver/Src\stm32f1xx_hal_flash_ex.c ****  * @{
  71:E:/VisualStudioCode/STM32F1_HAL/Drivers/STM32F1xx_HAL_Driver/Src\stm32f1xx_hal_flash_ex.c ****  */
  72:E:/VisualStudioCode/STM32F1_HAL/Drivers/STM32F1xx_HAL_Driver/Src\stm32f1xx_hal_flash_ex.c **** /* Variables used for Erase pages under interruption*/
  73:E:/VisualStudioCode/STM32F1_HAL/Drivers/STM32F1xx_HAL_Driver/Src\stm32f1xx_hal_flash_ex.c **** extern FLASH_ProcessTypeDef pFlash;
  74:E:/VisualStudioCode/STM32F1_HAL/Drivers/STM32F1xx_HAL_Driver/Src\stm32f1xx_hal_flash_ex.c **** /**
  75:E:/VisualStudioCode/STM32F1_HAL/Drivers/STM32F1xx_HAL_Driver/Src\stm32f1xx_hal_flash_ex.c ****   * @}
  76:E:/VisualStudioCode/STM32F1_HAL/Drivers/STM32F1xx_HAL_Driver/Src\stm32f1xx_hal_flash_ex.c ****   */
  77:E:/VisualStudioCode/STM32F1_HAL/Drivers/STM32F1xx_HAL_Driver/Src\stm32f1xx_hal_flash_ex.c **** 
  78:E:/VisualStudioCode/STM32F1_HAL/Drivers/STM32F1xx_HAL_Driver/Src\stm32f1xx_hal_flash_ex.c **** /**
  79:E:/VisualStudioCode/STM32F1_HAL/Drivers/STM32F1xx_HAL_Driver/Src\stm32f1xx_hal_flash_ex.c ****   * @}
  80:E:/VisualStudioCode/STM32F1_HAL/Drivers/STM32F1xx_HAL_Driver/Src\stm32f1xx_hal_flash_ex.c ****   */
  81:E:/VisualStudioCode/STM32F1_HAL/Drivers/STM32F1xx_HAL_Driver/Src\stm32f1xx_hal_flash_ex.c ****   
  82:E:/VisualStudioCode/STM32F1_HAL/Drivers/STM32F1xx_HAL_Driver/Src\stm32f1xx_hal_flash_ex.c **** /** @defgroup FLASHEx FLASHEx
  83:E:/VisualStudioCode/STM32F1_HAL/Drivers/STM32F1xx_HAL_Driver/Src\stm32f1xx_hal_flash_ex.c ****   * @brief FLASH HAL Extension module driver
  84:E:/VisualStudioCode/STM32F1_HAL/Drivers/STM32F1xx_HAL_Driver/Src\stm32f1xx_hal_flash_ex.c ****   * @{
  85:E:/VisualStudioCode/STM32F1_HAL/Drivers/STM32F1xx_HAL_Driver/Src\stm32f1xx_hal_flash_ex.c ****   */
  86:E:/VisualStudioCode/STM32F1_HAL/Drivers/STM32F1xx_HAL_Driver/Src\stm32f1xx_hal_flash_ex.c **** 
  87:E:/VisualStudioCode/STM32F1_HAL/Drivers/STM32F1xx_HAL_Driver/Src\stm32f1xx_hal_flash_ex.c **** /* Private typedef -----------------------------------------------------------*/
  88:E:/VisualStudioCode/STM32F1_HAL/Drivers/STM32F1xx_HAL_Driver/Src\stm32f1xx_hal_flash_ex.c **** /* Private define ------------------------------------------------------------*/
  89:E:/VisualStudioCode/STM32F1_HAL/Drivers/STM32F1xx_HAL_Driver/Src\stm32f1xx_hal_flash_ex.c **** /** @defgroup FLASHEx_Private_Constants FLASHEx Private Constants
  90:E:/VisualStudioCode/STM32F1_HAL/Drivers/STM32F1xx_HAL_Driver/Src\stm32f1xx_hal_flash_ex.c ****  * @{
ARM GAS  C:\Users\ADMINI~1\AppData\Local\Temp\ccRfmGKA.s 			page 3


  91:E:/VisualStudioCode/STM32F1_HAL/Drivers/STM32F1xx_HAL_Driver/Src\stm32f1xx_hal_flash_ex.c ****  */
  92:E:/VisualStudioCode/STM32F1_HAL/Drivers/STM32F1xx_HAL_Driver/Src\stm32f1xx_hal_flash_ex.c **** #define FLASH_POSITION_IWDGSW_BIT        FLASH_OBR_IWDG_SW_Pos
  93:E:/VisualStudioCode/STM32F1_HAL/Drivers/STM32F1xx_HAL_Driver/Src\stm32f1xx_hal_flash_ex.c **** #define FLASH_POSITION_OB_USERDATA0_BIT  FLASH_OBR_DATA0_Pos
  94:E:/VisualStudioCode/STM32F1_HAL/Drivers/STM32F1xx_HAL_Driver/Src\stm32f1xx_hal_flash_ex.c **** #define FLASH_POSITION_OB_USERDATA1_BIT  FLASH_OBR_DATA1_Pos
  95:E:/VisualStudioCode/STM32F1_HAL/Drivers/STM32F1xx_HAL_Driver/Src\stm32f1xx_hal_flash_ex.c **** /**
  96:E:/VisualStudioCode/STM32F1_HAL/Drivers/STM32F1xx_HAL_Driver/Src\stm32f1xx_hal_flash_ex.c ****   * @}
  97:E:/VisualStudioCode/STM32F1_HAL/Drivers/STM32F1xx_HAL_Driver/Src\stm32f1xx_hal_flash_ex.c ****   */
  98:E:/VisualStudioCode/STM32F1_HAL/Drivers/STM32F1xx_HAL_Driver/Src\stm32f1xx_hal_flash_ex.c **** 
  99:E:/VisualStudioCode/STM32F1_HAL/Drivers/STM32F1xx_HAL_Driver/Src\stm32f1xx_hal_flash_ex.c **** /* Private macro -------------------------------------------------------------*/
 100:E:/VisualStudioCode/STM32F1_HAL/Drivers/STM32F1xx_HAL_Driver/Src\stm32f1xx_hal_flash_ex.c **** /** @defgroup FLASHEx_Private_Macros FLASHEx Private Macros
 101:E:/VisualStudioCode/STM32F1_HAL/Drivers/STM32F1xx_HAL_Driver/Src\stm32f1xx_hal_flash_ex.c ****   * @{
 102:E:/VisualStudioCode/STM32F1_HAL/Drivers/STM32F1xx_HAL_Driver/Src\stm32f1xx_hal_flash_ex.c ****   */
 103:E:/VisualStudioCode/STM32F1_HAL/Drivers/STM32F1xx_HAL_Driver/Src\stm32f1xx_hal_flash_ex.c **** /**
 104:E:/VisualStudioCode/STM32F1_HAL/Drivers/STM32F1xx_HAL_Driver/Src\stm32f1xx_hal_flash_ex.c ****   * @}
 105:E:/VisualStudioCode/STM32F1_HAL/Drivers/STM32F1xx_HAL_Driver/Src\stm32f1xx_hal_flash_ex.c ****   */ 
 106:E:/VisualStudioCode/STM32F1_HAL/Drivers/STM32F1xx_HAL_Driver/Src\stm32f1xx_hal_flash_ex.c **** 
 107:E:/VisualStudioCode/STM32F1_HAL/Drivers/STM32F1xx_HAL_Driver/Src\stm32f1xx_hal_flash_ex.c **** /* Private variables ---------------------------------------------------------*/
 108:E:/VisualStudioCode/STM32F1_HAL/Drivers/STM32F1xx_HAL_Driver/Src\stm32f1xx_hal_flash_ex.c **** /* Private function prototypes -----------------------------------------------*/
 109:E:/VisualStudioCode/STM32F1_HAL/Drivers/STM32F1xx_HAL_Driver/Src\stm32f1xx_hal_flash_ex.c **** /** @defgroup FLASHEx_Private_Functions FLASHEx Private Functions
 110:E:/VisualStudioCode/STM32F1_HAL/Drivers/STM32F1xx_HAL_Driver/Src\stm32f1xx_hal_flash_ex.c ****  * @{
 111:E:/VisualStudioCode/STM32F1_HAL/Drivers/STM32F1xx_HAL_Driver/Src\stm32f1xx_hal_flash_ex.c ****  */
 112:E:/VisualStudioCode/STM32F1_HAL/Drivers/STM32F1xx_HAL_Driver/Src\stm32f1xx_hal_flash_ex.c **** /* Erase operations */
 113:E:/VisualStudioCode/STM32F1_HAL/Drivers/STM32F1xx_HAL_Driver/Src\stm32f1xx_hal_flash_ex.c **** static void              FLASH_MassErase(uint32_t Banks);
 114:E:/VisualStudioCode/STM32F1_HAL/Drivers/STM32F1xx_HAL_Driver/Src\stm32f1xx_hal_flash_ex.c **** void    FLASH_PageErase(uint32_t PageAddress);
 115:E:/VisualStudioCode/STM32F1_HAL/Drivers/STM32F1xx_HAL_Driver/Src\stm32f1xx_hal_flash_ex.c **** 
 116:E:/VisualStudioCode/STM32F1_HAL/Drivers/STM32F1xx_HAL_Driver/Src\stm32f1xx_hal_flash_ex.c **** /* Option bytes control */
 117:E:/VisualStudioCode/STM32F1_HAL/Drivers/STM32F1xx_HAL_Driver/Src\stm32f1xx_hal_flash_ex.c **** static HAL_StatusTypeDef FLASH_OB_EnableWRP(uint32_t WriteProtectPage);
 118:E:/VisualStudioCode/STM32F1_HAL/Drivers/STM32F1xx_HAL_Driver/Src\stm32f1xx_hal_flash_ex.c **** static HAL_StatusTypeDef FLASH_OB_DisableWRP(uint32_t WriteProtectPage);
 119:E:/VisualStudioCode/STM32F1_HAL/Drivers/STM32F1xx_HAL_Driver/Src\stm32f1xx_hal_flash_ex.c **** static HAL_StatusTypeDef FLASH_OB_RDP_LevelConfig(uint8_t ReadProtectLevel);
 120:E:/VisualStudioCode/STM32F1_HAL/Drivers/STM32F1xx_HAL_Driver/Src\stm32f1xx_hal_flash_ex.c **** static HAL_StatusTypeDef FLASH_OB_UserConfig(uint8_t UserConfig);
 121:E:/VisualStudioCode/STM32F1_HAL/Drivers/STM32F1xx_HAL_Driver/Src\stm32f1xx_hal_flash_ex.c **** static HAL_StatusTypeDef FLASH_OB_ProgramData(uint32_t Address, uint8_t Data);
 122:E:/VisualStudioCode/STM32F1_HAL/Drivers/STM32F1xx_HAL_Driver/Src\stm32f1xx_hal_flash_ex.c **** static uint32_t          FLASH_OB_GetWRP(void);
 123:E:/VisualStudioCode/STM32F1_HAL/Drivers/STM32F1xx_HAL_Driver/Src\stm32f1xx_hal_flash_ex.c **** static uint32_t          FLASH_OB_GetRDP(void);
 124:E:/VisualStudioCode/STM32F1_HAL/Drivers/STM32F1xx_HAL_Driver/Src\stm32f1xx_hal_flash_ex.c **** static uint8_t           FLASH_OB_GetUser(void);
 125:E:/VisualStudioCode/STM32F1_HAL/Drivers/STM32F1xx_HAL_Driver/Src\stm32f1xx_hal_flash_ex.c **** 
 126:E:/VisualStudioCode/STM32F1_HAL/Drivers/STM32F1xx_HAL_Driver/Src\stm32f1xx_hal_flash_ex.c **** /**
 127:E:/VisualStudioCode/STM32F1_HAL/Drivers/STM32F1xx_HAL_Driver/Src\stm32f1xx_hal_flash_ex.c ****   * @}
 128:E:/VisualStudioCode/STM32F1_HAL/Drivers/STM32F1xx_HAL_Driver/Src\stm32f1xx_hal_flash_ex.c ****   */
 129:E:/VisualStudioCode/STM32F1_HAL/Drivers/STM32F1xx_HAL_Driver/Src\stm32f1xx_hal_flash_ex.c **** 
 130:E:/VisualStudioCode/STM32F1_HAL/Drivers/STM32F1xx_HAL_Driver/Src\stm32f1xx_hal_flash_ex.c **** /* Exported functions ---------------------------------------------------------*/
 131:E:/VisualStudioCode/STM32F1_HAL/Drivers/STM32F1xx_HAL_Driver/Src\stm32f1xx_hal_flash_ex.c **** /** @defgroup FLASHEx_Exported_Functions FLASHEx Exported Functions
 132:E:/VisualStudioCode/STM32F1_HAL/Drivers/STM32F1xx_HAL_Driver/Src\stm32f1xx_hal_flash_ex.c ****   * @{
 133:E:/VisualStudioCode/STM32F1_HAL/Drivers/STM32F1xx_HAL_Driver/Src\stm32f1xx_hal_flash_ex.c ****   */
 134:E:/VisualStudioCode/STM32F1_HAL/Drivers/STM32F1xx_HAL_Driver/Src\stm32f1xx_hal_flash_ex.c ****   
 135:E:/VisualStudioCode/STM32F1_HAL/Drivers/STM32F1xx_HAL_Driver/Src\stm32f1xx_hal_flash_ex.c **** /** @defgroup FLASHEx_Exported_Functions_Group1 FLASHEx Memory Erasing functions
 136:E:/VisualStudioCode/STM32F1_HAL/Drivers/STM32F1xx_HAL_Driver/Src\stm32f1xx_hal_flash_ex.c ****  *  @brief   FLASH Memory Erasing functions
 137:E:/VisualStudioCode/STM32F1_HAL/Drivers/STM32F1xx_HAL_Driver/Src\stm32f1xx_hal_flash_ex.c ****   *
 138:E:/VisualStudioCode/STM32F1_HAL/Drivers/STM32F1xx_HAL_Driver/Src\stm32f1xx_hal_flash_ex.c **** @verbatim   
 139:E:/VisualStudioCode/STM32F1_HAL/Drivers/STM32F1xx_HAL_Driver/Src\stm32f1xx_hal_flash_ex.c ****   ==============================================================================
 140:E:/VisualStudioCode/STM32F1_HAL/Drivers/STM32F1xx_HAL_Driver/Src\stm32f1xx_hal_flash_ex.c ****                 ##### FLASH Erasing Programming functions ##### 
 141:E:/VisualStudioCode/STM32F1_HAL/Drivers/STM32F1xx_HAL_Driver/Src\stm32f1xx_hal_flash_ex.c ****   ==============================================================================
 142:E:/VisualStudioCode/STM32F1_HAL/Drivers/STM32F1xx_HAL_Driver/Src\stm32f1xx_hal_flash_ex.c **** 
 143:E:/VisualStudioCode/STM32F1_HAL/Drivers/STM32F1xx_HAL_Driver/Src\stm32f1xx_hal_flash_ex.c ****     [..] The FLASH Memory Erasing functions, includes the following functions:
 144:E:/VisualStudioCode/STM32F1_HAL/Drivers/STM32F1xx_HAL_Driver/Src\stm32f1xx_hal_flash_ex.c ****     (+) @ref HAL_FLASHEx_Erase: return only when erase has been done
 145:E:/VisualStudioCode/STM32F1_HAL/Drivers/STM32F1xx_HAL_Driver/Src\stm32f1xx_hal_flash_ex.c ****     (+) @ref HAL_FLASHEx_Erase_IT: end of erase is done when @ref HAL_FLASH_EndOfOperationCallback 
 146:E:/VisualStudioCode/STM32F1_HAL/Drivers/STM32F1xx_HAL_Driver/Src\stm32f1xx_hal_flash_ex.c ****         is called with parameter 0xFFFFFFFF
 147:E:/VisualStudioCode/STM32F1_HAL/Drivers/STM32F1xx_HAL_Driver/Src\stm32f1xx_hal_flash_ex.c **** 
ARM GAS  C:\Users\ADMINI~1\AppData\Local\Temp\ccRfmGKA.s 			page 4


 148:E:/VisualStudioCode/STM32F1_HAL/Drivers/STM32F1xx_HAL_Driver/Src\stm32f1xx_hal_flash_ex.c ****     [..] Any operation of erase should follow these steps:
 149:E:/VisualStudioCode/STM32F1_HAL/Drivers/STM32F1xx_HAL_Driver/Src\stm32f1xx_hal_flash_ex.c ****     (#) Call the @ref HAL_FLASH_Unlock() function to enable the flash control register and 
 150:E:/VisualStudioCode/STM32F1_HAL/Drivers/STM32F1xx_HAL_Driver/Src\stm32f1xx_hal_flash_ex.c ****         program memory access.
 151:E:/VisualStudioCode/STM32F1_HAL/Drivers/STM32F1xx_HAL_Driver/Src\stm32f1xx_hal_flash_ex.c ****     (#) Call the desired function to erase page.
 152:E:/VisualStudioCode/STM32F1_HAL/Drivers/STM32F1xx_HAL_Driver/Src\stm32f1xx_hal_flash_ex.c ****     (#) Call the @ref HAL_FLASH_Lock() to disable the flash program memory access 
 153:E:/VisualStudioCode/STM32F1_HAL/Drivers/STM32F1xx_HAL_Driver/Src\stm32f1xx_hal_flash_ex.c ****        (recommended to protect the FLASH memory against possible unwanted operation).
 154:E:/VisualStudioCode/STM32F1_HAL/Drivers/STM32F1xx_HAL_Driver/Src\stm32f1xx_hal_flash_ex.c **** 
 155:E:/VisualStudioCode/STM32F1_HAL/Drivers/STM32F1xx_HAL_Driver/Src\stm32f1xx_hal_flash_ex.c **** @endverbatim
 156:E:/VisualStudioCode/STM32F1_HAL/Drivers/STM32F1xx_HAL_Driver/Src\stm32f1xx_hal_flash_ex.c ****   * @{
 157:E:/VisualStudioCode/STM32F1_HAL/Drivers/STM32F1xx_HAL_Driver/Src\stm32f1xx_hal_flash_ex.c ****   */
 158:E:/VisualStudioCode/STM32F1_HAL/Drivers/STM32F1xx_HAL_Driver/Src\stm32f1xx_hal_flash_ex.c ****   
 159:E:/VisualStudioCode/STM32F1_HAL/Drivers/STM32F1xx_HAL_Driver/Src\stm32f1xx_hal_flash_ex.c **** 
 160:E:/VisualStudioCode/STM32F1_HAL/Drivers/STM32F1xx_HAL_Driver/Src\stm32f1xx_hal_flash_ex.c **** /**
 161:E:/VisualStudioCode/STM32F1_HAL/Drivers/STM32F1xx_HAL_Driver/Src\stm32f1xx_hal_flash_ex.c ****   * @brief  Perform a mass erase or erase the specified FLASH memory pages
 162:E:/VisualStudioCode/STM32F1_HAL/Drivers/STM32F1xx_HAL_Driver/Src\stm32f1xx_hal_flash_ex.c ****   * @note   To correctly run this function, the @ref HAL_FLASH_Unlock() function
 163:E:/VisualStudioCode/STM32F1_HAL/Drivers/STM32F1xx_HAL_Driver/Src\stm32f1xx_hal_flash_ex.c ****   *         must be called before.
 164:E:/VisualStudioCode/STM32F1_HAL/Drivers/STM32F1xx_HAL_Driver/Src\stm32f1xx_hal_flash_ex.c ****   *         Call the @ref HAL_FLASH_Lock() to disable the flash memory access 
 165:E:/VisualStudioCode/STM32F1_HAL/Drivers/STM32F1xx_HAL_Driver/Src\stm32f1xx_hal_flash_ex.c ****   *         (recommended to protect the FLASH memory against possible unwanted operation)
 166:E:/VisualStudioCode/STM32F1_HAL/Drivers/STM32F1xx_HAL_Driver/Src\stm32f1xx_hal_flash_ex.c ****   * @param[in]  pEraseInit pointer to an FLASH_EraseInitTypeDef structure that
 167:E:/VisualStudioCode/STM32F1_HAL/Drivers/STM32F1xx_HAL_Driver/Src\stm32f1xx_hal_flash_ex.c ****   *         contains the configuration information for the erasing.
 168:E:/VisualStudioCode/STM32F1_HAL/Drivers/STM32F1xx_HAL_Driver/Src\stm32f1xx_hal_flash_ex.c ****   *
 169:E:/VisualStudioCode/STM32F1_HAL/Drivers/STM32F1xx_HAL_Driver/Src\stm32f1xx_hal_flash_ex.c ****   * @param[out]  PageError pointer to variable  that
 170:E:/VisualStudioCode/STM32F1_HAL/Drivers/STM32F1xx_HAL_Driver/Src\stm32f1xx_hal_flash_ex.c ****   *         contains the configuration information on faulty page in case of error
 171:E:/VisualStudioCode/STM32F1_HAL/Drivers/STM32F1xx_HAL_Driver/Src\stm32f1xx_hal_flash_ex.c ****   *         (0xFFFFFFFF means that all the pages have been correctly erased)
 172:E:/VisualStudioCode/STM32F1_HAL/Drivers/STM32F1xx_HAL_Driver/Src\stm32f1xx_hal_flash_ex.c ****   *
 173:E:/VisualStudioCode/STM32F1_HAL/Drivers/STM32F1xx_HAL_Driver/Src\stm32f1xx_hal_flash_ex.c ****   * @retval HAL_StatusTypeDef HAL Status
 174:E:/VisualStudioCode/STM32F1_HAL/Drivers/STM32F1xx_HAL_Driver/Src\stm32f1xx_hal_flash_ex.c ****   */
 175:E:/VisualStudioCode/STM32F1_HAL/Drivers/STM32F1xx_HAL_Driver/Src\stm32f1xx_hal_flash_ex.c **** HAL_StatusTypeDef HAL_FLASHEx_Erase(FLASH_EraseInitTypeDef *pEraseInit, uint32_t *PageError)
 176:E:/VisualStudioCode/STM32F1_HAL/Drivers/STM32F1xx_HAL_Driver/Src\stm32f1xx_hal_flash_ex.c **** {
 177:E:/VisualStudioCode/STM32F1_HAL/Drivers/STM32F1xx_HAL_Driver/Src\stm32f1xx_hal_flash_ex.c ****   HAL_StatusTypeDef status = HAL_ERROR;
 178:E:/VisualStudioCode/STM32F1_HAL/Drivers/STM32F1xx_HAL_Driver/Src\stm32f1xx_hal_flash_ex.c ****   uint32_t address = 0U;
 179:E:/VisualStudioCode/STM32F1_HAL/Drivers/STM32F1xx_HAL_Driver/Src\stm32f1xx_hal_flash_ex.c **** 
 180:E:/VisualStudioCode/STM32F1_HAL/Drivers/STM32F1xx_HAL_Driver/Src\stm32f1xx_hal_flash_ex.c ****   /* Process Locked */
 181:E:/VisualStudioCode/STM32F1_HAL/Drivers/STM32F1xx_HAL_Driver/Src\stm32f1xx_hal_flash_ex.c ****   __HAL_LOCK(&pFlash);
 182:E:/VisualStudioCode/STM32F1_HAL/Drivers/STM32F1xx_HAL_Driver/Src\stm32f1xx_hal_flash_ex.c **** 
 183:E:/VisualStudioCode/STM32F1_HAL/Drivers/STM32F1xx_HAL_Driver/Src\stm32f1xx_hal_flash_ex.c ****   /* Check the parameters */
 184:E:/VisualStudioCode/STM32F1_HAL/Drivers/STM32F1xx_HAL_Driver/Src\stm32f1xx_hal_flash_ex.c ****   assert_param(IS_FLASH_TYPEERASE(pEraseInit->TypeErase));
 185:E:/VisualStudioCode/STM32F1_HAL/Drivers/STM32F1xx_HAL_Driver/Src\stm32f1xx_hal_flash_ex.c **** 
 186:E:/VisualStudioCode/STM32F1_HAL/Drivers/STM32F1xx_HAL_Driver/Src\stm32f1xx_hal_flash_ex.c ****   if (pEraseInit->TypeErase == FLASH_TYPEERASE_MASSERASE)
 187:E:/VisualStudioCode/STM32F1_HAL/Drivers/STM32F1xx_HAL_Driver/Src\stm32f1xx_hal_flash_ex.c ****   {
 188:E:/VisualStudioCode/STM32F1_HAL/Drivers/STM32F1xx_HAL_Driver/Src\stm32f1xx_hal_flash_ex.c **** #if defined(FLASH_BANK2_END)
 189:E:/VisualStudioCode/STM32F1_HAL/Drivers/STM32F1xx_HAL_Driver/Src\stm32f1xx_hal_flash_ex.c ****     if (pEraseInit->Banks == FLASH_BANK_BOTH)
 190:E:/VisualStudioCode/STM32F1_HAL/Drivers/STM32F1xx_HAL_Driver/Src\stm32f1xx_hal_flash_ex.c ****     {
 191:E:/VisualStudioCode/STM32F1_HAL/Drivers/STM32F1xx_HAL_Driver/Src\stm32f1xx_hal_flash_ex.c ****       /* Mass Erase requested for Bank1 and Bank2 */
 192:E:/VisualStudioCode/STM32F1_HAL/Drivers/STM32F1xx_HAL_Driver/Src\stm32f1xx_hal_flash_ex.c ****       /* Wait for last operation to be completed */
 193:E:/VisualStudioCode/STM32F1_HAL/Drivers/STM32F1xx_HAL_Driver/Src\stm32f1xx_hal_flash_ex.c ****       if ((FLASH_WaitForLastOperation((uint32_t)FLASH_TIMEOUT_VALUE) == HAL_OK) && \
 194:E:/VisualStudioCode/STM32F1_HAL/Drivers/STM32F1xx_HAL_Driver/Src\stm32f1xx_hal_flash_ex.c ****           (FLASH_WaitForLastOperationBank2((uint32_t)FLASH_TIMEOUT_VALUE) == HAL_OK))
 195:E:/VisualStudioCode/STM32F1_HAL/Drivers/STM32F1xx_HAL_Driver/Src\stm32f1xx_hal_flash_ex.c ****       {
 196:E:/VisualStudioCode/STM32F1_HAL/Drivers/STM32F1xx_HAL_Driver/Src\stm32f1xx_hal_flash_ex.c ****         /*Mass erase to be done*/
 197:E:/VisualStudioCode/STM32F1_HAL/Drivers/STM32F1xx_HAL_Driver/Src\stm32f1xx_hal_flash_ex.c ****         FLASH_MassErase(FLASH_BANK_BOTH);
 198:E:/VisualStudioCode/STM32F1_HAL/Drivers/STM32F1xx_HAL_Driver/Src\stm32f1xx_hal_flash_ex.c ****         
 199:E:/VisualStudioCode/STM32F1_HAL/Drivers/STM32F1xx_HAL_Driver/Src\stm32f1xx_hal_flash_ex.c ****         /* Wait for last operation to be completed */
 200:E:/VisualStudioCode/STM32F1_HAL/Drivers/STM32F1xx_HAL_Driver/Src\stm32f1xx_hal_flash_ex.c ****         if ((FLASH_WaitForLastOperation((uint32_t)FLASH_TIMEOUT_VALUE) == HAL_OK) && \
 201:E:/VisualStudioCode/STM32F1_HAL/Drivers/STM32F1xx_HAL_Driver/Src\stm32f1xx_hal_flash_ex.c ****             (FLASH_WaitForLastOperationBank2((uint32_t)FLASH_TIMEOUT_VALUE) == HAL_OK))
 202:E:/VisualStudioCode/STM32F1_HAL/Drivers/STM32F1xx_HAL_Driver/Src\stm32f1xx_hal_flash_ex.c ****         {
 203:E:/VisualStudioCode/STM32F1_HAL/Drivers/STM32F1xx_HAL_Driver/Src\stm32f1xx_hal_flash_ex.c ****           status = HAL_OK;
 204:E:/VisualStudioCode/STM32F1_HAL/Drivers/STM32F1xx_HAL_Driver/Src\stm32f1xx_hal_flash_ex.c ****         }
ARM GAS  C:\Users\ADMINI~1\AppData\Local\Temp\ccRfmGKA.s 			page 5


 205:E:/VisualStudioCode/STM32F1_HAL/Drivers/STM32F1xx_HAL_Driver/Src\stm32f1xx_hal_flash_ex.c ****         
 206:E:/VisualStudioCode/STM32F1_HAL/Drivers/STM32F1xx_HAL_Driver/Src\stm32f1xx_hal_flash_ex.c ****         /* If the erase operation is completed, disable the MER Bit */
 207:E:/VisualStudioCode/STM32F1_HAL/Drivers/STM32F1xx_HAL_Driver/Src\stm32f1xx_hal_flash_ex.c ****         CLEAR_BIT(FLASH->CR, FLASH_CR_MER);
 208:E:/VisualStudioCode/STM32F1_HAL/Drivers/STM32F1xx_HAL_Driver/Src\stm32f1xx_hal_flash_ex.c ****         CLEAR_BIT(FLASH->CR2, FLASH_CR2_MER);
 209:E:/VisualStudioCode/STM32F1_HAL/Drivers/STM32F1xx_HAL_Driver/Src\stm32f1xx_hal_flash_ex.c ****       }
 210:E:/VisualStudioCode/STM32F1_HAL/Drivers/STM32F1xx_HAL_Driver/Src\stm32f1xx_hal_flash_ex.c ****     }
 211:E:/VisualStudioCode/STM32F1_HAL/Drivers/STM32F1xx_HAL_Driver/Src\stm32f1xx_hal_flash_ex.c ****     else if (pEraseInit->Banks == FLASH_BANK_2)
 212:E:/VisualStudioCode/STM32F1_HAL/Drivers/STM32F1xx_HAL_Driver/Src\stm32f1xx_hal_flash_ex.c ****     {
 213:E:/VisualStudioCode/STM32F1_HAL/Drivers/STM32F1xx_HAL_Driver/Src\stm32f1xx_hal_flash_ex.c ****       /* Mass Erase requested for Bank2 */
 214:E:/VisualStudioCode/STM32F1_HAL/Drivers/STM32F1xx_HAL_Driver/Src\stm32f1xx_hal_flash_ex.c ****       /* Wait for last operation to be completed */
 215:E:/VisualStudioCode/STM32F1_HAL/Drivers/STM32F1xx_HAL_Driver/Src\stm32f1xx_hal_flash_ex.c ****       if (FLASH_WaitForLastOperationBank2((uint32_t)FLASH_TIMEOUT_VALUE) == HAL_OK)
 216:E:/VisualStudioCode/STM32F1_HAL/Drivers/STM32F1xx_HAL_Driver/Src\stm32f1xx_hal_flash_ex.c ****       {
 217:E:/VisualStudioCode/STM32F1_HAL/Drivers/STM32F1xx_HAL_Driver/Src\stm32f1xx_hal_flash_ex.c ****         /*Mass erase to be done*/
 218:E:/VisualStudioCode/STM32F1_HAL/Drivers/STM32F1xx_HAL_Driver/Src\stm32f1xx_hal_flash_ex.c ****         FLASH_MassErase(FLASH_BANK_2);
 219:E:/VisualStudioCode/STM32F1_HAL/Drivers/STM32F1xx_HAL_Driver/Src\stm32f1xx_hal_flash_ex.c ****         
 220:E:/VisualStudioCode/STM32F1_HAL/Drivers/STM32F1xx_HAL_Driver/Src\stm32f1xx_hal_flash_ex.c ****         /* Wait for last operation to be completed */
 221:E:/VisualStudioCode/STM32F1_HAL/Drivers/STM32F1xx_HAL_Driver/Src\stm32f1xx_hal_flash_ex.c ****         status = FLASH_WaitForLastOperationBank2((uint32_t)FLASH_TIMEOUT_VALUE);
 222:E:/VisualStudioCode/STM32F1_HAL/Drivers/STM32F1xx_HAL_Driver/Src\stm32f1xx_hal_flash_ex.c ****         
 223:E:/VisualStudioCode/STM32F1_HAL/Drivers/STM32F1xx_HAL_Driver/Src\stm32f1xx_hal_flash_ex.c ****         /* If the erase operation is completed, disable the MER Bit */
 224:E:/VisualStudioCode/STM32F1_HAL/Drivers/STM32F1xx_HAL_Driver/Src\stm32f1xx_hal_flash_ex.c ****         CLEAR_BIT(FLASH->CR2, FLASH_CR2_MER);
 225:E:/VisualStudioCode/STM32F1_HAL/Drivers/STM32F1xx_HAL_Driver/Src\stm32f1xx_hal_flash_ex.c ****       }
 226:E:/VisualStudioCode/STM32F1_HAL/Drivers/STM32F1xx_HAL_Driver/Src\stm32f1xx_hal_flash_ex.c ****     }
 227:E:/VisualStudioCode/STM32F1_HAL/Drivers/STM32F1xx_HAL_Driver/Src\stm32f1xx_hal_flash_ex.c ****     else 
 228:E:/VisualStudioCode/STM32F1_HAL/Drivers/STM32F1xx_HAL_Driver/Src\stm32f1xx_hal_flash_ex.c **** #endif /* FLASH_BANK2_END */
 229:E:/VisualStudioCode/STM32F1_HAL/Drivers/STM32F1xx_HAL_Driver/Src\stm32f1xx_hal_flash_ex.c ****     {
 230:E:/VisualStudioCode/STM32F1_HAL/Drivers/STM32F1xx_HAL_Driver/Src\stm32f1xx_hal_flash_ex.c ****       /* Mass Erase requested for Bank1 */
 231:E:/VisualStudioCode/STM32F1_HAL/Drivers/STM32F1xx_HAL_Driver/Src\stm32f1xx_hal_flash_ex.c ****       /* Wait for last operation to be completed */
 232:E:/VisualStudioCode/STM32F1_HAL/Drivers/STM32F1xx_HAL_Driver/Src\stm32f1xx_hal_flash_ex.c ****       if (FLASH_WaitForLastOperation((uint32_t)FLASH_TIMEOUT_VALUE) == HAL_OK)
 233:E:/VisualStudioCode/STM32F1_HAL/Drivers/STM32F1xx_HAL_Driver/Src\stm32f1xx_hal_flash_ex.c ****       {
 234:E:/VisualStudioCode/STM32F1_HAL/Drivers/STM32F1xx_HAL_Driver/Src\stm32f1xx_hal_flash_ex.c ****         /*Mass erase to be done*/
 235:E:/VisualStudioCode/STM32F1_HAL/Drivers/STM32F1xx_HAL_Driver/Src\stm32f1xx_hal_flash_ex.c ****         FLASH_MassErase(FLASH_BANK_1);
 236:E:/VisualStudioCode/STM32F1_HAL/Drivers/STM32F1xx_HAL_Driver/Src\stm32f1xx_hal_flash_ex.c ****         
 237:E:/VisualStudioCode/STM32F1_HAL/Drivers/STM32F1xx_HAL_Driver/Src\stm32f1xx_hal_flash_ex.c ****         /* Wait for last operation to be completed */
 238:E:/VisualStudioCode/STM32F1_HAL/Drivers/STM32F1xx_HAL_Driver/Src\stm32f1xx_hal_flash_ex.c ****         status = FLASH_WaitForLastOperation((uint32_t)FLASH_TIMEOUT_VALUE);
 239:E:/VisualStudioCode/STM32F1_HAL/Drivers/STM32F1xx_HAL_Driver/Src\stm32f1xx_hal_flash_ex.c ****         
 240:E:/VisualStudioCode/STM32F1_HAL/Drivers/STM32F1xx_HAL_Driver/Src\stm32f1xx_hal_flash_ex.c ****         /* If the erase operation is completed, disable the MER Bit */
 241:E:/VisualStudioCode/STM32F1_HAL/Drivers/STM32F1xx_HAL_Driver/Src\stm32f1xx_hal_flash_ex.c ****         CLEAR_BIT(FLASH->CR, FLASH_CR_MER);
 242:E:/VisualStudioCode/STM32F1_HAL/Drivers/STM32F1xx_HAL_Driver/Src\stm32f1xx_hal_flash_ex.c ****       }
 243:E:/VisualStudioCode/STM32F1_HAL/Drivers/STM32F1xx_HAL_Driver/Src\stm32f1xx_hal_flash_ex.c ****     }
 244:E:/VisualStudioCode/STM32F1_HAL/Drivers/STM32F1xx_HAL_Driver/Src\stm32f1xx_hal_flash_ex.c ****   }
 245:E:/VisualStudioCode/STM32F1_HAL/Drivers/STM32F1xx_HAL_Driver/Src\stm32f1xx_hal_flash_ex.c ****   else
 246:E:/VisualStudioCode/STM32F1_HAL/Drivers/STM32F1xx_HAL_Driver/Src\stm32f1xx_hal_flash_ex.c ****   {
 247:E:/VisualStudioCode/STM32F1_HAL/Drivers/STM32F1xx_HAL_Driver/Src\stm32f1xx_hal_flash_ex.c ****     /* Page Erase is requested */
 248:E:/VisualStudioCode/STM32F1_HAL/Drivers/STM32F1xx_HAL_Driver/Src\stm32f1xx_hal_flash_ex.c ****     /* Check the parameters */
 249:E:/VisualStudioCode/STM32F1_HAL/Drivers/STM32F1xx_HAL_Driver/Src\stm32f1xx_hal_flash_ex.c ****     assert_param(IS_FLASH_PROGRAM_ADDRESS(pEraseInit->PageAddress));
 250:E:/VisualStudioCode/STM32F1_HAL/Drivers/STM32F1xx_HAL_Driver/Src\stm32f1xx_hal_flash_ex.c ****     assert_param(IS_FLASH_NB_PAGES(pEraseInit->PageAddress, pEraseInit->NbPages));
 251:E:/VisualStudioCode/STM32F1_HAL/Drivers/STM32F1xx_HAL_Driver/Src\stm32f1xx_hal_flash_ex.c ****     
 252:E:/VisualStudioCode/STM32F1_HAL/Drivers/STM32F1xx_HAL_Driver/Src\stm32f1xx_hal_flash_ex.c **** #if defined(FLASH_BANK2_END)
 253:E:/VisualStudioCode/STM32F1_HAL/Drivers/STM32F1xx_HAL_Driver/Src\stm32f1xx_hal_flash_ex.c ****     /* Page Erase requested on address located on bank2 */
 254:E:/VisualStudioCode/STM32F1_HAL/Drivers/STM32F1xx_HAL_Driver/Src\stm32f1xx_hal_flash_ex.c ****     if(pEraseInit->PageAddress > FLASH_BANK1_END)
 255:E:/VisualStudioCode/STM32F1_HAL/Drivers/STM32F1xx_HAL_Driver/Src\stm32f1xx_hal_flash_ex.c ****     {   
 256:E:/VisualStudioCode/STM32F1_HAL/Drivers/STM32F1xx_HAL_Driver/Src\stm32f1xx_hal_flash_ex.c ****       /* Wait for last operation to be completed */
 257:E:/VisualStudioCode/STM32F1_HAL/Drivers/STM32F1xx_HAL_Driver/Src\stm32f1xx_hal_flash_ex.c ****       if (FLASH_WaitForLastOperationBank2((uint32_t)FLASH_TIMEOUT_VALUE) == HAL_OK)
 258:E:/VisualStudioCode/STM32F1_HAL/Drivers/STM32F1xx_HAL_Driver/Src\stm32f1xx_hal_flash_ex.c ****       {
 259:E:/VisualStudioCode/STM32F1_HAL/Drivers/STM32F1xx_HAL_Driver/Src\stm32f1xx_hal_flash_ex.c ****         /*Initialization of PageError variable*/
 260:E:/VisualStudioCode/STM32F1_HAL/Drivers/STM32F1xx_HAL_Driver/Src\stm32f1xx_hal_flash_ex.c ****         *PageError = 0xFFFFFFFFU;
 261:E:/VisualStudioCode/STM32F1_HAL/Drivers/STM32F1xx_HAL_Driver/Src\stm32f1xx_hal_flash_ex.c ****         
ARM GAS  C:\Users\ADMINI~1\AppData\Local\Temp\ccRfmGKA.s 			page 6


 262:E:/VisualStudioCode/STM32F1_HAL/Drivers/STM32F1xx_HAL_Driver/Src\stm32f1xx_hal_flash_ex.c ****         /* Erase by page by page to be done*/
 263:E:/VisualStudioCode/STM32F1_HAL/Drivers/STM32F1xx_HAL_Driver/Src\stm32f1xx_hal_flash_ex.c ****         for(address = pEraseInit->PageAddress;
 264:E:/VisualStudioCode/STM32F1_HAL/Drivers/STM32F1xx_HAL_Driver/Src\stm32f1xx_hal_flash_ex.c ****             address < (pEraseInit->PageAddress + (pEraseInit->NbPages)*FLASH_PAGE_SIZE);
 265:E:/VisualStudioCode/STM32F1_HAL/Drivers/STM32F1xx_HAL_Driver/Src\stm32f1xx_hal_flash_ex.c ****             address += FLASH_PAGE_SIZE)
 266:E:/VisualStudioCode/STM32F1_HAL/Drivers/STM32F1xx_HAL_Driver/Src\stm32f1xx_hal_flash_ex.c ****         {
 267:E:/VisualStudioCode/STM32F1_HAL/Drivers/STM32F1xx_HAL_Driver/Src\stm32f1xx_hal_flash_ex.c ****           FLASH_PageErase(address);
 268:E:/VisualStudioCode/STM32F1_HAL/Drivers/STM32F1xx_HAL_Driver/Src\stm32f1xx_hal_flash_ex.c ****           
 269:E:/VisualStudioCode/STM32F1_HAL/Drivers/STM32F1xx_HAL_Driver/Src\stm32f1xx_hal_flash_ex.c ****           /* Wait for last operation to be completed */
 270:E:/VisualStudioCode/STM32F1_HAL/Drivers/STM32F1xx_HAL_Driver/Src\stm32f1xx_hal_flash_ex.c ****           status = FLASH_WaitForLastOperationBank2((uint32_t)FLASH_TIMEOUT_VALUE);
 271:E:/VisualStudioCode/STM32F1_HAL/Drivers/STM32F1xx_HAL_Driver/Src\stm32f1xx_hal_flash_ex.c ****           
 272:E:/VisualStudioCode/STM32F1_HAL/Drivers/STM32F1xx_HAL_Driver/Src\stm32f1xx_hal_flash_ex.c ****           /* If the erase operation is completed, disable the PER Bit */
 273:E:/VisualStudioCode/STM32F1_HAL/Drivers/STM32F1xx_HAL_Driver/Src\stm32f1xx_hal_flash_ex.c ****           CLEAR_BIT(FLASH->CR2, FLASH_CR2_PER);
 274:E:/VisualStudioCode/STM32F1_HAL/Drivers/STM32F1xx_HAL_Driver/Src\stm32f1xx_hal_flash_ex.c ****           
 275:E:/VisualStudioCode/STM32F1_HAL/Drivers/STM32F1xx_HAL_Driver/Src\stm32f1xx_hal_flash_ex.c ****           if (status != HAL_OK)
 276:E:/VisualStudioCode/STM32F1_HAL/Drivers/STM32F1xx_HAL_Driver/Src\stm32f1xx_hal_flash_ex.c ****           {
 277:E:/VisualStudioCode/STM32F1_HAL/Drivers/STM32F1xx_HAL_Driver/Src\stm32f1xx_hal_flash_ex.c ****             /* In case of error, stop erase procedure and return the faulty address */
 278:E:/VisualStudioCode/STM32F1_HAL/Drivers/STM32F1xx_HAL_Driver/Src\stm32f1xx_hal_flash_ex.c ****             *PageError = address;
 279:E:/VisualStudioCode/STM32F1_HAL/Drivers/STM32F1xx_HAL_Driver/Src\stm32f1xx_hal_flash_ex.c ****             break;
 280:E:/VisualStudioCode/STM32F1_HAL/Drivers/STM32F1xx_HAL_Driver/Src\stm32f1xx_hal_flash_ex.c ****           }
 281:E:/VisualStudioCode/STM32F1_HAL/Drivers/STM32F1xx_HAL_Driver/Src\stm32f1xx_hal_flash_ex.c ****         }
 282:E:/VisualStudioCode/STM32F1_HAL/Drivers/STM32F1xx_HAL_Driver/Src\stm32f1xx_hal_flash_ex.c ****       }
 283:E:/VisualStudioCode/STM32F1_HAL/Drivers/STM32F1xx_HAL_Driver/Src\stm32f1xx_hal_flash_ex.c ****     }
 284:E:/VisualStudioCode/STM32F1_HAL/Drivers/STM32F1xx_HAL_Driver/Src\stm32f1xx_hal_flash_ex.c ****     else
 285:E:/VisualStudioCode/STM32F1_HAL/Drivers/STM32F1xx_HAL_Driver/Src\stm32f1xx_hal_flash_ex.c **** #endif /* FLASH_BANK2_END */
 286:E:/VisualStudioCode/STM32F1_HAL/Drivers/STM32F1xx_HAL_Driver/Src\stm32f1xx_hal_flash_ex.c ****    {
 287:E:/VisualStudioCode/STM32F1_HAL/Drivers/STM32F1xx_HAL_Driver/Src\stm32f1xx_hal_flash_ex.c ****       /* Page Erase requested on address located on bank1 */
 288:E:/VisualStudioCode/STM32F1_HAL/Drivers/STM32F1xx_HAL_Driver/Src\stm32f1xx_hal_flash_ex.c ****       /* Wait for last operation to be completed */
 289:E:/VisualStudioCode/STM32F1_HAL/Drivers/STM32F1xx_HAL_Driver/Src\stm32f1xx_hal_flash_ex.c ****       if (FLASH_WaitForLastOperation((uint32_t)FLASH_TIMEOUT_VALUE) == HAL_OK)
 290:E:/VisualStudioCode/STM32F1_HAL/Drivers/STM32F1xx_HAL_Driver/Src\stm32f1xx_hal_flash_ex.c ****       {
 291:E:/VisualStudioCode/STM32F1_HAL/Drivers/STM32F1xx_HAL_Driver/Src\stm32f1xx_hal_flash_ex.c ****         /*Initialization of PageError variable*/
 292:E:/VisualStudioCode/STM32F1_HAL/Drivers/STM32F1xx_HAL_Driver/Src\stm32f1xx_hal_flash_ex.c ****         *PageError = 0xFFFFFFFFU;
 293:E:/VisualStudioCode/STM32F1_HAL/Drivers/STM32F1xx_HAL_Driver/Src\stm32f1xx_hal_flash_ex.c ****         
 294:E:/VisualStudioCode/STM32F1_HAL/Drivers/STM32F1xx_HAL_Driver/Src\stm32f1xx_hal_flash_ex.c ****         /* Erase page by page to be done*/
 295:E:/VisualStudioCode/STM32F1_HAL/Drivers/STM32F1xx_HAL_Driver/Src\stm32f1xx_hal_flash_ex.c ****         for(address = pEraseInit->PageAddress;
 296:E:/VisualStudioCode/STM32F1_HAL/Drivers/STM32F1xx_HAL_Driver/Src\stm32f1xx_hal_flash_ex.c ****             address < ((pEraseInit->NbPages * FLASH_PAGE_SIZE) + pEraseInit->PageAddress);
 297:E:/VisualStudioCode/STM32F1_HAL/Drivers/STM32F1xx_HAL_Driver/Src\stm32f1xx_hal_flash_ex.c ****             address += FLASH_PAGE_SIZE)
 298:E:/VisualStudioCode/STM32F1_HAL/Drivers/STM32F1xx_HAL_Driver/Src\stm32f1xx_hal_flash_ex.c ****         {
 299:E:/VisualStudioCode/STM32F1_HAL/Drivers/STM32F1xx_HAL_Driver/Src\stm32f1xx_hal_flash_ex.c ****           FLASH_PageErase(address);
 300:E:/VisualStudioCode/STM32F1_HAL/Drivers/STM32F1xx_HAL_Driver/Src\stm32f1xx_hal_flash_ex.c ****           
 301:E:/VisualStudioCode/STM32F1_HAL/Drivers/STM32F1xx_HAL_Driver/Src\stm32f1xx_hal_flash_ex.c ****           /* Wait for last operation to be completed */
 302:E:/VisualStudioCode/STM32F1_HAL/Drivers/STM32F1xx_HAL_Driver/Src\stm32f1xx_hal_flash_ex.c ****           status = FLASH_WaitForLastOperation((uint32_t)FLASH_TIMEOUT_VALUE);
 303:E:/VisualStudioCode/STM32F1_HAL/Drivers/STM32F1xx_HAL_Driver/Src\stm32f1xx_hal_flash_ex.c ****           
 304:E:/VisualStudioCode/STM32F1_HAL/Drivers/STM32F1xx_HAL_Driver/Src\stm32f1xx_hal_flash_ex.c ****           /* If the erase operation is completed, disable the PER Bit */
 305:E:/VisualStudioCode/STM32F1_HAL/Drivers/STM32F1xx_HAL_Driver/Src\stm32f1xx_hal_flash_ex.c ****           CLEAR_BIT(FLASH->CR, FLASH_CR_PER);
 306:E:/VisualStudioCode/STM32F1_HAL/Drivers/STM32F1xx_HAL_Driver/Src\stm32f1xx_hal_flash_ex.c ****           
 307:E:/VisualStudioCode/STM32F1_HAL/Drivers/STM32F1xx_HAL_Driver/Src\stm32f1xx_hal_flash_ex.c ****           if (status != HAL_OK)
 308:E:/VisualStudioCode/STM32F1_HAL/Drivers/STM32F1xx_HAL_Driver/Src\stm32f1xx_hal_flash_ex.c ****           {
 309:E:/VisualStudioCode/STM32F1_HAL/Drivers/STM32F1xx_HAL_Driver/Src\stm32f1xx_hal_flash_ex.c ****             /* In case of error, stop erase procedure and return the faulty address */
 310:E:/VisualStudioCode/STM32F1_HAL/Drivers/STM32F1xx_HAL_Driver/Src\stm32f1xx_hal_flash_ex.c ****             *PageError = address;
 311:E:/VisualStudioCode/STM32F1_HAL/Drivers/STM32F1xx_HAL_Driver/Src\stm32f1xx_hal_flash_ex.c ****             break;
 312:E:/VisualStudioCode/STM32F1_HAL/Drivers/STM32F1xx_HAL_Driver/Src\stm32f1xx_hal_flash_ex.c ****           }
 313:E:/VisualStudioCode/STM32F1_HAL/Drivers/STM32F1xx_HAL_Driver/Src\stm32f1xx_hal_flash_ex.c ****         }
 314:E:/VisualStudioCode/STM32F1_HAL/Drivers/STM32F1xx_HAL_Driver/Src\stm32f1xx_hal_flash_ex.c ****       }
 315:E:/VisualStudioCode/STM32F1_HAL/Drivers/STM32F1xx_HAL_Driver/Src\stm32f1xx_hal_flash_ex.c ****     }
 316:E:/VisualStudioCode/STM32F1_HAL/Drivers/STM32F1xx_HAL_Driver/Src\stm32f1xx_hal_flash_ex.c ****   }
 317:E:/VisualStudioCode/STM32F1_HAL/Drivers/STM32F1xx_HAL_Driver/Src\stm32f1xx_hal_flash_ex.c **** 
 318:E:/VisualStudioCode/STM32F1_HAL/Drivers/STM32F1xx_HAL_Driver/Src\stm32f1xx_hal_flash_ex.c ****   /* Process Unlocked */
ARM GAS  C:\Users\ADMINI~1\AppData\Local\Temp\ccRfmGKA.s 			page 7


 319:E:/VisualStudioCode/STM32F1_HAL/Drivers/STM32F1xx_HAL_Driver/Src\stm32f1xx_hal_flash_ex.c ****   __HAL_UNLOCK(&pFlash);
 320:E:/VisualStudioCode/STM32F1_HAL/Drivers/STM32F1xx_HAL_Driver/Src\stm32f1xx_hal_flash_ex.c **** 
 321:E:/VisualStudioCode/STM32F1_HAL/Drivers/STM32F1xx_HAL_Driver/Src\stm32f1xx_hal_flash_ex.c ****   return status;
 322:E:/VisualStudioCode/STM32F1_HAL/Drivers/STM32F1xx_HAL_Driver/Src\stm32f1xx_hal_flash_ex.c **** }
 323:E:/VisualStudioCode/STM32F1_HAL/Drivers/STM32F1xx_HAL_Driver/Src\stm32f1xx_hal_flash_ex.c **** 
 324:E:/VisualStudioCode/STM32F1_HAL/Drivers/STM32F1xx_HAL_Driver/Src\stm32f1xx_hal_flash_ex.c **** /**
 325:E:/VisualStudioCode/STM32F1_HAL/Drivers/STM32F1xx_HAL_Driver/Src\stm32f1xx_hal_flash_ex.c ****   * @brief  Perform a mass erase or erase the specified FLASH memory pages with interrupt enabled
 326:E:/VisualStudioCode/STM32F1_HAL/Drivers/STM32F1xx_HAL_Driver/Src\stm32f1xx_hal_flash_ex.c ****   * @note   To correctly run this function, the @ref HAL_FLASH_Unlock() function
 327:E:/VisualStudioCode/STM32F1_HAL/Drivers/STM32F1xx_HAL_Driver/Src\stm32f1xx_hal_flash_ex.c ****   *         must be called before.
 328:E:/VisualStudioCode/STM32F1_HAL/Drivers/STM32F1xx_HAL_Driver/Src\stm32f1xx_hal_flash_ex.c ****   *         Call the @ref HAL_FLASH_Lock() to disable the flash memory access 
 329:E:/VisualStudioCode/STM32F1_HAL/Drivers/STM32F1xx_HAL_Driver/Src\stm32f1xx_hal_flash_ex.c ****   *         (recommended to protect the FLASH memory against possible unwanted operation)
 330:E:/VisualStudioCode/STM32F1_HAL/Drivers/STM32F1xx_HAL_Driver/Src\stm32f1xx_hal_flash_ex.c ****   * @param  pEraseInit pointer to an FLASH_EraseInitTypeDef structure that
 331:E:/VisualStudioCode/STM32F1_HAL/Drivers/STM32F1xx_HAL_Driver/Src\stm32f1xx_hal_flash_ex.c ****   *         contains the configuration information for the erasing.
 332:E:/VisualStudioCode/STM32F1_HAL/Drivers/STM32F1xx_HAL_Driver/Src\stm32f1xx_hal_flash_ex.c ****   *
 333:E:/VisualStudioCode/STM32F1_HAL/Drivers/STM32F1xx_HAL_Driver/Src\stm32f1xx_hal_flash_ex.c ****   * @retval HAL_StatusTypeDef HAL Status
 334:E:/VisualStudioCode/STM32F1_HAL/Drivers/STM32F1xx_HAL_Driver/Src\stm32f1xx_hal_flash_ex.c ****   */
 335:E:/VisualStudioCode/STM32F1_HAL/Drivers/STM32F1xx_HAL_Driver/Src\stm32f1xx_hal_flash_ex.c **** HAL_StatusTypeDef HAL_FLASHEx_Erase_IT(FLASH_EraseInitTypeDef *pEraseInit)
 336:E:/VisualStudioCode/STM32F1_HAL/Drivers/STM32F1xx_HAL_Driver/Src\stm32f1xx_hal_flash_ex.c **** {
 337:E:/VisualStudioCode/STM32F1_HAL/Drivers/STM32F1xx_HAL_Driver/Src\stm32f1xx_hal_flash_ex.c ****   HAL_StatusTypeDef status = HAL_OK;
 338:E:/VisualStudioCode/STM32F1_HAL/Drivers/STM32F1xx_HAL_Driver/Src\stm32f1xx_hal_flash_ex.c **** 
 339:E:/VisualStudioCode/STM32F1_HAL/Drivers/STM32F1xx_HAL_Driver/Src\stm32f1xx_hal_flash_ex.c ****   /* Process Locked */
 340:E:/VisualStudioCode/STM32F1_HAL/Drivers/STM32F1xx_HAL_Driver/Src\stm32f1xx_hal_flash_ex.c ****   __HAL_LOCK(&pFlash);
 341:E:/VisualStudioCode/STM32F1_HAL/Drivers/STM32F1xx_HAL_Driver/Src\stm32f1xx_hal_flash_ex.c **** 
 342:E:/VisualStudioCode/STM32F1_HAL/Drivers/STM32F1xx_HAL_Driver/Src\stm32f1xx_hal_flash_ex.c ****   /* If procedure already ongoing, reject the next one */
 343:E:/VisualStudioCode/STM32F1_HAL/Drivers/STM32F1xx_HAL_Driver/Src\stm32f1xx_hal_flash_ex.c ****   if (pFlash.ProcedureOnGoing != FLASH_PROC_NONE)
 344:E:/VisualStudioCode/STM32F1_HAL/Drivers/STM32F1xx_HAL_Driver/Src\stm32f1xx_hal_flash_ex.c ****   {
 345:E:/VisualStudioCode/STM32F1_HAL/Drivers/STM32F1xx_HAL_Driver/Src\stm32f1xx_hal_flash_ex.c ****     return HAL_ERROR;
 346:E:/VisualStudioCode/STM32F1_HAL/Drivers/STM32F1xx_HAL_Driver/Src\stm32f1xx_hal_flash_ex.c ****   }
 347:E:/VisualStudioCode/STM32F1_HAL/Drivers/STM32F1xx_HAL_Driver/Src\stm32f1xx_hal_flash_ex.c ****   
 348:E:/VisualStudioCode/STM32F1_HAL/Drivers/STM32F1xx_HAL_Driver/Src\stm32f1xx_hal_flash_ex.c ****   /* Check the parameters */
 349:E:/VisualStudioCode/STM32F1_HAL/Drivers/STM32F1xx_HAL_Driver/Src\stm32f1xx_hal_flash_ex.c ****   assert_param(IS_FLASH_TYPEERASE(pEraseInit->TypeErase));
 350:E:/VisualStudioCode/STM32F1_HAL/Drivers/STM32F1xx_HAL_Driver/Src\stm32f1xx_hal_flash_ex.c **** 
 351:E:/VisualStudioCode/STM32F1_HAL/Drivers/STM32F1xx_HAL_Driver/Src\stm32f1xx_hal_flash_ex.c ****   /* Enable End of FLASH Operation and Error source interrupts */
 352:E:/VisualStudioCode/STM32F1_HAL/Drivers/STM32F1xx_HAL_Driver/Src\stm32f1xx_hal_flash_ex.c ****   __HAL_FLASH_ENABLE_IT(FLASH_IT_EOP | FLASH_IT_ERR);
 353:E:/VisualStudioCode/STM32F1_HAL/Drivers/STM32F1xx_HAL_Driver/Src\stm32f1xx_hal_flash_ex.c **** 
 354:E:/VisualStudioCode/STM32F1_HAL/Drivers/STM32F1xx_HAL_Driver/Src\stm32f1xx_hal_flash_ex.c **** #if defined(FLASH_BANK2_END)
 355:E:/VisualStudioCode/STM32F1_HAL/Drivers/STM32F1xx_HAL_Driver/Src\stm32f1xx_hal_flash_ex.c ****   /* Enable End of FLASH Operation and Error source interrupts */
 356:E:/VisualStudioCode/STM32F1_HAL/Drivers/STM32F1xx_HAL_Driver/Src\stm32f1xx_hal_flash_ex.c ****   __HAL_FLASH_ENABLE_IT(FLASH_IT_EOP_BANK2 | FLASH_IT_ERR_BANK2);
 357:E:/VisualStudioCode/STM32F1_HAL/Drivers/STM32F1xx_HAL_Driver/Src\stm32f1xx_hal_flash_ex.c ****   
 358:E:/VisualStudioCode/STM32F1_HAL/Drivers/STM32F1xx_HAL_Driver/Src\stm32f1xx_hal_flash_ex.c **** #endif
 359:E:/VisualStudioCode/STM32F1_HAL/Drivers/STM32F1xx_HAL_Driver/Src\stm32f1xx_hal_flash_ex.c ****   if (pEraseInit->TypeErase == FLASH_TYPEERASE_MASSERASE)
 360:E:/VisualStudioCode/STM32F1_HAL/Drivers/STM32F1xx_HAL_Driver/Src\stm32f1xx_hal_flash_ex.c ****   {
 361:E:/VisualStudioCode/STM32F1_HAL/Drivers/STM32F1xx_HAL_Driver/Src\stm32f1xx_hal_flash_ex.c ****     /*Mass erase to be done*/
 362:E:/VisualStudioCode/STM32F1_HAL/Drivers/STM32F1xx_HAL_Driver/Src\stm32f1xx_hal_flash_ex.c ****     pFlash.ProcedureOnGoing = FLASH_PROC_MASSERASE;
 363:E:/VisualStudioCode/STM32F1_HAL/Drivers/STM32F1xx_HAL_Driver/Src\stm32f1xx_hal_flash_ex.c ****         FLASH_MassErase(pEraseInit->Banks);
 364:E:/VisualStudioCode/STM32F1_HAL/Drivers/STM32F1xx_HAL_Driver/Src\stm32f1xx_hal_flash_ex.c ****   }
 365:E:/VisualStudioCode/STM32F1_HAL/Drivers/STM32F1xx_HAL_Driver/Src\stm32f1xx_hal_flash_ex.c ****   else
 366:E:/VisualStudioCode/STM32F1_HAL/Drivers/STM32F1xx_HAL_Driver/Src\stm32f1xx_hal_flash_ex.c ****   {
 367:E:/VisualStudioCode/STM32F1_HAL/Drivers/STM32F1xx_HAL_Driver/Src\stm32f1xx_hal_flash_ex.c ****     /* Erase by page to be done*/
 368:E:/VisualStudioCode/STM32F1_HAL/Drivers/STM32F1xx_HAL_Driver/Src\stm32f1xx_hal_flash_ex.c **** 
 369:E:/VisualStudioCode/STM32F1_HAL/Drivers/STM32F1xx_HAL_Driver/Src\stm32f1xx_hal_flash_ex.c ****     /* Check the parameters */
 370:E:/VisualStudioCode/STM32F1_HAL/Drivers/STM32F1xx_HAL_Driver/Src\stm32f1xx_hal_flash_ex.c ****     assert_param(IS_FLASH_PROGRAM_ADDRESS(pEraseInit->PageAddress));
 371:E:/VisualStudioCode/STM32F1_HAL/Drivers/STM32F1xx_HAL_Driver/Src\stm32f1xx_hal_flash_ex.c ****     assert_param(IS_FLASH_NB_PAGES(pEraseInit->PageAddress, pEraseInit->NbPages));
 372:E:/VisualStudioCode/STM32F1_HAL/Drivers/STM32F1xx_HAL_Driver/Src\stm32f1xx_hal_flash_ex.c **** 
 373:E:/VisualStudioCode/STM32F1_HAL/Drivers/STM32F1xx_HAL_Driver/Src\stm32f1xx_hal_flash_ex.c ****     pFlash.ProcedureOnGoing = FLASH_PROC_PAGEERASE;
 374:E:/VisualStudioCode/STM32F1_HAL/Drivers/STM32F1xx_HAL_Driver/Src\stm32f1xx_hal_flash_ex.c ****     pFlash.DataRemaining = pEraseInit->NbPages;
 375:E:/VisualStudioCode/STM32F1_HAL/Drivers/STM32F1xx_HAL_Driver/Src\stm32f1xx_hal_flash_ex.c ****     pFlash.Address = pEraseInit->PageAddress;
ARM GAS  C:\Users\ADMINI~1\AppData\Local\Temp\ccRfmGKA.s 			page 8


 376:E:/VisualStudioCode/STM32F1_HAL/Drivers/STM32F1xx_HAL_Driver/Src\stm32f1xx_hal_flash_ex.c **** 
 377:E:/VisualStudioCode/STM32F1_HAL/Drivers/STM32F1xx_HAL_Driver/Src\stm32f1xx_hal_flash_ex.c ****     /*Erase 1st page and wait for IT*/
 378:E:/VisualStudioCode/STM32F1_HAL/Drivers/STM32F1xx_HAL_Driver/Src\stm32f1xx_hal_flash_ex.c ****     FLASH_PageErase(pEraseInit->PageAddress);
 379:E:/VisualStudioCode/STM32F1_HAL/Drivers/STM32F1xx_HAL_Driver/Src\stm32f1xx_hal_flash_ex.c ****   }
 380:E:/VisualStudioCode/STM32F1_HAL/Drivers/STM32F1xx_HAL_Driver/Src\stm32f1xx_hal_flash_ex.c **** 
 381:E:/VisualStudioCode/STM32F1_HAL/Drivers/STM32F1xx_HAL_Driver/Src\stm32f1xx_hal_flash_ex.c ****   return status;
 382:E:/VisualStudioCode/STM32F1_HAL/Drivers/STM32F1xx_HAL_Driver/Src\stm32f1xx_hal_flash_ex.c **** }
 383:E:/VisualStudioCode/STM32F1_HAL/Drivers/STM32F1xx_HAL_Driver/Src\stm32f1xx_hal_flash_ex.c **** 
 384:E:/VisualStudioCode/STM32F1_HAL/Drivers/STM32F1xx_HAL_Driver/Src\stm32f1xx_hal_flash_ex.c **** /**
 385:E:/VisualStudioCode/STM32F1_HAL/Drivers/STM32F1xx_HAL_Driver/Src\stm32f1xx_hal_flash_ex.c ****   * @}
 386:E:/VisualStudioCode/STM32F1_HAL/Drivers/STM32F1xx_HAL_Driver/Src\stm32f1xx_hal_flash_ex.c ****   */
 387:E:/VisualStudioCode/STM32F1_HAL/Drivers/STM32F1xx_HAL_Driver/Src\stm32f1xx_hal_flash_ex.c **** 
 388:E:/VisualStudioCode/STM32F1_HAL/Drivers/STM32F1xx_HAL_Driver/Src\stm32f1xx_hal_flash_ex.c **** /** @defgroup FLASHEx_Exported_Functions_Group2 Option Bytes Programming functions
 389:E:/VisualStudioCode/STM32F1_HAL/Drivers/STM32F1xx_HAL_Driver/Src\stm32f1xx_hal_flash_ex.c ****  *  @brief   Option Bytes Programming functions
 390:E:/VisualStudioCode/STM32F1_HAL/Drivers/STM32F1xx_HAL_Driver/Src\stm32f1xx_hal_flash_ex.c ****   *
 391:E:/VisualStudioCode/STM32F1_HAL/Drivers/STM32F1xx_HAL_Driver/Src\stm32f1xx_hal_flash_ex.c **** @verbatim   
 392:E:/VisualStudioCode/STM32F1_HAL/Drivers/STM32F1xx_HAL_Driver/Src\stm32f1xx_hal_flash_ex.c ****   ==============================================================================
 393:E:/VisualStudioCode/STM32F1_HAL/Drivers/STM32F1xx_HAL_Driver/Src\stm32f1xx_hal_flash_ex.c ****                 ##### Option Bytes Programming functions ##### 
 394:E:/VisualStudioCode/STM32F1_HAL/Drivers/STM32F1xx_HAL_Driver/Src\stm32f1xx_hal_flash_ex.c ****   ==============================================================================  
 395:E:/VisualStudioCode/STM32F1_HAL/Drivers/STM32F1xx_HAL_Driver/Src\stm32f1xx_hal_flash_ex.c ****     [..]
 396:E:/VisualStudioCode/STM32F1_HAL/Drivers/STM32F1xx_HAL_Driver/Src\stm32f1xx_hal_flash_ex.c ****     This subsection provides a set of functions allowing to control the FLASH 
 397:E:/VisualStudioCode/STM32F1_HAL/Drivers/STM32F1xx_HAL_Driver/Src\stm32f1xx_hal_flash_ex.c ****     option bytes operations.
 398:E:/VisualStudioCode/STM32F1_HAL/Drivers/STM32F1xx_HAL_Driver/Src\stm32f1xx_hal_flash_ex.c **** 
 399:E:/VisualStudioCode/STM32F1_HAL/Drivers/STM32F1xx_HAL_Driver/Src\stm32f1xx_hal_flash_ex.c **** @endverbatim
 400:E:/VisualStudioCode/STM32F1_HAL/Drivers/STM32F1xx_HAL_Driver/Src\stm32f1xx_hal_flash_ex.c ****   * @{
 401:E:/VisualStudioCode/STM32F1_HAL/Drivers/STM32F1xx_HAL_Driver/Src\stm32f1xx_hal_flash_ex.c ****   */
 402:E:/VisualStudioCode/STM32F1_HAL/Drivers/STM32F1xx_HAL_Driver/Src\stm32f1xx_hal_flash_ex.c **** 
 403:E:/VisualStudioCode/STM32F1_HAL/Drivers/STM32F1xx_HAL_Driver/Src\stm32f1xx_hal_flash_ex.c **** /**
 404:E:/VisualStudioCode/STM32F1_HAL/Drivers/STM32F1xx_HAL_Driver/Src\stm32f1xx_hal_flash_ex.c ****   * @brief  Erases the FLASH option bytes.
 405:E:/VisualStudioCode/STM32F1_HAL/Drivers/STM32F1xx_HAL_Driver/Src\stm32f1xx_hal_flash_ex.c ****   * @note   This functions erases all option bytes except the Read protection (RDP).
 406:E:/VisualStudioCode/STM32F1_HAL/Drivers/STM32F1xx_HAL_Driver/Src\stm32f1xx_hal_flash_ex.c ****   *         The function @ref HAL_FLASH_Unlock() should be called before to unlock the FLASH interf
 407:E:/VisualStudioCode/STM32F1_HAL/Drivers/STM32F1xx_HAL_Driver/Src\stm32f1xx_hal_flash_ex.c ****   *         The function @ref HAL_FLASH_OB_Unlock() should be called before to unlock the options b
 408:E:/VisualStudioCode/STM32F1_HAL/Drivers/STM32F1xx_HAL_Driver/Src\stm32f1xx_hal_flash_ex.c ****   *         The function @ref HAL_FLASH_OB_Launch() should be called after to force the reload of t
 409:E:/VisualStudioCode/STM32F1_HAL/Drivers/STM32F1xx_HAL_Driver/Src\stm32f1xx_hal_flash_ex.c ****   *         (system reset will occur)
 410:E:/VisualStudioCode/STM32F1_HAL/Drivers/STM32F1xx_HAL_Driver/Src\stm32f1xx_hal_flash_ex.c ****   * @retval HAL status
 411:E:/VisualStudioCode/STM32F1_HAL/Drivers/STM32F1xx_HAL_Driver/Src\stm32f1xx_hal_flash_ex.c ****   */
 412:E:/VisualStudioCode/STM32F1_HAL/Drivers/STM32F1xx_HAL_Driver/Src\stm32f1xx_hal_flash_ex.c **** 
 413:E:/VisualStudioCode/STM32F1_HAL/Drivers/STM32F1xx_HAL_Driver/Src\stm32f1xx_hal_flash_ex.c **** HAL_StatusTypeDef HAL_FLASHEx_OBErase(void)
 414:E:/VisualStudioCode/STM32F1_HAL/Drivers/STM32F1xx_HAL_Driver/Src\stm32f1xx_hal_flash_ex.c **** {
 415:E:/VisualStudioCode/STM32F1_HAL/Drivers/STM32F1xx_HAL_Driver/Src\stm32f1xx_hal_flash_ex.c ****   uint8_t rdptmp = OB_RDP_LEVEL_0;
 416:E:/VisualStudioCode/STM32F1_HAL/Drivers/STM32F1xx_HAL_Driver/Src\stm32f1xx_hal_flash_ex.c ****   HAL_StatusTypeDef status = HAL_ERROR;
 417:E:/VisualStudioCode/STM32F1_HAL/Drivers/STM32F1xx_HAL_Driver/Src\stm32f1xx_hal_flash_ex.c **** 
 418:E:/VisualStudioCode/STM32F1_HAL/Drivers/STM32F1xx_HAL_Driver/Src\stm32f1xx_hal_flash_ex.c ****   /* Get the actual read protection Option Byte value */
 419:E:/VisualStudioCode/STM32F1_HAL/Drivers/STM32F1xx_HAL_Driver/Src\stm32f1xx_hal_flash_ex.c ****   rdptmp = FLASH_OB_GetRDP();
 420:E:/VisualStudioCode/STM32F1_HAL/Drivers/STM32F1xx_HAL_Driver/Src\stm32f1xx_hal_flash_ex.c **** 
 421:E:/VisualStudioCode/STM32F1_HAL/Drivers/STM32F1xx_HAL_Driver/Src\stm32f1xx_hal_flash_ex.c ****   /* Wait for last operation to be completed */
 422:E:/VisualStudioCode/STM32F1_HAL/Drivers/STM32F1xx_HAL_Driver/Src\stm32f1xx_hal_flash_ex.c ****   status = FLASH_WaitForLastOperation((uint32_t)FLASH_TIMEOUT_VALUE);
 423:E:/VisualStudioCode/STM32F1_HAL/Drivers/STM32F1xx_HAL_Driver/Src\stm32f1xx_hal_flash_ex.c **** 
 424:E:/VisualStudioCode/STM32F1_HAL/Drivers/STM32F1xx_HAL_Driver/Src\stm32f1xx_hal_flash_ex.c ****   if(status == HAL_OK)
 425:E:/VisualStudioCode/STM32F1_HAL/Drivers/STM32F1xx_HAL_Driver/Src\stm32f1xx_hal_flash_ex.c ****   {
 426:E:/VisualStudioCode/STM32F1_HAL/Drivers/STM32F1xx_HAL_Driver/Src\stm32f1xx_hal_flash_ex.c ****     /* Clean the error context */
 427:E:/VisualStudioCode/STM32F1_HAL/Drivers/STM32F1xx_HAL_Driver/Src\stm32f1xx_hal_flash_ex.c ****     pFlash.ErrorCode = HAL_FLASH_ERROR_NONE;
 428:E:/VisualStudioCode/STM32F1_HAL/Drivers/STM32F1xx_HAL_Driver/Src\stm32f1xx_hal_flash_ex.c **** 
 429:E:/VisualStudioCode/STM32F1_HAL/Drivers/STM32F1xx_HAL_Driver/Src\stm32f1xx_hal_flash_ex.c ****     /* If the previous operation is completed, proceed to erase the option bytes */
 430:E:/VisualStudioCode/STM32F1_HAL/Drivers/STM32F1xx_HAL_Driver/Src\stm32f1xx_hal_flash_ex.c ****     SET_BIT(FLASH->CR, FLASH_CR_OPTER);
 431:E:/VisualStudioCode/STM32F1_HAL/Drivers/STM32F1xx_HAL_Driver/Src\stm32f1xx_hal_flash_ex.c ****     SET_BIT(FLASH->CR, FLASH_CR_STRT);
 432:E:/VisualStudioCode/STM32F1_HAL/Drivers/STM32F1xx_HAL_Driver/Src\stm32f1xx_hal_flash_ex.c **** 
ARM GAS  C:\Users\ADMINI~1\AppData\Local\Temp\ccRfmGKA.s 			page 9


 433:E:/VisualStudioCode/STM32F1_HAL/Drivers/STM32F1xx_HAL_Driver/Src\stm32f1xx_hal_flash_ex.c ****     /* Wait for last operation to be completed */
 434:E:/VisualStudioCode/STM32F1_HAL/Drivers/STM32F1xx_HAL_Driver/Src\stm32f1xx_hal_flash_ex.c ****     status = FLASH_WaitForLastOperation((uint32_t)FLASH_TIMEOUT_VALUE);
 435:E:/VisualStudioCode/STM32F1_HAL/Drivers/STM32F1xx_HAL_Driver/Src\stm32f1xx_hal_flash_ex.c **** 
 436:E:/VisualStudioCode/STM32F1_HAL/Drivers/STM32F1xx_HAL_Driver/Src\stm32f1xx_hal_flash_ex.c ****     /* If the erase operation is completed, disable the OPTER Bit */
 437:E:/VisualStudioCode/STM32F1_HAL/Drivers/STM32F1xx_HAL_Driver/Src\stm32f1xx_hal_flash_ex.c ****     CLEAR_BIT(FLASH->CR, FLASH_CR_OPTER);
 438:E:/VisualStudioCode/STM32F1_HAL/Drivers/STM32F1xx_HAL_Driver/Src\stm32f1xx_hal_flash_ex.c **** 
 439:E:/VisualStudioCode/STM32F1_HAL/Drivers/STM32F1xx_HAL_Driver/Src\stm32f1xx_hal_flash_ex.c ****     if(status == HAL_OK)
 440:E:/VisualStudioCode/STM32F1_HAL/Drivers/STM32F1xx_HAL_Driver/Src\stm32f1xx_hal_flash_ex.c ****     {
 441:E:/VisualStudioCode/STM32F1_HAL/Drivers/STM32F1xx_HAL_Driver/Src\stm32f1xx_hal_flash_ex.c ****       /* Restore the last read protection Option Byte value */
 442:E:/VisualStudioCode/STM32F1_HAL/Drivers/STM32F1xx_HAL_Driver/Src\stm32f1xx_hal_flash_ex.c ****       status = FLASH_OB_RDP_LevelConfig(rdptmp);
 443:E:/VisualStudioCode/STM32F1_HAL/Drivers/STM32F1xx_HAL_Driver/Src\stm32f1xx_hal_flash_ex.c ****     }
 444:E:/VisualStudioCode/STM32F1_HAL/Drivers/STM32F1xx_HAL_Driver/Src\stm32f1xx_hal_flash_ex.c ****   }
 445:E:/VisualStudioCode/STM32F1_HAL/Drivers/STM32F1xx_HAL_Driver/Src\stm32f1xx_hal_flash_ex.c **** 
 446:E:/VisualStudioCode/STM32F1_HAL/Drivers/STM32F1xx_HAL_Driver/Src\stm32f1xx_hal_flash_ex.c ****   /* Return the erase status */
 447:E:/VisualStudioCode/STM32F1_HAL/Drivers/STM32F1xx_HAL_Driver/Src\stm32f1xx_hal_flash_ex.c ****   return status;
 448:E:/VisualStudioCode/STM32F1_HAL/Drivers/STM32F1xx_HAL_Driver/Src\stm32f1xx_hal_flash_ex.c **** }
 449:E:/VisualStudioCode/STM32F1_HAL/Drivers/STM32F1xx_HAL_Driver/Src\stm32f1xx_hal_flash_ex.c **** 
 450:E:/VisualStudioCode/STM32F1_HAL/Drivers/STM32F1xx_HAL_Driver/Src\stm32f1xx_hal_flash_ex.c **** /**
 451:E:/VisualStudioCode/STM32F1_HAL/Drivers/STM32F1xx_HAL_Driver/Src\stm32f1xx_hal_flash_ex.c ****   * @brief  Program option bytes
 452:E:/VisualStudioCode/STM32F1_HAL/Drivers/STM32F1xx_HAL_Driver/Src\stm32f1xx_hal_flash_ex.c ****   * @note   The function @ref HAL_FLASH_Unlock() should be called before to unlock the FLASH interf
 453:E:/VisualStudioCode/STM32F1_HAL/Drivers/STM32F1xx_HAL_Driver/Src\stm32f1xx_hal_flash_ex.c ****   *         The function @ref HAL_FLASH_OB_Unlock() should be called before to unlock the options b
 454:E:/VisualStudioCode/STM32F1_HAL/Drivers/STM32F1xx_HAL_Driver/Src\stm32f1xx_hal_flash_ex.c ****   *         The function @ref HAL_FLASH_OB_Launch() should be called after to force the reload of t
 455:E:/VisualStudioCode/STM32F1_HAL/Drivers/STM32F1xx_HAL_Driver/Src\stm32f1xx_hal_flash_ex.c ****   *         (system reset will occur)
 456:E:/VisualStudioCode/STM32F1_HAL/Drivers/STM32F1xx_HAL_Driver/Src\stm32f1xx_hal_flash_ex.c ****   *
 457:E:/VisualStudioCode/STM32F1_HAL/Drivers/STM32F1xx_HAL_Driver/Src\stm32f1xx_hal_flash_ex.c ****   * @param  pOBInit pointer to an FLASH_OBInitStruct structure that
 458:E:/VisualStudioCode/STM32F1_HAL/Drivers/STM32F1xx_HAL_Driver/Src\stm32f1xx_hal_flash_ex.c ****   *         contains the configuration information for the programming.
 459:E:/VisualStudioCode/STM32F1_HAL/Drivers/STM32F1xx_HAL_Driver/Src\stm32f1xx_hal_flash_ex.c ****   *
 460:E:/VisualStudioCode/STM32F1_HAL/Drivers/STM32F1xx_HAL_Driver/Src\stm32f1xx_hal_flash_ex.c ****   * @retval HAL_StatusTypeDef HAL Status
 461:E:/VisualStudioCode/STM32F1_HAL/Drivers/STM32F1xx_HAL_Driver/Src\stm32f1xx_hal_flash_ex.c ****   */
 462:E:/VisualStudioCode/STM32F1_HAL/Drivers/STM32F1xx_HAL_Driver/Src\stm32f1xx_hal_flash_ex.c **** HAL_StatusTypeDef HAL_FLASHEx_OBProgram(FLASH_OBProgramInitTypeDef *pOBInit)
 463:E:/VisualStudioCode/STM32F1_HAL/Drivers/STM32F1xx_HAL_Driver/Src\stm32f1xx_hal_flash_ex.c **** {
 464:E:/VisualStudioCode/STM32F1_HAL/Drivers/STM32F1xx_HAL_Driver/Src\stm32f1xx_hal_flash_ex.c ****   HAL_StatusTypeDef status = HAL_ERROR;
 465:E:/VisualStudioCode/STM32F1_HAL/Drivers/STM32F1xx_HAL_Driver/Src\stm32f1xx_hal_flash_ex.c **** 
 466:E:/VisualStudioCode/STM32F1_HAL/Drivers/STM32F1xx_HAL_Driver/Src\stm32f1xx_hal_flash_ex.c ****   /* Process Locked */
 467:E:/VisualStudioCode/STM32F1_HAL/Drivers/STM32F1xx_HAL_Driver/Src\stm32f1xx_hal_flash_ex.c ****   __HAL_LOCK(&pFlash);
 468:E:/VisualStudioCode/STM32F1_HAL/Drivers/STM32F1xx_HAL_Driver/Src\stm32f1xx_hal_flash_ex.c **** 
 469:E:/VisualStudioCode/STM32F1_HAL/Drivers/STM32F1xx_HAL_Driver/Src\stm32f1xx_hal_flash_ex.c ****   /* Check the parameters */
 470:E:/VisualStudioCode/STM32F1_HAL/Drivers/STM32F1xx_HAL_Driver/Src\stm32f1xx_hal_flash_ex.c ****   assert_param(IS_OPTIONBYTE(pOBInit->OptionType));
 471:E:/VisualStudioCode/STM32F1_HAL/Drivers/STM32F1xx_HAL_Driver/Src\stm32f1xx_hal_flash_ex.c **** 
 472:E:/VisualStudioCode/STM32F1_HAL/Drivers/STM32F1xx_HAL_Driver/Src\stm32f1xx_hal_flash_ex.c ****   /* Write protection configuration */
 473:E:/VisualStudioCode/STM32F1_HAL/Drivers/STM32F1xx_HAL_Driver/Src\stm32f1xx_hal_flash_ex.c ****   if((pOBInit->OptionType & OPTIONBYTE_WRP) == OPTIONBYTE_WRP)
 474:E:/VisualStudioCode/STM32F1_HAL/Drivers/STM32F1xx_HAL_Driver/Src\stm32f1xx_hal_flash_ex.c ****   {
 475:E:/VisualStudioCode/STM32F1_HAL/Drivers/STM32F1xx_HAL_Driver/Src\stm32f1xx_hal_flash_ex.c ****     assert_param(IS_WRPSTATE(pOBInit->WRPState));
 476:E:/VisualStudioCode/STM32F1_HAL/Drivers/STM32F1xx_HAL_Driver/Src\stm32f1xx_hal_flash_ex.c ****     if (pOBInit->WRPState == OB_WRPSTATE_ENABLE)
 477:E:/VisualStudioCode/STM32F1_HAL/Drivers/STM32F1xx_HAL_Driver/Src\stm32f1xx_hal_flash_ex.c ****     {
 478:E:/VisualStudioCode/STM32F1_HAL/Drivers/STM32F1xx_HAL_Driver/Src\stm32f1xx_hal_flash_ex.c ****       /* Enable of Write protection on the selected page */
 479:E:/VisualStudioCode/STM32F1_HAL/Drivers/STM32F1xx_HAL_Driver/Src\stm32f1xx_hal_flash_ex.c ****       status = FLASH_OB_EnableWRP(pOBInit->WRPPage);
 480:E:/VisualStudioCode/STM32F1_HAL/Drivers/STM32F1xx_HAL_Driver/Src\stm32f1xx_hal_flash_ex.c ****     }
 481:E:/VisualStudioCode/STM32F1_HAL/Drivers/STM32F1xx_HAL_Driver/Src\stm32f1xx_hal_flash_ex.c ****     else
 482:E:/VisualStudioCode/STM32F1_HAL/Drivers/STM32F1xx_HAL_Driver/Src\stm32f1xx_hal_flash_ex.c ****     {
 483:E:/VisualStudioCode/STM32F1_HAL/Drivers/STM32F1xx_HAL_Driver/Src\stm32f1xx_hal_flash_ex.c ****       /* Disable of Write protection on the selected page */
 484:E:/VisualStudioCode/STM32F1_HAL/Drivers/STM32F1xx_HAL_Driver/Src\stm32f1xx_hal_flash_ex.c ****       status = FLASH_OB_DisableWRP(pOBInit->WRPPage);
 485:E:/VisualStudioCode/STM32F1_HAL/Drivers/STM32F1xx_HAL_Driver/Src\stm32f1xx_hal_flash_ex.c ****     }
 486:E:/VisualStudioCode/STM32F1_HAL/Drivers/STM32F1xx_HAL_Driver/Src\stm32f1xx_hal_flash_ex.c ****     if (status != HAL_OK)
 487:E:/VisualStudioCode/STM32F1_HAL/Drivers/STM32F1xx_HAL_Driver/Src\stm32f1xx_hal_flash_ex.c ****     {
 488:E:/VisualStudioCode/STM32F1_HAL/Drivers/STM32F1xx_HAL_Driver/Src\stm32f1xx_hal_flash_ex.c ****       /* Process Unlocked */
 489:E:/VisualStudioCode/STM32F1_HAL/Drivers/STM32F1xx_HAL_Driver/Src\stm32f1xx_hal_flash_ex.c ****       __HAL_UNLOCK(&pFlash);
ARM GAS  C:\Users\ADMINI~1\AppData\Local\Temp\ccRfmGKA.s 			page 10


 490:E:/VisualStudioCode/STM32F1_HAL/Drivers/STM32F1xx_HAL_Driver/Src\stm32f1xx_hal_flash_ex.c ****       return status;
 491:E:/VisualStudioCode/STM32F1_HAL/Drivers/STM32F1xx_HAL_Driver/Src\stm32f1xx_hal_flash_ex.c ****     }
 492:E:/VisualStudioCode/STM32F1_HAL/Drivers/STM32F1xx_HAL_Driver/Src\stm32f1xx_hal_flash_ex.c ****   }
 493:E:/VisualStudioCode/STM32F1_HAL/Drivers/STM32F1xx_HAL_Driver/Src\stm32f1xx_hal_flash_ex.c **** 
 494:E:/VisualStudioCode/STM32F1_HAL/Drivers/STM32F1xx_HAL_Driver/Src\stm32f1xx_hal_flash_ex.c ****   /* Read protection configuration */
 495:E:/VisualStudioCode/STM32F1_HAL/Drivers/STM32F1xx_HAL_Driver/Src\stm32f1xx_hal_flash_ex.c ****   if((pOBInit->OptionType & OPTIONBYTE_RDP) == OPTIONBYTE_RDP)
 496:E:/VisualStudioCode/STM32F1_HAL/Drivers/STM32F1xx_HAL_Driver/Src\stm32f1xx_hal_flash_ex.c ****   {
 497:E:/VisualStudioCode/STM32F1_HAL/Drivers/STM32F1xx_HAL_Driver/Src\stm32f1xx_hal_flash_ex.c ****     status = FLASH_OB_RDP_LevelConfig(pOBInit->RDPLevel);
 498:E:/VisualStudioCode/STM32F1_HAL/Drivers/STM32F1xx_HAL_Driver/Src\stm32f1xx_hal_flash_ex.c ****     if (status != HAL_OK)
 499:E:/VisualStudioCode/STM32F1_HAL/Drivers/STM32F1xx_HAL_Driver/Src\stm32f1xx_hal_flash_ex.c ****     {
 500:E:/VisualStudioCode/STM32F1_HAL/Drivers/STM32F1xx_HAL_Driver/Src\stm32f1xx_hal_flash_ex.c ****       /* Process Unlocked */
 501:E:/VisualStudioCode/STM32F1_HAL/Drivers/STM32F1xx_HAL_Driver/Src\stm32f1xx_hal_flash_ex.c ****       __HAL_UNLOCK(&pFlash);
 502:E:/VisualStudioCode/STM32F1_HAL/Drivers/STM32F1xx_HAL_Driver/Src\stm32f1xx_hal_flash_ex.c ****       return status;
 503:E:/VisualStudioCode/STM32F1_HAL/Drivers/STM32F1xx_HAL_Driver/Src\stm32f1xx_hal_flash_ex.c ****     }
 504:E:/VisualStudioCode/STM32F1_HAL/Drivers/STM32F1xx_HAL_Driver/Src\stm32f1xx_hal_flash_ex.c ****   }
 505:E:/VisualStudioCode/STM32F1_HAL/Drivers/STM32F1xx_HAL_Driver/Src\stm32f1xx_hal_flash_ex.c **** 
 506:E:/VisualStudioCode/STM32F1_HAL/Drivers/STM32F1xx_HAL_Driver/Src\stm32f1xx_hal_flash_ex.c ****   /* USER configuration */
 507:E:/VisualStudioCode/STM32F1_HAL/Drivers/STM32F1xx_HAL_Driver/Src\stm32f1xx_hal_flash_ex.c ****   if((pOBInit->OptionType & OPTIONBYTE_USER) == OPTIONBYTE_USER)
 508:E:/VisualStudioCode/STM32F1_HAL/Drivers/STM32F1xx_HAL_Driver/Src\stm32f1xx_hal_flash_ex.c ****   {
 509:E:/VisualStudioCode/STM32F1_HAL/Drivers/STM32F1xx_HAL_Driver/Src\stm32f1xx_hal_flash_ex.c ****     status = FLASH_OB_UserConfig(pOBInit->USERConfig);
 510:E:/VisualStudioCode/STM32F1_HAL/Drivers/STM32F1xx_HAL_Driver/Src\stm32f1xx_hal_flash_ex.c ****     if (status != HAL_OK)
 511:E:/VisualStudioCode/STM32F1_HAL/Drivers/STM32F1xx_HAL_Driver/Src\stm32f1xx_hal_flash_ex.c ****     {
 512:E:/VisualStudioCode/STM32F1_HAL/Drivers/STM32F1xx_HAL_Driver/Src\stm32f1xx_hal_flash_ex.c ****       /* Process Unlocked */
 513:E:/VisualStudioCode/STM32F1_HAL/Drivers/STM32F1xx_HAL_Driver/Src\stm32f1xx_hal_flash_ex.c ****       __HAL_UNLOCK(&pFlash);
 514:E:/VisualStudioCode/STM32F1_HAL/Drivers/STM32F1xx_HAL_Driver/Src\stm32f1xx_hal_flash_ex.c ****       return status;
 515:E:/VisualStudioCode/STM32F1_HAL/Drivers/STM32F1xx_HAL_Driver/Src\stm32f1xx_hal_flash_ex.c ****     }
 516:E:/VisualStudioCode/STM32F1_HAL/Drivers/STM32F1xx_HAL_Driver/Src\stm32f1xx_hal_flash_ex.c ****   }
 517:E:/VisualStudioCode/STM32F1_HAL/Drivers/STM32F1xx_HAL_Driver/Src\stm32f1xx_hal_flash_ex.c **** 
 518:E:/VisualStudioCode/STM32F1_HAL/Drivers/STM32F1xx_HAL_Driver/Src\stm32f1xx_hal_flash_ex.c ****   /* DATA configuration*/
 519:E:/VisualStudioCode/STM32F1_HAL/Drivers/STM32F1xx_HAL_Driver/Src\stm32f1xx_hal_flash_ex.c ****   if((pOBInit->OptionType & OPTIONBYTE_DATA) == OPTIONBYTE_DATA)
 520:E:/VisualStudioCode/STM32F1_HAL/Drivers/STM32F1xx_HAL_Driver/Src\stm32f1xx_hal_flash_ex.c ****   {
 521:E:/VisualStudioCode/STM32F1_HAL/Drivers/STM32F1xx_HAL_Driver/Src\stm32f1xx_hal_flash_ex.c ****     status = FLASH_OB_ProgramData(pOBInit->DATAAddress, pOBInit->DATAData);
 522:E:/VisualStudioCode/STM32F1_HAL/Drivers/STM32F1xx_HAL_Driver/Src\stm32f1xx_hal_flash_ex.c ****     if (status != HAL_OK)
 523:E:/VisualStudioCode/STM32F1_HAL/Drivers/STM32F1xx_HAL_Driver/Src\stm32f1xx_hal_flash_ex.c ****     {
 524:E:/VisualStudioCode/STM32F1_HAL/Drivers/STM32F1xx_HAL_Driver/Src\stm32f1xx_hal_flash_ex.c ****       /* Process Unlocked */
 525:E:/VisualStudioCode/STM32F1_HAL/Drivers/STM32F1xx_HAL_Driver/Src\stm32f1xx_hal_flash_ex.c ****       __HAL_UNLOCK(&pFlash);
 526:E:/VisualStudioCode/STM32F1_HAL/Drivers/STM32F1xx_HAL_Driver/Src\stm32f1xx_hal_flash_ex.c ****       return status;
 527:E:/VisualStudioCode/STM32F1_HAL/Drivers/STM32F1xx_HAL_Driver/Src\stm32f1xx_hal_flash_ex.c ****     }
 528:E:/VisualStudioCode/STM32F1_HAL/Drivers/STM32F1xx_HAL_Driver/Src\stm32f1xx_hal_flash_ex.c ****   }
 529:E:/VisualStudioCode/STM32F1_HAL/Drivers/STM32F1xx_HAL_Driver/Src\stm32f1xx_hal_flash_ex.c **** 
 530:E:/VisualStudioCode/STM32F1_HAL/Drivers/STM32F1xx_HAL_Driver/Src\stm32f1xx_hal_flash_ex.c ****   /* Process Unlocked */
 531:E:/VisualStudioCode/STM32F1_HAL/Drivers/STM32F1xx_HAL_Driver/Src\stm32f1xx_hal_flash_ex.c ****   __HAL_UNLOCK(&pFlash);
 532:E:/VisualStudioCode/STM32F1_HAL/Drivers/STM32F1xx_HAL_Driver/Src\stm32f1xx_hal_flash_ex.c **** 
 533:E:/VisualStudioCode/STM32F1_HAL/Drivers/STM32F1xx_HAL_Driver/Src\stm32f1xx_hal_flash_ex.c ****   return status;
 534:E:/VisualStudioCode/STM32F1_HAL/Drivers/STM32F1xx_HAL_Driver/Src\stm32f1xx_hal_flash_ex.c **** }
 535:E:/VisualStudioCode/STM32F1_HAL/Drivers/STM32F1xx_HAL_Driver/Src\stm32f1xx_hal_flash_ex.c **** 
 536:E:/VisualStudioCode/STM32F1_HAL/Drivers/STM32F1xx_HAL_Driver/Src\stm32f1xx_hal_flash_ex.c **** /**
 537:E:/VisualStudioCode/STM32F1_HAL/Drivers/STM32F1xx_HAL_Driver/Src\stm32f1xx_hal_flash_ex.c ****   * @brief  Get the Option byte configuration
 538:E:/VisualStudioCode/STM32F1_HAL/Drivers/STM32F1xx_HAL_Driver/Src\stm32f1xx_hal_flash_ex.c ****   * @param  pOBInit pointer to an FLASH_OBInitStruct structure that
 539:E:/VisualStudioCode/STM32F1_HAL/Drivers/STM32F1xx_HAL_Driver/Src\stm32f1xx_hal_flash_ex.c ****   *         contains the configuration information for the programming.
 540:E:/VisualStudioCode/STM32F1_HAL/Drivers/STM32F1xx_HAL_Driver/Src\stm32f1xx_hal_flash_ex.c ****   *
 541:E:/VisualStudioCode/STM32F1_HAL/Drivers/STM32F1xx_HAL_Driver/Src\stm32f1xx_hal_flash_ex.c ****   * @retval None
 542:E:/VisualStudioCode/STM32F1_HAL/Drivers/STM32F1xx_HAL_Driver/Src\stm32f1xx_hal_flash_ex.c ****   */
 543:E:/VisualStudioCode/STM32F1_HAL/Drivers/STM32F1xx_HAL_Driver/Src\stm32f1xx_hal_flash_ex.c **** void HAL_FLASHEx_OBGetConfig(FLASH_OBProgramInitTypeDef *pOBInit)
 544:E:/VisualStudioCode/STM32F1_HAL/Drivers/STM32F1xx_HAL_Driver/Src\stm32f1xx_hal_flash_ex.c **** {
 545:E:/VisualStudioCode/STM32F1_HAL/Drivers/STM32F1xx_HAL_Driver/Src\stm32f1xx_hal_flash_ex.c ****   pOBInit->OptionType = OPTIONBYTE_WRP | OPTIONBYTE_RDP | OPTIONBYTE_USER;
 546:E:/VisualStudioCode/STM32F1_HAL/Drivers/STM32F1xx_HAL_Driver/Src\stm32f1xx_hal_flash_ex.c **** 
ARM GAS  C:\Users\ADMINI~1\AppData\Local\Temp\ccRfmGKA.s 			page 11


 547:E:/VisualStudioCode/STM32F1_HAL/Drivers/STM32F1xx_HAL_Driver/Src\stm32f1xx_hal_flash_ex.c ****   /*Get WRP*/
 548:E:/VisualStudioCode/STM32F1_HAL/Drivers/STM32F1xx_HAL_Driver/Src\stm32f1xx_hal_flash_ex.c ****   pOBInit->WRPPage = FLASH_OB_GetWRP();
 549:E:/VisualStudioCode/STM32F1_HAL/Drivers/STM32F1xx_HAL_Driver/Src\stm32f1xx_hal_flash_ex.c **** 
 550:E:/VisualStudioCode/STM32F1_HAL/Drivers/STM32F1xx_HAL_Driver/Src\stm32f1xx_hal_flash_ex.c ****   /*Get RDP Level*/
 551:E:/VisualStudioCode/STM32F1_HAL/Drivers/STM32F1xx_HAL_Driver/Src\stm32f1xx_hal_flash_ex.c ****   pOBInit->RDPLevel = FLASH_OB_GetRDP();
 552:E:/VisualStudioCode/STM32F1_HAL/Drivers/STM32F1xx_HAL_Driver/Src\stm32f1xx_hal_flash_ex.c **** 
 553:E:/VisualStudioCode/STM32F1_HAL/Drivers/STM32F1xx_HAL_Driver/Src\stm32f1xx_hal_flash_ex.c ****   /*Get USER*/
 554:E:/VisualStudioCode/STM32F1_HAL/Drivers/STM32F1xx_HAL_Driver/Src\stm32f1xx_hal_flash_ex.c ****   pOBInit->USERConfig = FLASH_OB_GetUser();
 555:E:/VisualStudioCode/STM32F1_HAL/Drivers/STM32F1xx_HAL_Driver/Src\stm32f1xx_hal_flash_ex.c **** }
 556:E:/VisualStudioCode/STM32F1_HAL/Drivers/STM32F1xx_HAL_Driver/Src\stm32f1xx_hal_flash_ex.c **** 
 557:E:/VisualStudioCode/STM32F1_HAL/Drivers/STM32F1xx_HAL_Driver/Src\stm32f1xx_hal_flash_ex.c **** /**
 558:E:/VisualStudioCode/STM32F1_HAL/Drivers/STM32F1xx_HAL_Driver/Src\stm32f1xx_hal_flash_ex.c ****   * @brief  Get the Option byte user data
 559:E:/VisualStudioCode/STM32F1_HAL/Drivers/STM32F1xx_HAL_Driver/Src\stm32f1xx_hal_flash_ex.c ****   * @param  DATAAdress Address of the option byte DATA
 560:E:/VisualStudioCode/STM32F1_HAL/Drivers/STM32F1xx_HAL_Driver/Src\stm32f1xx_hal_flash_ex.c ****   *          This parameter can be one of the following values:
 561:E:/VisualStudioCode/STM32F1_HAL/Drivers/STM32F1xx_HAL_Driver/Src\stm32f1xx_hal_flash_ex.c ****   *            @arg @ref OB_DATA_ADDRESS_DATA0
 562:E:/VisualStudioCode/STM32F1_HAL/Drivers/STM32F1xx_HAL_Driver/Src\stm32f1xx_hal_flash_ex.c ****   *            @arg @ref OB_DATA_ADDRESS_DATA1
 563:E:/VisualStudioCode/STM32F1_HAL/Drivers/STM32F1xx_HAL_Driver/Src\stm32f1xx_hal_flash_ex.c ****   * @retval Value programmed in USER data
 564:E:/VisualStudioCode/STM32F1_HAL/Drivers/STM32F1xx_HAL_Driver/Src\stm32f1xx_hal_flash_ex.c ****   */
 565:E:/VisualStudioCode/STM32F1_HAL/Drivers/STM32F1xx_HAL_Driver/Src\stm32f1xx_hal_flash_ex.c **** uint32_t HAL_FLASHEx_OBGetUserData(uint32_t DATAAdress)
 566:E:/VisualStudioCode/STM32F1_HAL/Drivers/STM32F1xx_HAL_Driver/Src\stm32f1xx_hal_flash_ex.c **** {
 567:E:/VisualStudioCode/STM32F1_HAL/Drivers/STM32F1xx_HAL_Driver/Src\stm32f1xx_hal_flash_ex.c ****   uint32_t value = 0;
 568:E:/VisualStudioCode/STM32F1_HAL/Drivers/STM32F1xx_HAL_Driver/Src\stm32f1xx_hal_flash_ex.c ****   
 569:E:/VisualStudioCode/STM32F1_HAL/Drivers/STM32F1xx_HAL_Driver/Src\stm32f1xx_hal_flash_ex.c ****   if (DATAAdress == OB_DATA_ADDRESS_DATA0)
 570:E:/VisualStudioCode/STM32F1_HAL/Drivers/STM32F1xx_HAL_Driver/Src\stm32f1xx_hal_flash_ex.c ****   {
 571:E:/VisualStudioCode/STM32F1_HAL/Drivers/STM32F1xx_HAL_Driver/Src\stm32f1xx_hal_flash_ex.c ****     /* Get value programmed in OB USER Data0 */
 572:E:/VisualStudioCode/STM32F1_HAL/Drivers/STM32F1xx_HAL_Driver/Src\stm32f1xx_hal_flash_ex.c ****     value = READ_BIT(FLASH->OBR, FLASH_OBR_DATA0) >> FLASH_POSITION_OB_USERDATA0_BIT;
 573:E:/VisualStudioCode/STM32F1_HAL/Drivers/STM32F1xx_HAL_Driver/Src\stm32f1xx_hal_flash_ex.c ****   }
 574:E:/VisualStudioCode/STM32F1_HAL/Drivers/STM32F1xx_HAL_Driver/Src\stm32f1xx_hal_flash_ex.c ****   else
 575:E:/VisualStudioCode/STM32F1_HAL/Drivers/STM32F1xx_HAL_Driver/Src\stm32f1xx_hal_flash_ex.c ****   {
 576:E:/VisualStudioCode/STM32F1_HAL/Drivers/STM32F1xx_HAL_Driver/Src\stm32f1xx_hal_flash_ex.c ****     /* Get value programmed in OB USER Data1 */
 577:E:/VisualStudioCode/STM32F1_HAL/Drivers/STM32F1xx_HAL_Driver/Src\stm32f1xx_hal_flash_ex.c ****     value = READ_BIT(FLASH->OBR, FLASH_OBR_DATA1) >> FLASH_POSITION_OB_USERDATA1_BIT;
 578:E:/VisualStudioCode/STM32F1_HAL/Drivers/STM32F1xx_HAL_Driver/Src\stm32f1xx_hal_flash_ex.c ****   }
 579:E:/VisualStudioCode/STM32F1_HAL/Drivers/STM32F1xx_HAL_Driver/Src\stm32f1xx_hal_flash_ex.c ****   
 580:E:/VisualStudioCode/STM32F1_HAL/Drivers/STM32F1xx_HAL_Driver/Src\stm32f1xx_hal_flash_ex.c ****   return value;
 581:E:/VisualStudioCode/STM32F1_HAL/Drivers/STM32F1xx_HAL_Driver/Src\stm32f1xx_hal_flash_ex.c **** }
 582:E:/VisualStudioCode/STM32F1_HAL/Drivers/STM32F1xx_HAL_Driver/Src\stm32f1xx_hal_flash_ex.c **** 
 583:E:/VisualStudioCode/STM32F1_HAL/Drivers/STM32F1xx_HAL_Driver/Src\stm32f1xx_hal_flash_ex.c **** /**
 584:E:/VisualStudioCode/STM32F1_HAL/Drivers/STM32F1xx_HAL_Driver/Src\stm32f1xx_hal_flash_ex.c ****   * @}
 585:E:/VisualStudioCode/STM32F1_HAL/Drivers/STM32F1xx_HAL_Driver/Src\stm32f1xx_hal_flash_ex.c ****   */
 586:E:/VisualStudioCode/STM32F1_HAL/Drivers/STM32F1xx_HAL_Driver/Src\stm32f1xx_hal_flash_ex.c **** 
 587:E:/VisualStudioCode/STM32F1_HAL/Drivers/STM32F1xx_HAL_Driver/Src\stm32f1xx_hal_flash_ex.c **** /**
 588:E:/VisualStudioCode/STM32F1_HAL/Drivers/STM32F1xx_HAL_Driver/Src\stm32f1xx_hal_flash_ex.c ****   * @}
 589:E:/VisualStudioCode/STM32F1_HAL/Drivers/STM32F1xx_HAL_Driver/Src\stm32f1xx_hal_flash_ex.c ****   */
 590:E:/VisualStudioCode/STM32F1_HAL/Drivers/STM32F1xx_HAL_Driver/Src\stm32f1xx_hal_flash_ex.c **** 
 591:E:/VisualStudioCode/STM32F1_HAL/Drivers/STM32F1xx_HAL_Driver/Src\stm32f1xx_hal_flash_ex.c **** /** @addtogroup FLASHEx_Private_Functions
 592:E:/VisualStudioCode/STM32F1_HAL/Drivers/STM32F1xx_HAL_Driver/Src\stm32f1xx_hal_flash_ex.c ****  * @{
 593:E:/VisualStudioCode/STM32F1_HAL/Drivers/STM32F1xx_HAL_Driver/Src\stm32f1xx_hal_flash_ex.c ****  */
 594:E:/VisualStudioCode/STM32F1_HAL/Drivers/STM32F1xx_HAL_Driver/Src\stm32f1xx_hal_flash_ex.c **** 
 595:E:/VisualStudioCode/STM32F1_HAL/Drivers/STM32F1xx_HAL_Driver/Src\stm32f1xx_hal_flash_ex.c **** /**
 596:E:/VisualStudioCode/STM32F1_HAL/Drivers/STM32F1xx_HAL_Driver/Src\stm32f1xx_hal_flash_ex.c ****   * @brief  Full erase of FLASH memory Bank 
 597:E:/VisualStudioCode/STM32F1_HAL/Drivers/STM32F1xx_HAL_Driver/Src\stm32f1xx_hal_flash_ex.c ****   * @param  Banks Banks to be erased
 598:E:/VisualStudioCode/STM32F1_HAL/Drivers/STM32F1xx_HAL_Driver/Src\stm32f1xx_hal_flash_ex.c ****   *          This parameter can be one of the following values:
 599:E:/VisualStudioCode/STM32F1_HAL/Drivers/STM32F1xx_HAL_Driver/Src\stm32f1xx_hal_flash_ex.c ****   *            @arg @ref FLASH_BANK_1 Bank1 to be erased
 600:E:/VisualStudioCode/STM32F1_HAL/Drivers/STM32F1xx_HAL_Driver/Src\stm32f1xx_hal_flash_ex.c ****   @if STM32F101xG
 601:E:/VisualStudioCode/STM32F1_HAL/Drivers/STM32F1xx_HAL_Driver/Src\stm32f1xx_hal_flash_ex.c ****   *            @arg @ref FLASH_BANK_2 Bank2 to be erased
 602:E:/VisualStudioCode/STM32F1_HAL/Drivers/STM32F1xx_HAL_Driver/Src\stm32f1xx_hal_flash_ex.c ****   *            @arg @ref FLASH_BANK_BOTH Bank1 and Bank2 to be erased
 603:E:/VisualStudioCode/STM32F1_HAL/Drivers/STM32F1xx_HAL_Driver/Src\stm32f1xx_hal_flash_ex.c ****   @endif
ARM GAS  C:\Users\ADMINI~1\AppData\Local\Temp\ccRfmGKA.s 			page 12


 604:E:/VisualStudioCode/STM32F1_HAL/Drivers/STM32F1xx_HAL_Driver/Src\stm32f1xx_hal_flash_ex.c ****   @if STM32F103xG
 605:E:/VisualStudioCode/STM32F1_HAL/Drivers/STM32F1xx_HAL_Driver/Src\stm32f1xx_hal_flash_ex.c ****   *            @arg @ref FLASH_BANK_2 Bank2 to be erased
 606:E:/VisualStudioCode/STM32F1_HAL/Drivers/STM32F1xx_HAL_Driver/Src\stm32f1xx_hal_flash_ex.c ****   *            @arg @ref FLASH_BANK_BOTH Bank1 and Bank2 to be erased
 607:E:/VisualStudioCode/STM32F1_HAL/Drivers/STM32F1xx_HAL_Driver/Src\stm32f1xx_hal_flash_ex.c ****   @endif
 608:E:/VisualStudioCode/STM32F1_HAL/Drivers/STM32F1xx_HAL_Driver/Src\stm32f1xx_hal_flash_ex.c ****   *
 609:E:/VisualStudioCode/STM32F1_HAL/Drivers/STM32F1xx_HAL_Driver/Src\stm32f1xx_hal_flash_ex.c ****   * @retval None
 610:E:/VisualStudioCode/STM32F1_HAL/Drivers/STM32F1xx_HAL_Driver/Src\stm32f1xx_hal_flash_ex.c ****   */
 611:E:/VisualStudioCode/STM32F1_HAL/Drivers/STM32F1xx_HAL_Driver/Src\stm32f1xx_hal_flash_ex.c **** static void FLASH_MassErase(uint32_t Banks)
 612:E:/VisualStudioCode/STM32F1_HAL/Drivers/STM32F1xx_HAL_Driver/Src\stm32f1xx_hal_flash_ex.c **** {
  26              		.loc 1 612 0
  27              		.cfi_startproc
  28              		@ args = 0, pretend = 0, frame = 0
  29              		@ frame_needed = 0, uses_anonymous_args = 0
  30              		@ link register save eliminated.
  31              	.LVL0:
 613:E:/VisualStudioCode/STM32F1_HAL/Drivers/STM32F1xx_HAL_Driver/Src\stm32f1xx_hal_flash_ex.c ****   /* Check the parameters */
 614:E:/VisualStudioCode/STM32F1_HAL/Drivers/STM32F1xx_HAL_Driver/Src\stm32f1xx_hal_flash_ex.c ****   assert_param(IS_FLASH_BANK(Banks));
 615:E:/VisualStudioCode/STM32F1_HAL/Drivers/STM32F1xx_HAL_Driver/Src\stm32f1xx_hal_flash_ex.c **** 
 616:E:/VisualStudioCode/STM32F1_HAL/Drivers/STM32F1xx_HAL_Driver/Src\stm32f1xx_hal_flash_ex.c ****   /* Clean the error context */
 617:E:/VisualStudioCode/STM32F1_HAL/Drivers/STM32F1xx_HAL_Driver/Src\stm32f1xx_hal_flash_ex.c ****   pFlash.ErrorCode = HAL_FLASH_ERROR_NONE;
  32              		.loc 1 617 0
  33 0000 064B     		ldr	r3, .L2
  34 0002 0022     		movs	r2, #0
  35 0004 DA61     		str	r2, [r3, #28]
 618:E:/VisualStudioCode/STM32F1_HAL/Drivers/STM32F1xx_HAL_Driver/Src\stm32f1xx_hal_flash_ex.c **** 
 619:E:/VisualStudioCode/STM32F1_HAL/Drivers/STM32F1xx_HAL_Driver/Src\stm32f1xx_hal_flash_ex.c **** #if defined(FLASH_BANK2_END)
 620:E:/VisualStudioCode/STM32F1_HAL/Drivers/STM32F1xx_HAL_Driver/Src\stm32f1xx_hal_flash_ex.c ****   if(Banks == FLASH_BANK_BOTH)
 621:E:/VisualStudioCode/STM32F1_HAL/Drivers/STM32F1xx_HAL_Driver/Src\stm32f1xx_hal_flash_ex.c ****   {
 622:E:/VisualStudioCode/STM32F1_HAL/Drivers/STM32F1xx_HAL_Driver/Src\stm32f1xx_hal_flash_ex.c ****     /* bank1 & bank2 will be erased*/
 623:E:/VisualStudioCode/STM32F1_HAL/Drivers/STM32F1xx_HAL_Driver/Src\stm32f1xx_hal_flash_ex.c ****     SET_BIT(FLASH->CR, FLASH_CR_MER);
 624:E:/VisualStudioCode/STM32F1_HAL/Drivers/STM32F1xx_HAL_Driver/Src\stm32f1xx_hal_flash_ex.c ****     SET_BIT(FLASH->CR2, FLASH_CR2_MER);
 625:E:/VisualStudioCode/STM32F1_HAL/Drivers/STM32F1xx_HAL_Driver/Src\stm32f1xx_hal_flash_ex.c ****     SET_BIT(FLASH->CR, FLASH_CR_STRT);
 626:E:/VisualStudioCode/STM32F1_HAL/Drivers/STM32F1xx_HAL_Driver/Src\stm32f1xx_hal_flash_ex.c ****     SET_BIT(FLASH->CR2, FLASH_CR2_STRT);
 627:E:/VisualStudioCode/STM32F1_HAL/Drivers/STM32F1xx_HAL_Driver/Src\stm32f1xx_hal_flash_ex.c ****   }
 628:E:/VisualStudioCode/STM32F1_HAL/Drivers/STM32F1xx_HAL_Driver/Src\stm32f1xx_hal_flash_ex.c ****   else if(Banks == FLASH_BANK_2)
 629:E:/VisualStudioCode/STM32F1_HAL/Drivers/STM32F1xx_HAL_Driver/Src\stm32f1xx_hal_flash_ex.c ****   {
 630:E:/VisualStudioCode/STM32F1_HAL/Drivers/STM32F1xx_HAL_Driver/Src\stm32f1xx_hal_flash_ex.c ****     /*Only bank2 will be erased*/
 631:E:/VisualStudioCode/STM32F1_HAL/Drivers/STM32F1xx_HAL_Driver/Src\stm32f1xx_hal_flash_ex.c ****     SET_BIT(FLASH->CR2, FLASH_CR2_MER);
 632:E:/VisualStudioCode/STM32F1_HAL/Drivers/STM32F1xx_HAL_Driver/Src\stm32f1xx_hal_flash_ex.c ****     SET_BIT(FLASH->CR2, FLASH_CR2_STRT);
 633:E:/VisualStudioCode/STM32F1_HAL/Drivers/STM32F1xx_HAL_Driver/Src\stm32f1xx_hal_flash_ex.c ****   }
 634:E:/VisualStudioCode/STM32F1_HAL/Drivers/STM32F1xx_HAL_Driver/Src\stm32f1xx_hal_flash_ex.c ****   else
 635:E:/VisualStudioCode/STM32F1_HAL/Drivers/STM32F1xx_HAL_Driver/Src\stm32f1xx_hal_flash_ex.c ****   {
 636:E:/VisualStudioCode/STM32F1_HAL/Drivers/STM32F1xx_HAL_Driver/Src\stm32f1xx_hal_flash_ex.c **** #endif /* FLASH_BANK2_END */
 637:E:/VisualStudioCode/STM32F1_HAL/Drivers/STM32F1xx_HAL_Driver/Src\stm32f1xx_hal_flash_ex.c **** #if !defined(FLASH_BANK2_END)
 638:E:/VisualStudioCode/STM32F1_HAL/Drivers/STM32F1xx_HAL_Driver/Src\stm32f1xx_hal_flash_ex.c ****   /* Prevent unused argument(s) compilation warning */
 639:E:/VisualStudioCode/STM32F1_HAL/Drivers/STM32F1xx_HAL_Driver/Src\stm32f1xx_hal_flash_ex.c ****   UNUSED(Banks);
 640:E:/VisualStudioCode/STM32F1_HAL/Drivers/STM32F1xx_HAL_Driver/Src\stm32f1xx_hal_flash_ex.c **** #endif /* FLASH_BANK2_END */  
 641:E:/VisualStudioCode/STM32F1_HAL/Drivers/STM32F1xx_HAL_Driver/Src\stm32f1xx_hal_flash_ex.c ****     /* Only bank1 will be erased*/
 642:E:/VisualStudioCode/STM32F1_HAL/Drivers/STM32F1xx_HAL_Driver/Src\stm32f1xx_hal_flash_ex.c ****     SET_BIT(FLASH->CR, FLASH_CR_MER);
  36              		.loc 1 642 0
  37 0006 064B     		ldr	r3, .L2+4
  38 0008 1A69     		ldr	r2, [r3, #16]
  39 000a 42F00402 		orr	r2, r2, #4
  40 000e 1A61     		str	r2, [r3, #16]
 643:E:/VisualStudioCode/STM32F1_HAL/Drivers/STM32F1xx_HAL_Driver/Src\stm32f1xx_hal_flash_ex.c ****     SET_BIT(FLASH->CR, FLASH_CR_STRT);
  41              		.loc 1 643 0
  42 0010 1A69     		ldr	r2, [r3, #16]
ARM GAS  C:\Users\ADMINI~1\AppData\Local\Temp\ccRfmGKA.s 			page 13


  43 0012 42F04002 		orr	r2, r2, #64
  44 0016 1A61     		str	r2, [r3, #16]
 644:E:/VisualStudioCode/STM32F1_HAL/Drivers/STM32F1xx_HAL_Driver/Src\stm32f1xx_hal_flash_ex.c **** #if defined(FLASH_BANK2_END)
 645:E:/VisualStudioCode/STM32F1_HAL/Drivers/STM32F1xx_HAL_Driver/Src\stm32f1xx_hal_flash_ex.c ****   }
 646:E:/VisualStudioCode/STM32F1_HAL/Drivers/STM32F1xx_HAL_Driver/Src\stm32f1xx_hal_flash_ex.c **** #endif /* FLASH_BANK2_END */
 647:E:/VisualStudioCode/STM32F1_HAL/Drivers/STM32F1xx_HAL_Driver/Src\stm32f1xx_hal_flash_ex.c **** }
  45              		.loc 1 647 0
  46 0018 7047     		bx	lr
  47              	.L3:
  48 001a 00BF     		.align	2
  49              	.L2:
  50 001c 00000000 		.word	pFlash
  51 0020 00200240 		.word	1073881088
  52              		.cfi_endproc
  53              	.LFE70:
  54              		.cantunwind
  55              		.fnend
  57              		.section	.text._ZL15FLASH_OB_GetWRPv,"ax",%progbits
  58              		.align	1
  59              		.syntax unified
  60              		.thumb
  61              		.thumb_func
  62              		.fpu softvfp
  64              	_ZL15FLASH_OB_GetWRPv:
  65              		.fnstart
  66              	.LFB76:
 648:E:/VisualStudioCode/STM32F1_HAL/Drivers/STM32F1xx_HAL_Driver/Src\stm32f1xx_hal_flash_ex.c **** 
 649:E:/VisualStudioCode/STM32F1_HAL/Drivers/STM32F1xx_HAL_Driver/Src\stm32f1xx_hal_flash_ex.c **** /**
 650:E:/VisualStudioCode/STM32F1_HAL/Drivers/STM32F1xx_HAL_Driver/Src\stm32f1xx_hal_flash_ex.c ****   * @brief  Enable the write protection of the desired pages
 651:E:/VisualStudioCode/STM32F1_HAL/Drivers/STM32F1xx_HAL_Driver/Src\stm32f1xx_hal_flash_ex.c ****   * @note   An option byte erase is done automatically in this function. 
 652:E:/VisualStudioCode/STM32F1_HAL/Drivers/STM32F1xx_HAL_Driver/Src\stm32f1xx_hal_flash_ex.c ****   * @note   When the memory read protection level is selected (RDP level = 1), 
 653:E:/VisualStudioCode/STM32F1_HAL/Drivers/STM32F1xx_HAL_Driver/Src\stm32f1xx_hal_flash_ex.c ****   *         it is not possible to program or erase the flash page i if
 654:E:/VisualStudioCode/STM32F1_HAL/Drivers/STM32F1xx_HAL_Driver/Src\stm32f1xx_hal_flash_ex.c ****   *         debug features are connected or boot code is executed in RAM, even if nWRPi = 1 
 655:E:/VisualStudioCode/STM32F1_HAL/Drivers/STM32F1xx_HAL_Driver/Src\stm32f1xx_hal_flash_ex.c ****   * 
 656:E:/VisualStudioCode/STM32F1_HAL/Drivers/STM32F1xx_HAL_Driver/Src\stm32f1xx_hal_flash_ex.c ****   * @param  WriteProtectPage specifies the page(s) to be write protected.
 657:E:/VisualStudioCode/STM32F1_HAL/Drivers/STM32F1xx_HAL_Driver/Src\stm32f1xx_hal_flash_ex.c ****   *         The value of this parameter depend on device used within the same series 
 658:E:/VisualStudioCode/STM32F1_HAL/Drivers/STM32F1xx_HAL_Driver/Src\stm32f1xx_hal_flash_ex.c ****   * @retval HAL status 
 659:E:/VisualStudioCode/STM32F1_HAL/Drivers/STM32F1xx_HAL_Driver/Src\stm32f1xx_hal_flash_ex.c ****   */
 660:E:/VisualStudioCode/STM32F1_HAL/Drivers/STM32F1xx_HAL_Driver/Src\stm32f1xx_hal_flash_ex.c **** static HAL_StatusTypeDef FLASH_OB_EnableWRP(uint32_t WriteProtectPage)
 661:E:/VisualStudioCode/STM32F1_HAL/Drivers/STM32F1xx_HAL_Driver/Src\stm32f1xx_hal_flash_ex.c **** {
 662:E:/VisualStudioCode/STM32F1_HAL/Drivers/STM32F1xx_HAL_Driver/Src\stm32f1xx_hal_flash_ex.c ****   HAL_StatusTypeDef status = HAL_OK;
 663:E:/VisualStudioCode/STM32F1_HAL/Drivers/STM32F1xx_HAL_Driver/Src\stm32f1xx_hal_flash_ex.c ****   uint16_t WRP0_Data = 0xFFFF;
 664:E:/VisualStudioCode/STM32F1_HAL/Drivers/STM32F1xx_HAL_Driver/Src\stm32f1xx_hal_flash_ex.c **** #if defined(FLASH_WRP1_WRP1)
 665:E:/VisualStudioCode/STM32F1_HAL/Drivers/STM32F1xx_HAL_Driver/Src\stm32f1xx_hal_flash_ex.c ****   uint16_t WRP1_Data = 0xFFFF;
 666:E:/VisualStudioCode/STM32F1_HAL/Drivers/STM32F1xx_HAL_Driver/Src\stm32f1xx_hal_flash_ex.c **** #endif /* FLASH_WRP1_WRP1 */
 667:E:/VisualStudioCode/STM32F1_HAL/Drivers/STM32F1xx_HAL_Driver/Src\stm32f1xx_hal_flash_ex.c **** #if defined(FLASH_WRP2_WRP2)
 668:E:/VisualStudioCode/STM32F1_HAL/Drivers/STM32F1xx_HAL_Driver/Src\stm32f1xx_hal_flash_ex.c ****   uint16_t WRP2_Data = 0xFFFF;
 669:E:/VisualStudioCode/STM32F1_HAL/Drivers/STM32F1xx_HAL_Driver/Src\stm32f1xx_hal_flash_ex.c **** #endif /* FLASH_WRP2_WRP2 */
 670:E:/VisualStudioCode/STM32F1_HAL/Drivers/STM32F1xx_HAL_Driver/Src\stm32f1xx_hal_flash_ex.c **** #if defined(FLASH_WRP3_WRP3)
 671:E:/VisualStudioCode/STM32F1_HAL/Drivers/STM32F1xx_HAL_Driver/Src\stm32f1xx_hal_flash_ex.c ****   uint16_t WRP3_Data = 0xFFFF;
 672:E:/VisualStudioCode/STM32F1_HAL/Drivers/STM32F1xx_HAL_Driver/Src\stm32f1xx_hal_flash_ex.c **** #endif /* FLASH_WRP3_WRP3 */
 673:E:/VisualStudioCode/STM32F1_HAL/Drivers/STM32F1xx_HAL_Driver/Src\stm32f1xx_hal_flash_ex.c ****   
 674:E:/VisualStudioCode/STM32F1_HAL/Drivers/STM32F1xx_HAL_Driver/Src\stm32f1xx_hal_flash_ex.c ****   /* Check the parameters */
 675:E:/VisualStudioCode/STM32F1_HAL/Drivers/STM32F1xx_HAL_Driver/Src\stm32f1xx_hal_flash_ex.c ****   assert_param(IS_OB_WRP(WriteProtectPage));
 676:E:/VisualStudioCode/STM32F1_HAL/Drivers/STM32F1xx_HAL_Driver/Src\stm32f1xx_hal_flash_ex.c ****     
 677:E:/VisualStudioCode/STM32F1_HAL/Drivers/STM32F1xx_HAL_Driver/Src\stm32f1xx_hal_flash_ex.c ****   /* Get current write protected pages and the new pages to be protected ******/
 678:E:/VisualStudioCode/STM32F1_HAL/Drivers/STM32F1xx_HAL_Driver/Src\stm32f1xx_hal_flash_ex.c ****   WriteProtectPage = (uint32_t)(~((~FLASH_OB_GetWRP()) | WriteProtectPage));
ARM GAS  C:\Users\ADMINI~1\AppData\Local\Temp\ccRfmGKA.s 			page 14


 679:E:/VisualStudioCode/STM32F1_HAL/Drivers/STM32F1xx_HAL_Driver/Src\stm32f1xx_hal_flash_ex.c ****   
 680:E:/VisualStudioCode/STM32F1_HAL/Drivers/STM32F1xx_HAL_Driver/Src\stm32f1xx_hal_flash_ex.c **** #if defined(OB_WRP_PAGES0TO15MASK)
 681:E:/VisualStudioCode/STM32F1_HAL/Drivers/STM32F1xx_HAL_Driver/Src\stm32f1xx_hal_flash_ex.c ****   WRP0_Data = (uint16_t)(WriteProtectPage & OB_WRP_PAGES0TO15MASK);
 682:E:/VisualStudioCode/STM32F1_HAL/Drivers/STM32F1xx_HAL_Driver/Src\stm32f1xx_hal_flash_ex.c **** #elif defined(OB_WRP_PAGES0TO31MASK)
 683:E:/VisualStudioCode/STM32F1_HAL/Drivers/STM32F1xx_HAL_Driver/Src\stm32f1xx_hal_flash_ex.c ****   WRP0_Data = (uint16_t)(WriteProtectPage & OB_WRP_PAGES0TO31MASK);
 684:E:/VisualStudioCode/STM32F1_HAL/Drivers/STM32F1xx_HAL_Driver/Src\stm32f1xx_hal_flash_ex.c **** #endif /* OB_WRP_PAGES0TO31MASK */
 685:E:/VisualStudioCode/STM32F1_HAL/Drivers/STM32F1xx_HAL_Driver/Src\stm32f1xx_hal_flash_ex.c ****   
 686:E:/VisualStudioCode/STM32F1_HAL/Drivers/STM32F1xx_HAL_Driver/Src\stm32f1xx_hal_flash_ex.c **** #if defined(OB_WRP_PAGES16TO31MASK)
 687:E:/VisualStudioCode/STM32F1_HAL/Drivers/STM32F1xx_HAL_Driver/Src\stm32f1xx_hal_flash_ex.c ****   WRP1_Data = (uint16_t)((WriteProtectPage & OB_WRP_PAGES16TO31MASK) >> 8U);
 688:E:/VisualStudioCode/STM32F1_HAL/Drivers/STM32F1xx_HAL_Driver/Src\stm32f1xx_hal_flash_ex.c **** #elif defined(OB_WRP_PAGES32TO63MASK)
 689:E:/VisualStudioCode/STM32F1_HAL/Drivers/STM32F1xx_HAL_Driver/Src\stm32f1xx_hal_flash_ex.c ****   WRP1_Data = (uint16_t)((WriteProtectPage & OB_WRP_PAGES32TO63MASK) >> 8U);
 690:E:/VisualStudioCode/STM32F1_HAL/Drivers/STM32F1xx_HAL_Driver/Src\stm32f1xx_hal_flash_ex.c **** #endif /* OB_WRP_PAGES32TO63MASK */
 691:E:/VisualStudioCode/STM32F1_HAL/Drivers/STM32F1xx_HAL_Driver/Src\stm32f1xx_hal_flash_ex.c ****  
 692:E:/VisualStudioCode/STM32F1_HAL/Drivers/STM32F1xx_HAL_Driver/Src\stm32f1xx_hal_flash_ex.c **** #if defined(OB_WRP_PAGES64TO95MASK)
 693:E:/VisualStudioCode/STM32F1_HAL/Drivers/STM32F1xx_HAL_Driver/Src\stm32f1xx_hal_flash_ex.c ****   WRP2_Data = (uint16_t)((WriteProtectPage & OB_WRP_PAGES64TO95MASK) >> 16U);
 694:E:/VisualStudioCode/STM32F1_HAL/Drivers/STM32F1xx_HAL_Driver/Src\stm32f1xx_hal_flash_ex.c **** #endif /* OB_WRP_PAGES64TO95MASK */
 695:E:/VisualStudioCode/STM32F1_HAL/Drivers/STM32F1xx_HAL_Driver/Src\stm32f1xx_hal_flash_ex.c **** #if defined(OB_WRP_PAGES32TO47MASK)
 696:E:/VisualStudioCode/STM32F1_HAL/Drivers/STM32F1xx_HAL_Driver/Src\stm32f1xx_hal_flash_ex.c ****   WRP2_Data = (uint16_t)((WriteProtectPage & OB_WRP_PAGES32TO47MASK) >> 16U);
 697:E:/VisualStudioCode/STM32F1_HAL/Drivers/STM32F1xx_HAL_Driver/Src\stm32f1xx_hal_flash_ex.c **** #endif /* OB_WRP_PAGES32TO47MASK */
 698:E:/VisualStudioCode/STM32F1_HAL/Drivers/STM32F1xx_HAL_Driver/Src\stm32f1xx_hal_flash_ex.c **** 
 699:E:/VisualStudioCode/STM32F1_HAL/Drivers/STM32F1xx_HAL_Driver/Src\stm32f1xx_hal_flash_ex.c **** #if defined(OB_WRP_PAGES96TO127MASK)
 700:E:/VisualStudioCode/STM32F1_HAL/Drivers/STM32F1xx_HAL_Driver/Src\stm32f1xx_hal_flash_ex.c ****   WRP3_Data = (uint16_t)((WriteProtectPage & OB_WRP_PAGES96TO127MASK) >> 24U); 
 701:E:/VisualStudioCode/STM32F1_HAL/Drivers/STM32F1xx_HAL_Driver/Src\stm32f1xx_hal_flash_ex.c **** #elif defined(OB_WRP_PAGES48TO255MASK)
 702:E:/VisualStudioCode/STM32F1_HAL/Drivers/STM32F1xx_HAL_Driver/Src\stm32f1xx_hal_flash_ex.c ****   WRP3_Data = (uint16_t)((WriteProtectPage & OB_WRP_PAGES48TO255MASK) >> 24U); 
 703:E:/VisualStudioCode/STM32F1_HAL/Drivers/STM32F1xx_HAL_Driver/Src\stm32f1xx_hal_flash_ex.c **** #elif defined(OB_WRP_PAGES48TO511MASK)
 704:E:/VisualStudioCode/STM32F1_HAL/Drivers/STM32F1xx_HAL_Driver/Src\stm32f1xx_hal_flash_ex.c ****   WRP3_Data = (uint16_t)((WriteProtectPage & OB_WRP_PAGES48TO511MASK) >> 24U); 
 705:E:/VisualStudioCode/STM32F1_HAL/Drivers/STM32F1xx_HAL_Driver/Src\stm32f1xx_hal_flash_ex.c **** #elif defined(OB_WRP_PAGES48TO127MASK)
 706:E:/VisualStudioCode/STM32F1_HAL/Drivers/STM32F1xx_HAL_Driver/Src\stm32f1xx_hal_flash_ex.c ****   WRP3_Data = (uint16_t)((WriteProtectPage & OB_WRP_PAGES48TO127MASK) >> 24U); 
 707:E:/VisualStudioCode/STM32F1_HAL/Drivers/STM32F1xx_HAL_Driver/Src\stm32f1xx_hal_flash_ex.c **** #endif /* OB_WRP_PAGES96TO127MASK */
 708:E:/VisualStudioCode/STM32F1_HAL/Drivers/STM32F1xx_HAL_Driver/Src\stm32f1xx_hal_flash_ex.c ****   
 709:E:/VisualStudioCode/STM32F1_HAL/Drivers/STM32F1xx_HAL_Driver/Src\stm32f1xx_hal_flash_ex.c ****   /* Wait for last operation to be completed */
 710:E:/VisualStudioCode/STM32F1_HAL/Drivers/STM32F1xx_HAL_Driver/Src\stm32f1xx_hal_flash_ex.c ****   status = FLASH_WaitForLastOperation((uint32_t)FLASH_TIMEOUT_VALUE);
 711:E:/VisualStudioCode/STM32F1_HAL/Drivers/STM32F1xx_HAL_Driver/Src\stm32f1xx_hal_flash_ex.c **** 
 712:E:/VisualStudioCode/STM32F1_HAL/Drivers/STM32F1xx_HAL_Driver/Src\stm32f1xx_hal_flash_ex.c ****   if(status == HAL_OK)
 713:E:/VisualStudioCode/STM32F1_HAL/Drivers/STM32F1xx_HAL_Driver/Src\stm32f1xx_hal_flash_ex.c ****   { 
 714:E:/VisualStudioCode/STM32F1_HAL/Drivers/STM32F1xx_HAL_Driver/Src\stm32f1xx_hal_flash_ex.c ****     /* Clean the error context */
 715:E:/VisualStudioCode/STM32F1_HAL/Drivers/STM32F1xx_HAL_Driver/Src\stm32f1xx_hal_flash_ex.c ****     pFlash.ErrorCode = HAL_FLASH_ERROR_NONE;
 716:E:/VisualStudioCode/STM32F1_HAL/Drivers/STM32F1xx_HAL_Driver/Src\stm32f1xx_hal_flash_ex.c **** 
 717:E:/VisualStudioCode/STM32F1_HAL/Drivers/STM32F1xx_HAL_Driver/Src\stm32f1xx_hal_flash_ex.c ****     /* To be able to write again option byte, need to perform a option byte erase */
 718:E:/VisualStudioCode/STM32F1_HAL/Drivers/STM32F1xx_HAL_Driver/Src\stm32f1xx_hal_flash_ex.c ****     status = HAL_FLASHEx_OBErase();
 719:E:/VisualStudioCode/STM32F1_HAL/Drivers/STM32F1xx_HAL_Driver/Src\stm32f1xx_hal_flash_ex.c ****     if (status == HAL_OK)  
 720:E:/VisualStudioCode/STM32F1_HAL/Drivers/STM32F1xx_HAL_Driver/Src\stm32f1xx_hal_flash_ex.c ****     {
 721:E:/VisualStudioCode/STM32F1_HAL/Drivers/STM32F1xx_HAL_Driver/Src\stm32f1xx_hal_flash_ex.c ****       /* Enable write protection */
 722:E:/VisualStudioCode/STM32F1_HAL/Drivers/STM32F1xx_HAL_Driver/Src\stm32f1xx_hal_flash_ex.c ****       SET_BIT(FLASH->CR, FLASH_CR_OPTPG);
 723:E:/VisualStudioCode/STM32F1_HAL/Drivers/STM32F1xx_HAL_Driver/Src\stm32f1xx_hal_flash_ex.c **** 
 724:E:/VisualStudioCode/STM32F1_HAL/Drivers/STM32F1xx_HAL_Driver/Src\stm32f1xx_hal_flash_ex.c **** #if defined(FLASH_WRP0_WRP0)
 725:E:/VisualStudioCode/STM32F1_HAL/Drivers/STM32F1xx_HAL_Driver/Src\stm32f1xx_hal_flash_ex.c ****       if(WRP0_Data != 0xFFU)
 726:E:/VisualStudioCode/STM32F1_HAL/Drivers/STM32F1xx_HAL_Driver/Src\stm32f1xx_hal_flash_ex.c ****       {
 727:E:/VisualStudioCode/STM32F1_HAL/Drivers/STM32F1xx_HAL_Driver/Src\stm32f1xx_hal_flash_ex.c ****         OB->WRP0 &= WRP0_Data;
 728:E:/VisualStudioCode/STM32F1_HAL/Drivers/STM32F1xx_HAL_Driver/Src\stm32f1xx_hal_flash_ex.c ****         
 729:E:/VisualStudioCode/STM32F1_HAL/Drivers/STM32F1xx_HAL_Driver/Src\stm32f1xx_hal_flash_ex.c ****         /* Wait for last operation to be completed */
 730:E:/VisualStudioCode/STM32F1_HAL/Drivers/STM32F1xx_HAL_Driver/Src\stm32f1xx_hal_flash_ex.c ****         status = FLASH_WaitForLastOperation((uint32_t)FLASH_TIMEOUT_VALUE);
 731:E:/VisualStudioCode/STM32F1_HAL/Drivers/STM32F1xx_HAL_Driver/Src\stm32f1xx_hal_flash_ex.c ****       }
 732:E:/VisualStudioCode/STM32F1_HAL/Drivers/STM32F1xx_HAL_Driver/Src\stm32f1xx_hal_flash_ex.c **** #endif /* FLASH_WRP0_WRP0 */
 733:E:/VisualStudioCode/STM32F1_HAL/Drivers/STM32F1xx_HAL_Driver/Src\stm32f1xx_hal_flash_ex.c **** 
 734:E:/VisualStudioCode/STM32F1_HAL/Drivers/STM32F1xx_HAL_Driver/Src\stm32f1xx_hal_flash_ex.c **** #if defined(FLASH_WRP1_WRP1)
 735:E:/VisualStudioCode/STM32F1_HAL/Drivers/STM32F1xx_HAL_Driver/Src\stm32f1xx_hal_flash_ex.c ****       if((status == HAL_OK) && (WRP1_Data != 0xFFU))
ARM GAS  C:\Users\ADMINI~1\AppData\Local\Temp\ccRfmGKA.s 			page 15


 736:E:/VisualStudioCode/STM32F1_HAL/Drivers/STM32F1xx_HAL_Driver/Src\stm32f1xx_hal_flash_ex.c ****       {
 737:E:/VisualStudioCode/STM32F1_HAL/Drivers/STM32F1xx_HAL_Driver/Src\stm32f1xx_hal_flash_ex.c ****         OB->WRP1 &= WRP1_Data;
 738:E:/VisualStudioCode/STM32F1_HAL/Drivers/STM32F1xx_HAL_Driver/Src\stm32f1xx_hal_flash_ex.c ****         
 739:E:/VisualStudioCode/STM32F1_HAL/Drivers/STM32F1xx_HAL_Driver/Src\stm32f1xx_hal_flash_ex.c ****         /* Wait for last operation to be completed */
 740:E:/VisualStudioCode/STM32F1_HAL/Drivers/STM32F1xx_HAL_Driver/Src\stm32f1xx_hal_flash_ex.c ****         status = FLASH_WaitForLastOperation((uint32_t)FLASH_TIMEOUT_VALUE);
 741:E:/VisualStudioCode/STM32F1_HAL/Drivers/STM32F1xx_HAL_Driver/Src\stm32f1xx_hal_flash_ex.c ****       }
 742:E:/VisualStudioCode/STM32F1_HAL/Drivers/STM32F1xx_HAL_Driver/Src\stm32f1xx_hal_flash_ex.c **** #endif /* FLASH_WRP1_WRP1 */
 743:E:/VisualStudioCode/STM32F1_HAL/Drivers/STM32F1xx_HAL_Driver/Src\stm32f1xx_hal_flash_ex.c **** 
 744:E:/VisualStudioCode/STM32F1_HAL/Drivers/STM32F1xx_HAL_Driver/Src\stm32f1xx_hal_flash_ex.c **** #if defined(FLASH_WRP2_WRP2)
 745:E:/VisualStudioCode/STM32F1_HAL/Drivers/STM32F1xx_HAL_Driver/Src\stm32f1xx_hal_flash_ex.c ****       if((status == HAL_OK) && (WRP2_Data != 0xFFU))
 746:E:/VisualStudioCode/STM32F1_HAL/Drivers/STM32F1xx_HAL_Driver/Src\stm32f1xx_hal_flash_ex.c ****       {
 747:E:/VisualStudioCode/STM32F1_HAL/Drivers/STM32F1xx_HAL_Driver/Src\stm32f1xx_hal_flash_ex.c ****         OB->WRP2 &= WRP2_Data;
 748:E:/VisualStudioCode/STM32F1_HAL/Drivers/STM32F1xx_HAL_Driver/Src\stm32f1xx_hal_flash_ex.c ****         
 749:E:/VisualStudioCode/STM32F1_HAL/Drivers/STM32F1xx_HAL_Driver/Src\stm32f1xx_hal_flash_ex.c ****         /* Wait for last operation to be completed */
 750:E:/VisualStudioCode/STM32F1_HAL/Drivers/STM32F1xx_HAL_Driver/Src\stm32f1xx_hal_flash_ex.c ****         status = FLASH_WaitForLastOperation((uint32_t)FLASH_TIMEOUT_VALUE);
 751:E:/VisualStudioCode/STM32F1_HAL/Drivers/STM32F1xx_HAL_Driver/Src\stm32f1xx_hal_flash_ex.c ****       }
 752:E:/VisualStudioCode/STM32F1_HAL/Drivers/STM32F1xx_HAL_Driver/Src\stm32f1xx_hal_flash_ex.c **** #endif /* FLASH_WRP2_WRP2 */
 753:E:/VisualStudioCode/STM32F1_HAL/Drivers/STM32F1xx_HAL_Driver/Src\stm32f1xx_hal_flash_ex.c **** 
 754:E:/VisualStudioCode/STM32F1_HAL/Drivers/STM32F1xx_HAL_Driver/Src\stm32f1xx_hal_flash_ex.c **** #if defined(FLASH_WRP3_WRP3)
 755:E:/VisualStudioCode/STM32F1_HAL/Drivers/STM32F1xx_HAL_Driver/Src\stm32f1xx_hal_flash_ex.c ****       if((status == HAL_OK) && (WRP3_Data != 0xFFU))
 756:E:/VisualStudioCode/STM32F1_HAL/Drivers/STM32F1xx_HAL_Driver/Src\stm32f1xx_hal_flash_ex.c ****       {
 757:E:/VisualStudioCode/STM32F1_HAL/Drivers/STM32F1xx_HAL_Driver/Src\stm32f1xx_hal_flash_ex.c ****         OB->WRP3 &= WRP3_Data;
 758:E:/VisualStudioCode/STM32F1_HAL/Drivers/STM32F1xx_HAL_Driver/Src\stm32f1xx_hal_flash_ex.c ****         
 759:E:/VisualStudioCode/STM32F1_HAL/Drivers/STM32F1xx_HAL_Driver/Src\stm32f1xx_hal_flash_ex.c ****         /* Wait for last operation to be completed */
 760:E:/VisualStudioCode/STM32F1_HAL/Drivers/STM32F1xx_HAL_Driver/Src\stm32f1xx_hal_flash_ex.c ****         status = FLASH_WaitForLastOperation((uint32_t)FLASH_TIMEOUT_VALUE);
 761:E:/VisualStudioCode/STM32F1_HAL/Drivers/STM32F1xx_HAL_Driver/Src\stm32f1xx_hal_flash_ex.c ****       }
 762:E:/VisualStudioCode/STM32F1_HAL/Drivers/STM32F1xx_HAL_Driver/Src\stm32f1xx_hal_flash_ex.c **** #endif /* FLASH_WRP3_WRP3 */
 763:E:/VisualStudioCode/STM32F1_HAL/Drivers/STM32F1xx_HAL_Driver/Src\stm32f1xx_hal_flash_ex.c **** 
 764:E:/VisualStudioCode/STM32F1_HAL/Drivers/STM32F1xx_HAL_Driver/Src\stm32f1xx_hal_flash_ex.c ****       /* if the program operation is completed, disable the OPTPG Bit */
 765:E:/VisualStudioCode/STM32F1_HAL/Drivers/STM32F1xx_HAL_Driver/Src\stm32f1xx_hal_flash_ex.c ****       CLEAR_BIT(FLASH->CR, FLASH_CR_OPTPG);
 766:E:/VisualStudioCode/STM32F1_HAL/Drivers/STM32F1xx_HAL_Driver/Src\stm32f1xx_hal_flash_ex.c ****     }
 767:E:/VisualStudioCode/STM32F1_HAL/Drivers/STM32F1xx_HAL_Driver/Src\stm32f1xx_hal_flash_ex.c ****   }
 768:E:/VisualStudioCode/STM32F1_HAL/Drivers/STM32F1xx_HAL_Driver/Src\stm32f1xx_hal_flash_ex.c ****   
 769:E:/VisualStudioCode/STM32F1_HAL/Drivers/STM32F1xx_HAL_Driver/Src\stm32f1xx_hal_flash_ex.c ****   return status;
 770:E:/VisualStudioCode/STM32F1_HAL/Drivers/STM32F1xx_HAL_Driver/Src\stm32f1xx_hal_flash_ex.c **** }
 771:E:/VisualStudioCode/STM32F1_HAL/Drivers/STM32F1xx_HAL_Driver/Src\stm32f1xx_hal_flash_ex.c **** 
 772:E:/VisualStudioCode/STM32F1_HAL/Drivers/STM32F1xx_HAL_Driver/Src\stm32f1xx_hal_flash_ex.c **** /**
 773:E:/VisualStudioCode/STM32F1_HAL/Drivers/STM32F1xx_HAL_Driver/Src\stm32f1xx_hal_flash_ex.c ****   * @brief  Disable the write protection of the desired pages
 774:E:/VisualStudioCode/STM32F1_HAL/Drivers/STM32F1xx_HAL_Driver/Src\stm32f1xx_hal_flash_ex.c ****   * @note   An option byte erase is done automatically in this function. 
 775:E:/VisualStudioCode/STM32F1_HAL/Drivers/STM32F1xx_HAL_Driver/Src\stm32f1xx_hal_flash_ex.c ****   * @note   When the memory read protection level is selected (RDP level = 1), 
 776:E:/VisualStudioCode/STM32F1_HAL/Drivers/STM32F1xx_HAL_Driver/Src\stm32f1xx_hal_flash_ex.c ****   *         it is not possible to program or erase the flash page i if   
 777:E:/VisualStudioCode/STM32F1_HAL/Drivers/STM32F1xx_HAL_Driver/Src\stm32f1xx_hal_flash_ex.c ****   *         debug features are connected or boot code is executed in RAM, even if nWRPi = 1 
 778:E:/VisualStudioCode/STM32F1_HAL/Drivers/STM32F1xx_HAL_Driver/Src\stm32f1xx_hal_flash_ex.c ****   * 
 779:E:/VisualStudioCode/STM32F1_HAL/Drivers/STM32F1xx_HAL_Driver/Src\stm32f1xx_hal_flash_ex.c ****   * @param  WriteProtectPage specifies the page(s) to be write unprotected.
 780:E:/VisualStudioCode/STM32F1_HAL/Drivers/STM32F1xx_HAL_Driver/Src\stm32f1xx_hal_flash_ex.c ****   *         The value of this parameter depend on device used within the same series 
 781:E:/VisualStudioCode/STM32F1_HAL/Drivers/STM32F1xx_HAL_Driver/Src\stm32f1xx_hal_flash_ex.c ****   * @retval HAL status 
 782:E:/VisualStudioCode/STM32F1_HAL/Drivers/STM32F1xx_HAL_Driver/Src\stm32f1xx_hal_flash_ex.c ****   */
 783:E:/VisualStudioCode/STM32F1_HAL/Drivers/STM32F1xx_HAL_Driver/Src\stm32f1xx_hal_flash_ex.c **** static HAL_StatusTypeDef FLASH_OB_DisableWRP(uint32_t WriteProtectPage)
 784:E:/VisualStudioCode/STM32F1_HAL/Drivers/STM32F1xx_HAL_Driver/Src\stm32f1xx_hal_flash_ex.c **** {
 785:E:/VisualStudioCode/STM32F1_HAL/Drivers/STM32F1xx_HAL_Driver/Src\stm32f1xx_hal_flash_ex.c ****   HAL_StatusTypeDef status = HAL_OK;
 786:E:/VisualStudioCode/STM32F1_HAL/Drivers/STM32F1xx_HAL_Driver/Src\stm32f1xx_hal_flash_ex.c ****   uint16_t WRP0_Data = 0xFFFF;
 787:E:/VisualStudioCode/STM32F1_HAL/Drivers/STM32F1xx_HAL_Driver/Src\stm32f1xx_hal_flash_ex.c **** #if defined(FLASH_WRP1_WRP1)
 788:E:/VisualStudioCode/STM32F1_HAL/Drivers/STM32F1xx_HAL_Driver/Src\stm32f1xx_hal_flash_ex.c ****   uint16_t WRP1_Data = 0xFFFF;
 789:E:/VisualStudioCode/STM32F1_HAL/Drivers/STM32F1xx_HAL_Driver/Src\stm32f1xx_hal_flash_ex.c **** #endif /* FLASH_WRP1_WRP1 */
 790:E:/VisualStudioCode/STM32F1_HAL/Drivers/STM32F1xx_HAL_Driver/Src\stm32f1xx_hal_flash_ex.c **** #if defined(FLASH_WRP2_WRP2)
 791:E:/VisualStudioCode/STM32F1_HAL/Drivers/STM32F1xx_HAL_Driver/Src\stm32f1xx_hal_flash_ex.c ****   uint16_t WRP2_Data = 0xFFFF;
 792:E:/VisualStudioCode/STM32F1_HAL/Drivers/STM32F1xx_HAL_Driver/Src\stm32f1xx_hal_flash_ex.c **** #endif /* FLASH_WRP2_WRP2 */
ARM GAS  C:\Users\ADMINI~1\AppData\Local\Temp\ccRfmGKA.s 			page 16


 793:E:/VisualStudioCode/STM32F1_HAL/Drivers/STM32F1xx_HAL_Driver/Src\stm32f1xx_hal_flash_ex.c **** #if defined(FLASH_WRP3_WRP3)
 794:E:/VisualStudioCode/STM32F1_HAL/Drivers/STM32F1xx_HAL_Driver/Src\stm32f1xx_hal_flash_ex.c ****   uint16_t WRP3_Data = 0xFFFF;
 795:E:/VisualStudioCode/STM32F1_HAL/Drivers/STM32F1xx_HAL_Driver/Src\stm32f1xx_hal_flash_ex.c **** #endif /* FLASH_WRP3_WRP3 */
 796:E:/VisualStudioCode/STM32F1_HAL/Drivers/STM32F1xx_HAL_Driver/Src\stm32f1xx_hal_flash_ex.c ****   
 797:E:/VisualStudioCode/STM32F1_HAL/Drivers/STM32F1xx_HAL_Driver/Src\stm32f1xx_hal_flash_ex.c ****   /* Check the parameters */
 798:E:/VisualStudioCode/STM32F1_HAL/Drivers/STM32F1xx_HAL_Driver/Src\stm32f1xx_hal_flash_ex.c ****   assert_param(IS_OB_WRP(WriteProtectPage));
 799:E:/VisualStudioCode/STM32F1_HAL/Drivers/STM32F1xx_HAL_Driver/Src\stm32f1xx_hal_flash_ex.c **** 
 800:E:/VisualStudioCode/STM32F1_HAL/Drivers/STM32F1xx_HAL_Driver/Src\stm32f1xx_hal_flash_ex.c ****   /* Get current write protected pages and the new pages to be unprotected ******/
 801:E:/VisualStudioCode/STM32F1_HAL/Drivers/STM32F1xx_HAL_Driver/Src\stm32f1xx_hal_flash_ex.c ****   WriteProtectPage = (FLASH_OB_GetWRP() | WriteProtectPage);
 802:E:/VisualStudioCode/STM32F1_HAL/Drivers/STM32F1xx_HAL_Driver/Src\stm32f1xx_hal_flash_ex.c **** 
 803:E:/VisualStudioCode/STM32F1_HAL/Drivers/STM32F1xx_HAL_Driver/Src\stm32f1xx_hal_flash_ex.c **** #if defined(OB_WRP_PAGES0TO15MASK)
 804:E:/VisualStudioCode/STM32F1_HAL/Drivers/STM32F1xx_HAL_Driver/Src\stm32f1xx_hal_flash_ex.c ****   WRP0_Data = (uint16_t)(WriteProtectPage & OB_WRP_PAGES0TO15MASK);
 805:E:/VisualStudioCode/STM32F1_HAL/Drivers/STM32F1xx_HAL_Driver/Src\stm32f1xx_hal_flash_ex.c **** #elif defined(OB_WRP_PAGES0TO31MASK)
 806:E:/VisualStudioCode/STM32F1_HAL/Drivers/STM32F1xx_HAL_Driver/Src\stm32f1xx_hal_flash_ex.c ****   WRP0_Data = (uint16_t)(WriteProtectPage & OB_WRP_PAGES0TO31MASK);
 807:E:/VisualStudioCode/STM32F1_HAL/Drivers/STM32F1xx_HAL_Driver/Src\stm32f1xx_hal_flash_ex.c **** #endif /* OB_WRP_PAGES0TO31MASK */
 808:E:/VisualStudioCode/STM32F1_HAL/Drivers/STM32F1xx_HAL_Driver/Src\stm32f1xx_hal_flash_ex.c ****   
 809:E:/VisualStudioCode/STM32F1_HAL/Drivers/STM32F1xx_HAL_Driver/Src\stm32f1xx_hal_flash_ex.c **** #if defined(OB_WRP_PAGES16TO31MASK)
 810:E:/VisualStudioCode/STM32F1_HAL/Drivers/STM32F1xx_HAL_Driver/Src\stm32f1xx_hal_flash_ex.c ****   WRP1_Data = (uint16_t)((WriteProtectPage & OB_WRP_PAGES16TO31MASK) >> 8U);
 811:E:/VisualStudioCode/STM32F1_HAL/Drivers/STM32F1xx_HAL_Driver/Src\stm32f1xx_hal_flash_ex.c **** #elif defined(OB_WRP_PAGES32TO63MASK)
 812:E:/VisualStudioCode/STM32F1_HAL/Drivers/STM32F1xx_HAL_Driver/Src\stm32f1xx_hal_flash_ex.c ****   WRP1_Data = (uint16_t)((WriteProtectPage & OB_WRP_PAGES32TO63MASK) >> 8U);
 813:E:/VisualStudioCode/STM32F1_HAL/Drivers/STM32F1xx_HAL_Driver/Src\stm32f1xx_hal_flash_ex.c **** #endif /* OB_WRP_PAGES32TO63MASK */
 814:E:/VisualStudioCode/STM32F1_HAL/Drivers/STM32F1xx_HAL_Driver/Src\stm32f1xx_hal_flash_ex.c ****  
 815:E:/VisualStudioCode/STM32F1_HAL/Drivers/STM32F1xx_HAL_Driver/Src\stm32f1xx_hal_flash_ex.c **** #if defined(OB_WRP_PAGES64TO95MASK)
 816:E:/VisualStudioCode/STM32F1_HAL/Drivers/STM32F1xx_HAL_Driver/Src\stm32f1xx_hal_flash_ex.c ****   WRP2_Data = (uint16_t)((WriteProtectPage & OB_WRP_PAGES64TO95MASK) >> 16U);
 817:E:/VisualStudioCode/STM32F1_HAL/Drivers/STM32F1xx_HAL_Driver/Src\stm32f1xx_hal_flash_ex.c **** #endif /* OB_WRP_PAGES64TO95MASK */
 818:E:/VisualStudioCode/STM32F1_HAL/Drivers/STM32F1xx_HAL_Driver/Src\stm32f1xx_hal_flash_ex.c **** #if defined(OB_WRP_PAGES32TO47MASK)
 819:E:/VisualStudioCode/STM32F1_HAL/Drivers/STM32F1xx_HAL_Driver/Src\stm32f1xx_hal_flash_ex.c ****   WRP2_Data = (uint16_t)((WriteProtectPage & OB_WRP_PAGES32TO47MASK) >> 16U);
 820:E:/VisualStudioCode/STM32F1_HAL/Drivers/STM32F1xx_HAL_Driver/Src\stm32f1xx_hal_flash_ex.c **** #endif /* OB_WRP_PAGES32TO47MASK */
 821:E:/VisualStudioCode/STM32F1_HAL/Drivers/STM32F1xx_HAL_Driver/Src\stm32f1xx_hal_flash_ex.c **** 
 822:E:/VisualStudioCode/STM32F1_HAL/Drivers/STM32F1xx_HAL_Driver/Src\stm32f1xx_hal_flash_ex.c **** #if defined(OB_WRP_PAGES96TO127MASK)
 823:E:/VisualStudioCode/STM32F1_HAL/Drivers/STM32F1xx_HAL_Driver/Src\stm32f1xx_hal_flash_ex.c ****   WRP3_Data = (uint16_t)((WriteProtectPage & OB_WRP_PAGES96TO127MASK) >> 24U); 
 824:E:/VisualStudioCode/STM32F1_HAL/Drivers/STM32F1xx_HAL_Driver/Src\stm32f1xx_hal_flash_ex.c **** #elif defined(OB_WRP_PAGES48TO255MASK)
 825:E:/VisualStudioCode/STM32F1_HAL/Drivers/STM32F1xx_HAL_Driver/Src\stm32f1xx_hal_flash_ex.c ****   WRP3_Data = (uint16_t)((WriteProtectPage & OB_WRP_PAGES48TO255MASK) >> 24U); 
 826:E:/VisualStudioCode/STM32F1_HAL/Drivers/STM32F1xx_HAL_Driver/Src\stm32f1xx_hal_flash_ex.c **** #elif defined(OB_WRP_PAGES48TO511MASK)
 827:E:/VisualStudioCode/STM32F1_HAL/Drivers/STM32F1xx_HAL_Driver/Src\stm32f1xx_hal_flash_ex.c ****   WRP3_Data = (uint16_t)((WriteProtectPage & OB_WRP_PAGES48TO511MASK) >> 24U); 
 828:E:/VisualStudioCode/STM32F1_HAL/Drivers/STM32F1xx_HAL_Driver/Src\stm32f1xx_hal_flash_ex.c **** #elif defined(OB_WRP_PAGES48TO127MASK)
 829:E:/VisualStudioCode/STM32F1_HAL/Drivers/STM32F1xx_HAL_Driver/Src\stm32f1xx_hal_flash_ex.c ****   WRP3_Data = (uint16_t)((WriteProtectPage & OB_WRP_PAGES48TO127MASK) >> 24U); 
 830:E:/VisualStudioCode/STM32F1_HAL/Drivers/STM32F1xx_HAL_Driver/Src\stm32f1xx_hal_flash_ex.c **** #endif /* OB_WRP_PAGES96TO127MASK */
 831:E:/VisualStudioCode/STM32F1_HAL/Drivers/STM32F1xx_HAL_Driver/Src\stm32f1xx_hal_flash_ex.c **** 
 832:E:/VisualStudioCode/STM32F1_HAL/Drivers/STM32F1xx_HAL_Driver/Src\stm32f1xx_hal_flash_ex.c ****     
 833:E:/VisualStudioCode/STM32F1_HAL/Drivers/STM32F1xx_HAL_Driver/Src\stm32f1xx_hal_flash_ex.c ****   /* Wait for last operation to be completed */
 834:E:/VisualStudioCode/STM32F1_HAL/Drivers/STM32F1xx_HAL_Driver/Src\stm32f1xx_hal_flash_ex.c ****   status = FLASH_WaitForLastOperation((uint32_t)FLASH_TIMEOUT_VALUE);
 835:E:/VisualStudioCode/STM32F1_HAL/Drivers/STM32F1xx_HAL_Driver/Src\stm32f1xx_hal_flash_ex.c **** 
 836:E:/VisualStudioCode/STM32F1_HAL/Drivers/STM32F1xx_HAL_Driver/Src\stm32f1xx_hal_flash_ex.c ****   if(status == HAL_OK)
 837:E:/VisualStudioCode/STM32F1_HAL/Drivers/STM32F1xx_HAL_Driver/Src\stm32f1xx_hal_flash_ex.c ****   { 
 838:E:/VisualStudioCode/STM32F1_HAL/Drivers/STM32F1xx_HAL_Driver/Src\stm32f1xx_hal_flash_ex.c ****     /* Clean the error context */
 839:E:/VisualStudioCode/STM32F1_HAL/Drivers/STM32F1xx_HAL_Driver/Src\stm32f1xx_hal_flash_ex.c ****     pFlash.ErrorCode = HAL_FLASH_ERROR_NONE;
 840:E:/VisualStudioCode/STM32F1_HAL/Drivers/STM32F1xx_HAL_Driver/Src\stm32f1xx_hal_flash_ex.c **** 
 841:E:/VisualStudioCode/STM32F1_HAL/Drivers/STM32F1xx_HAL_Driver/Src\stm32f1xx_hal_flash_ex.c ****     /* To be able to write again option byte, need to perform a option byte erase */
 842:E:/VisualStudioCode/STM32F1_HAL/Drivers/STM32F1xx_HAL_Driver/Src\stm32f1xx_hal_flash_ex.c ****     status = HAL_FLASHEx_OBErase();
 843:E:/VisualStudioCode/STM32F1_HAL/Drivers/STM32F1xx_HAL_Driver/Src\stm32f1xx_hal_flash_ex.c ****     if (status == HAL_OK)  
 844:E:/VisualStudioCode/STM32F1_HAL/Drivers/STM32F1xx_HAL_Driver/Src\stm32f1xx_hal_flash_ex.c ****     {
 845:E:/VisualStudioCode/STM32F1_HAL/Drivers/STM32F1xx_HAL_Driver/Src\stm32f1xx_hal_flash_ex.c ****       SET_BIT(FLASH->CR, FLASH_CR_OPTPG);
 846:E:/VisualStudioCode/STM32F1_HAL/Drivers/STM32F1xx_HAL_Driver/Src\stm32f1xx_hal_flash_ex.c **** 
 847:E:/VisualStudioCode/STM32F1_HAL/Drivers/STM32F1xx_HAL_Driver/Src\stm32f1xx_hal_flash_ex.c **** #if defined(FLASH_WRP0_WRP0)
 848:E:/VisualStudioCode/STM32F1_HAL/Drivers/STM32F1xx_HAL_Driver/Src\stm32f1xx_hal_flash_ex.c ****       if(WRP0_Data != 0xFFU)
 849:E:/VisualStudioCode/STM32F1_HAL/Drivers/STM32F1xx_HAL_Driver/Src\stm32f1xx_hal_flash_ex.c ****       {
ARM GAS  C:\Users\ADMINI~1\AppData\Local\Temp\ccRfmGKA.s 			page 17


 850:E:/VisualStudioCode/STM32F1_HAL/Drivers/STM32F1xx_HAL_Driver/Src\stm32f1xx_hal_flash_ex.c ****         OB->WRP0 |= WRP0_Data;
 851:E:/VisualStudioCode/STM32F1_HAL/Drivers/STM32F1xx_HAL_Driver/Src\stm32f1xx_hal_flash_ex.c ****         
 852:E:/VisualStudioCode/STM32F1_HAL/Drivers/STM32F1xx_HAL_Driver/Src\stm32f1xx_hal_flash_ex.c ****         /* Wait for last operation to be completed */
 853:E:/VisualStudioCode/STM32F1_HAL/Drivers/STM32F1xx_HAL_Driver/Src\stm32f1xx_hal_flash_ex.c ****         status = FLASH_WaitForLastOperation((uint32_t)FLASH_TIMEOUT_VALUE);
 854:E:/VisualStudioCode/STM32F1_HAL/Drivers/STM32F1xx_HAL_Driver/Src\stm32f1xx_hal_flash_ex.c ****       }
 855:E:/VisualStudioCode/STM32F1_HAL/Drivers/STM32F1xx_HAL_Driver/Src\stm32f1xx_hal_flash_ex.c **** #endif /* FLASH_WRP0_WRP0 */
 856:E:/VisualStudioCode/STM32F1_HAL/Drivers/STM32F1xx_HAL_Driver/Src\stm32f1xx_hal_flash_ex.c **** 
 857:E:/VisualStudioCode/STM32F1_HAL/Drivers/STM32F1xx_HAL_Driver/Src\stm32f1xx_hal_flash_ex.c **** #if defined(FLASH_WRP1_WRP1)
 858:E:/VisualStudioCode/STM32F1_HAL/Drivers/STM32F1xx_HAL_Driver/Src\stm32f1xx_hal_flash_ex.c ****       if((status == HAL_OK) && (WRP1_Data != 0xFFU))
 859:E:/VisualStudioCode/STM32F1_HAL/Drivers/STM32F1xx_HAL_Driver/Src\stm32f1xx_hal_flash_ex.c ****       {
 860:E:/VisualStudioCode/STM32F1_HAL/Drivers/STM32F1xx_HAL_Driver/Src\stm32f1xx_hal_flash_ex.c ****         OB->WRP1 |= WRP1_Data;
 861:E:/VisualStudioCode/STM32F1_HAL/Drivers/STM32F1xx_HAL_Driver/Src\stm32f1xx_hal_flash_ex.c ****         
 862:E:/VisualStudioCode/STM32F1_HAL/Drivers/STM32F1xx_HAL_Driver/Src\stm32f1xx_hal_flash_ex.c ****         /* Wait for last operation to be completed */
 863:E:/VisualStudioCode/STM32F1_HAL/Drivers/STM32F1xx_HAL_Driver/Src\stm32f1xx_hal_flash_ex.c ****         status = FLASH_WaitForLastOperation((uint32_t)FLASH_TIMEOUT_VALUE);
 864:E:/VisualStudioCode/STM32F1_HAL/Drivers/STM32F1xx_HAL_Driver/Src\stm32f1xx_hal_flash_ex.c ****       }
 865:E:/VisualStudioCode/STM32F1_HAL/Drivers/STM32F1xx_HAL_Driver/Src\stm32f1xx_hal_flash_ex.c **** #endif /* FLASH_WRP1_WRP1 */
 866:E:/VisualStudioCode/STM32F1_HAL/Drivers/STM32F1xx_HAL_Driver/Src\stm32f1xx_hal_flash_ex.c **** 
 867:E:/VisualStudioCode/STM32F1_HAL/Drivers/STM32F1xx_HAL_Driver/Src\stm32f1xx_hal_flash_ex.c **** #if defined(FLASH_WRP2_WRP2)
 868:E:/VisualStudioCode/STM32F1_HAL/Drivers/STM32F1xx_HAL_Driver/Src\stm32f1xx_hal_flash_ex.c ****       if((status == HAL_OK) && (WRP2_Data != 0xFFU))
 869:E:/VisualStudioCode/STM32F1_HAL/Drivers/STM32F1xx_HAL_Driver/Src\stm32f1xx_hal_flash_ex.c ****       {
 870:E:/VisualStudioCode/STM32F1_HAL/Drivers/STM32F1xx_HAL_Driver/Src\stm32f1xx_hal_flash_ex.c ****         OB->WRP2 |= WRP2_Data;
 871:E:/VisualStudioCode/STM32F1_HAL/Drivers/STM32F1xx_HAL_Driver/Src\stm32f1xx_hal_flash_ex.c ****         
 872:E:/VisualStudioCode/STM32F1_HAL/Drivers/STM32F1xx_HAL_Driver/Src\stm32f1xx_hal_flash_ex.c ****         /* Wait for last operation to be completed */
 873:E:/VisualStudioCode/STM32F1_HAL/Drivers/STM32F1xx_HAL_Driver/Src\stm32f1xx_hal_flash_ex.c ****         status = FLASH_WaitForLastOperation((uint32_t)FLASH_TIMEOUT_VALUE);
 874:E:/VisualStudioCode/STM32F1_HAL/Drivers/STM32F1xx_HAL_Driver/Src\stm32f1xx_hal_flash_ex.c ****       }
 875:E:/VisualStudioCode/STM32F1_HAL/Drivers/STM32F1xx_HAL_Driver/Src\stm32f1xx_hal_flash_ex.c **** #endif /* FLASH_WRP2_WRP2 */
 876:E:/VisualStudioCode/STM32F1_HAL/Drivers/STM32F1xx_HAL_Driver/Src\stm32f1xx_hal_flash_ex.c **** 
 877:E:/VisualStudioCode/STM32F1_HAL/Drivers/STM32F1xx_HAL_Driver/Src\stm32f1xx_hal_flash_ex.c **** #if defined(FLASH_WRP3_WRP3)
 878:E:/VisualStudioCode/STM32F1_HAL/Drivers/STM32F1xx_HAL_Driver/Src\stm32f1xx_hal_flash_ex.c ****       if((status == HAL_OK) && (WRP3_Data != 0xFFU))
 879:E:/VisualStudioCode/STM32F1_HAL/Drivers/STM32F1xx_HAL_Driver/Src\stm32f1xx_hal_flash_ex.c ****       {
 880:E:/VisualStudioCode/STM32F1_HAL/Drivers/STM32F1xx_HAL_Driver/Src\stm32f1xx_hal_flash_ex.c ****         OB->WRP3 |= WRP3_Data;
 881:E:/VisualStudioCode/STM32F1_HAL/Drivers/STM32F1xx_HAL_Driver/Src\stm32f1xx_hal_flash_ex.c ****         
 882:E:/VisualStudioCode/STM32F1_HAL/Drivers/STM32F1xx_HAL_Driver/Src\stm32f1xx_hal_flash_ex.c ****         /* Wait for last operation to be completed */
 883:E:/VisualStudioCode/STM32F1_HAL/Drivers/STM32F1xx_HAL_Driver/Src\stm32f1xx_hal_flash_ex.c ****         status = FLASH_WaitForLastOperation((uint32_t)FLASH_TIMEOUT_VALUE);
 884:E:/VisualStudioCode/STM32F1_HAL/Drivers/STM32F1xx_HAL_Driver/Src\stm32f1xx_hal_flash_ex.c ****       }
 885:E:/VisualStudioCode/STM32F1_HAL/Drivers/STM32F1xx_HAL_Driver/Src\stm32f1xx_hal_flash_ex.c **** #endif /* FLASH_WRP3_WRP3 */
 886:E:/VisualStudioCode/STM32F1_HAL/Drivers/STM32F1xx_HAL_Driver/Src\stm32f1xx_hal_flash_ex.c **** 
 887:E:/VisualStudioCode/STM32F1_HAL/Drivers/STM32F1xx_HAL_Driver/Src\stm32f1xx_hal_flash_ex.c ****       /* if the program operation is completed, disable the OPTPG Bit */
 888:E:/VisualStudioCode/STM32F1_HAL/Drivers/STM32F1xx_HAL_Driver/Src\stm32f1xx_hal_flash_ex.c ****       CLEAR_BIT(FLASH->CR, FLASH_CR_OPTPG);
 889:E:/VisualStudioCode/STM32F1_HAL/Drivers/STM32F1xx_HAL_Driver/Src\stm32f1xx_hal_flash_ex.c ****     }
 890:E:/VisualStudioCode/STM32F1_HAL/Drivers/STM32F1xx_HAL_Driver/Src\stm32f1xx_hal_flash_ex.c ****   }
 891:E:/VisualStudioCode/STM32F1_HAL/Drivers/STM32F1xx_HAL_Driver/Src\stm32f1xx_hal_flash_ex.c ****   return status;
 892:E:/VisualStudioCode/STM32F1_HAL/Drivers/STM32F1xx_HAL_Driver/Src\stm32f1xx_hal_flash_ex.c **** }
 893:E:/VisualStudioCode/STM32F1_HAL/Drivers/STM32F1xx_HAL_Driver/Src\stm32f1xx_hal_flash_ex.c **** 
 894:E:/VisualStudioCode/STM32F1_HAL/Drivers/STM32F1xx_HAL_Driver/Src\stm32f1xx_hal_flash_ex.c **** /**
 895:E:/VisualStudioCode/STM32F1_HAL/Drivers/STM32F1xx_HAL_Driver/Src\stm32f1xx_hal_flash_ex.c ****   * @brief  Set the read protection level.
 896:E:/VisualStudioCode/STM32F1_HAL/Drivers/STM32F1xx_HAL_Driver/Src\stm32f1xx_hal_flash_ex.c ****   * @param  ReadProtectLevel specifies the read protection level.
 897:E:/VisualStudioCode/STM32F1_HAL/Drivers/STM32F1xx_HAL_Driver/Src\stm32f1xx_hal_flash_ex.c ****   *         This parameter can be one of the following values:
 898:E:/VisualStudioCode/STM32F1_HAL/Drivers/STM32F1xx_HAL_Driver/Src\stm32f1xx_hal_flash_ex.c ****   *            @arg @ref OB_RDP_LEVEL_0 No protection
 899:E:/VisualStudioCode/STM32F1_HAL/Drivers/STM32F1xx_HAL_Driver/Src\stm32f1xx_hal_flash_ex.c ****   *            @arg @ref OB_RDP_LEVEL_1 Read protection of the memory
 900:E:/VisualStudioCode/STM32F1_HAL/Drivers/STM32F1xx_HAL_Driver/Src\stm32f1xx_hal_flash_ex.c ****   * @retval HAL status
 901:E:/VisualStudioCode/STM32F1_HAL/Drivers/STM32F1xx_HAL_Driver/Src\stm32f1xx_hal_flash_ex.c ****   */
 902:E:/VisualStudioCode/STM32F1_HAL/Drivers/STM32F1xx_HAL_Driver/Src\stm32f1xx_hal_flash_ex.c **** static HAL_StatusTypeDef FLASH_OB_RDP_LevelConfig(uint8_t ReadProtectLevel)
 903:E:/VisualStudioCode/STM32F1_HAL/Drivers/STM32F1xx_HAL_Driver/Src\stm32f1xx_hal_flash_ex.c **** {
 904:E:/VisualStudioCode/STM32F1_HAL/Drivers/STM32F1xx_HAL_Driver/Src\stm32f1xx_hal_flash_ex.c ****   HAL_StatusTypeDef status = HAL_OK;
 905:E:/VisualStudioCode/STM32F1_HAL/Drivers/STM32F1xx_HAL_Driver/Src\stm32f1xx_hal_flash_ex.c ****   
 906:E:/VisualStudioCode/STM32F1_HAL/Drivers/STM32F1xx_HAL_Driver/Src\stm32f1xx_hal_flash_ex.c ****   /* Check the parameters */
ARM GAS  C:\Users\ADMINI~1\AppData\Local\Temp\ccRfmGKA.s 			page 18


 907:E:/VisualStudioCode/STM32F1_HAL/Drivers/STM32F1xx_HAL_Driver/Src\stm32f1xx_hal_flash_ex.c ****   assert_param(IS_OB_RDP_LEVEL(ReadProtectLevel));
 908:E:/VisualStudioCode/STM32F1_HAL/Drivers/STM32F1xx_HAL_Driver/Src\stm32f1xx_hal_flash_ex.c ****   
 909:E:/VisualStudioCode/STM32F1_HAL/Drivers/STM32F1xx_HAL_Driver/Src\stm32f1xx_hal_flash_ex.c ****   /* Wait for last operation to be completed */
 910:E:/VisualStudioCode/STM32F1_HAL/Drivers/STM32F1xx_HAL_Driver/Src\stm32f1xx_hal_flash_ex.c ****   status = FLASH_WaitForLastOperation((uint32_t)FLASH_TIMEOUT_VALUE);
 911:E:/VisualStudioCode/STM32F1_HAL/Drivers/STM32F1xx_HAL_Driver/Src\stm32f1xx_hal_flash_ex.c ****   
 912:E:/VisualStudioCode/STM32F1_HAL/Drivers/STM32F1xx_HAL_Driver/Src\stm32f1xx_hal_flash_ex.c ****   if(status == HAL_OK)
 913:E:/VisualStudioCode/STM32F1_HAL/Drivers/STM32F1xx_HAL_Driver/Src\stm32f1xx_hal_flash_ex.c ****   { 
 914:E:/VisualStudioCode/STM32F1_HAL/Drivers/STM32F1xx_HAL_Driver/Src\stm32f1xx_hal_flash_ex.c ****     /* Clean the error context */
 915:E:/VisualStudioCode/STM32F1_HAL/Drivers/STM32F1xx_HAL_Driver/Src\stm32f1xx_hal_flash_ex.c ****     pFlash.ErrorCode = HAL_FLASH_ERROR_NONE;
 916:E:/VisualStudioCode/STM32F1_HAL/Drivers/STM32F1xx_HAL_Driver/Src\stm32f1xx_hal_flash_ex.c ****     
 917:E:/VisualStudioCode/STM32F1_HAL/Drivers/STM32F1xx_HAL_Driver/Src\stm32f1xx_hal_flash_ex.c ****     /* If the previous operation is completed, proceed to erase the option bytes */
 918:E:/VisualStudioCode/STM32F1_HAL/Drivers/STM32F1xx_HAL_Driver/Src\stm32f1xx_hal_flash_ex.c ****     SET_BIT(FLASH->CR, FLASH_CR_OPTER);
 919:E:/VisualStudioCode/STM32F1_HAL/Drivers/STM32F1xx_HAL_Driver/Src\stm32f1xx_hal_flash_ex.c ****     SET_BIT(FLASH->CR, FLASH_CR_STRT);
 920:E:/VisualStudioCode/STM32F1_HAL/Drivers/STM32F1xx_HAL_Driver/Src\stm32f1xx_hal_flash_ex.c **** 
 921:E:/VisualStudioCode/STM32F1_HAL/Drivers/STM32F1xx_HAL_Driver/Src\stm32f1xx_hal_flash_ex.c ****     /* Wait for last operation to be completed */
 922:E:/VisualStudioCode/STM32F1_HAL/Drivers/STM32F1xx_HAL_Driver/Src\stm32f1xx_hal_flash_ex.c ****     status = FLASH_WaitForLastOperation((uint32_t)FLASH_TIMEOUT_VALUE);
 923:E:/VisualStudioCode/STM32F1_HAL/Drivers/STM32F1xx_HAL_Driver/Src\stm32f1xx_hal_flash_ex.c **** 
 924:E:/VisualStudioCode/STM32F1_HAL/Drivers/STM32F1xx_HAL_Driver/Src\stm32f1xx_hal_flash_ex.c ****     /* If the erase operation is completed, disable the OPTER Bit */
 925:E:/VisualStudioCode/STM32F1_HAL/Drivers/STM32F1xx_HAL_Driver/Src\stm32f1xx_hal_flash_ex.c ****     CLEAR_BIT(FLASH->CR, FLASH_CR_OPTER);
 926:E:/VisualStudioCode/STM32F1_HAL/Drivers/STM32F1xx_HAL_Driver/Src\stm32f1xx_hal_flash_ex.c **** 
 927:E:/VisualStudioCode/STM32F1_HAL/Drivers/STM32F1xx_HAL_Driver/Src\stm32f1xx_hal_flash_ex.c ****     if(status == HAL_OK)
 928:E:/VisualStudioCode/STM32F1_HAL/Drivers/STM32F1xx_HAL_Driver/Src\stm32f1xx_hal_flash_ex.c ****     {
 929:E:/VisualStudioCode/STM32F1_HAL/Drivers/STM32F1xx_HAL_Driver/Src\stm32f1xx_hal_flash_ex.c ****       /* Enable the Option Bytes Programming operation */
 930:E:/VisualStudioCode/STM32F1_HAL/Drivers/STM32F1xx_HAL_Driver/Src\stm32f1xx_hal_flash_ex.c ****       SET_BIT(FLASH->CR, FLASH_CR_OPTPG);
 931:E:/VisualStudioCode/STM32F1_HAL/Drivers/STM32F1xx_HAL_Driver/Src\stm32f1xx_hal_flash_ex.c ****       
 932:E:/VisualStudioCode/STM32F1_HAL/Drivers/STM32F1xx_HAL_Driver/Src\stm32f1xx_hal_flash_ex.c ****       WRITE_REG(OB->RDP, ReadProtectLevel);
 933:E:/VisualStudioCode/STM32F1_HAL/Drivers/STM32F1xx_HAL_Driver/Src\stm32f1xx_hal_flash_ex.c ****       
 934:E:/VisualStudioCode/STM32F1_HAL/Drivers/STM32F1xx_HAL_Driver/Src\stm32f1xx_hal_flash_ex.c ****       /* Wait for last operation to be completed */
 935:E:/VisualStudioCode/STM32F1_HAL/Drivers/STM32F1xx_HAL_Driver/Src\stm32f1xx_hal_flash_ex.c ****       status = FLASH_WaitForLastOperation((uint32_t)FLASH_TIMEOUT_VALUE); 
 936:E:/VisualStudioCode/STM32F1_HAL/Drivers/STM32F1xx_HAL_Driver/Src\stm32f1xx_hal_flash_ex.c ****       
 937:E:/VisualStudioCode/STM32F1_HAL/Drivers/STM32F1xx_HAL_Driver/Src\stm32f1xx_hal_flash_ex.c ****       /* if the program operation is completed, disable the OPTPG Bit */
 938:E:/VisualStudioCode/STM32F1_HAL/Drivers/STM32F1xx_HAL_Driver/Src\stm32f1xx_hal_flash_ex.c ****       CLEAR_BIT(FLASH->CR, FLASH_CR_OPTPG);
 939:E:/VisualStudioCode/STM32F1_HAL/Drivers/STM32F1xx_HAL_Driver/Src\stm32f1xx_hal_flash_ex.c ****     }
 940:E:/VisualStudioCode/STM32F1_HAL/Drivers/STM32F1xx_HAL_Driver/Src\stm32f1xx_hal_flash_ex.c ****   }
 941:E:/VisualStudioCode/STM32F1_HAL/Drivers/STM32F1xx_HAL_Driver/Src\stm32f1xx_hal_flash_ex.c ****   
 942:E:/VisualStudioCode/STM32F1_HAL/Drivers/STM32F1xx_HAL_Driver/Src\stm32f1xx_hal_flash_ex.c ****   return status;
 943:E:/VisualStudioCode/STM32F1_HAL/Drivers/STM32F1xx_HAL_Driver/Src\stm32f1xx_hal_flash_ex.c **** }
 944:E:/VisualStudioCode/STM32F1_HAL/Drivers/STM32F1xx_HAL_Driver/Src\stm32f1xx_hal_flash_ex.c **** 
 945:E:/VisualStudioCode/STM32F1_HAL/Drivers/STM32F1xx_HAL_Driver/Src\stm32f1xx_hal_flash_ex.c **** /**
 946:E:/VisualStudioCode/STM32F1_HAL/Drivers/STM32F1xx_HAL_Driver/Src\stm32f1xx_hal_flash_ex.c ****   * @brief  Program the FLASH User Option Byte.    
 947:E:/VisualStudioCode/STM32F1_HAL/Drivers/STM32F1xx_HAL_Driver/Src\stm32f1xx_hal_flash_ex.c ****   * @note   Programming of the OB should be performed only after an erase (otherwise PGERR occurs)
 948:E:/VisualStudioCode/STM32F1_HAL/Drivers/STM32F1xx_HAL_Driver/Src\stm32f1xx_hal_flash_ex.c ****   * @param  UserConfig The FLASH User Option Bytes values FLASH_OBR_IWDG_SW(Bit2), 
 949:E:/VisualStudioCode/STM32F1_HAL/Drivers/STM32F1xx_HAL_Driver/Src\stm32f1xx_hal_flash_ex.c ****   *         FLASH_OBR_nRST_STOP(Bit3),FLASH_OBR_nRST_STDBY(Bit4).
 950:E:/VisualStudioCode/STM32F1_HAL/Drivers/STM32F1xx_HAL_Driver/Src\stm32f1xx_hal_flash_ex.c ****   *         And BFBF2(Bit5) for STM32F101xG and STM32F103xG . 
 951:E:/VisualStudioCode/STM32F1_HAL/Drivers/STM32F1xx_HAL_Driver/Src\stm32f1xx_hal_flash_ex.c ****   * @retval HAL status
 952:E:/VisualStudioCode/STM32F1_HAL/Drivers/STM32F1xx_HAL_Driver/Src\stm32f1xx_hal_flash_ex.c ****   */
 953:E:/VisualStudioCode/STM32F1_HAL/Drivers/STM32F1xx_HAL_Driver/Src\stm32f1xx_hal_flash_ex.c **** static HAL_StatusTypeDef FLASH_OB_UserConfig(uint8_t UserConfig)
 954:E:/VisualStudioCode/STM32F1_HAL/Drivers/STM32F1xx_HAL_Driver/Src\stm32f1xx_hal_flash_ex.c **** {
 955:E:/VisualStudioCode/STM32F1_HAL/Drivers/STM32F1xx_HAL_Driver/Src\stm32f1xx_hal_flash_ex.c ****   HAL_StatusTypeDef status = HAL_OK;
 956:E:/VisualStudioCode/STM32F1_HAL/Drivers/STM32F1xx_HAL_Driver/Src\stm32f1xx_hal_flash_ex.c **** 
 957:E:/VisualStudioCode/STM32F1_HAL/Drivers/STM32F1xx_HAL_Driver/Src\stm32f1xx_hal_flash_ex.c ****   /* Check the parameters */
 958:E:/VisualStudioCode/STM32F1_HAL/Drivers/STM32F1xx_HAL_Driver/Src\stm32f1xx_hal_flash_ex.c ****   assert_param(IS_OB_IWDG_SOURCE((UserConfig&OB_IWDG_SW)));
 959:E:/VisualStudioCode/STM32F1_HAL/Drivers/STM32F1xx_HAL_Driver/Src\stm32f1xx_hal_flash_ex.c ****   assert_param(IS_OB_STOP_SOURCE((UserConfig&OB_STOP_NO_RST)));
 960:E:/VisualStudioCode/STM32F1_HAL/Drivers/STM32F1xx_HAL_Driver/Src\stm32f1xx_hal_flash_ex.c ****   assert_param(IS_OB_STDBY_SOURCE((UserConfig&OB_STDBY_NO_RST)));
 961:E:/VisualStudioCode/STM32F1_HAL/Drivers/STM32F1xx_HAL_Driver/Src\stm32f1xx_hal_flash_ex.c **** #if defined(FLASH_BANK2_END)
 962:E:/VisualStudioCode/STM32F1_HAL/Drivers/STM32F1xx_HAL_Driver/Src\stm32f1xx_hal_flash_ex.c ****   assert_param(IS_OB_BOOT1((UserConfig&OB_BOOT1_SET)));
 963:E:/VisualStudioCode/STM32F1_HAL/Drivers/STM32F1xx_HAL_Driver/Src\stm32f1xx_hal_flash_ex.c **** #endif /* FLASH_BANK2_END */
ARM GAS  C:\Users\ADMINI~1\AppData\Local\Temp\ccRfmGKA.s 			page 19


 964:E:/VisualStudioCode/STM32F1_HAL/Drivers/STM32F1xx_HAL_Driver/Src\stm32f1xx_hal_flash_ex.c **** 
 965:E:/VisualStudioCode/STM32F1_HAL/Drivers/STM32F1xx_HAL_Driver/Src\stm32f1xx_hal_flash_ex.c ****   /* Wait for last operation to be completed */
 966:E:/VisualStudioCode/STM32F1_HAL/Drivers/STM32F1xx_HAL_Driver/Src\stm32f1xx_hal_flash_ex.c ****   status = FLASH_WaitForLastOperation((uint32_t)FLASH_TIMEOUT_VALUE);
 967:E:/VisualStudioCode/STM32F1_HAL/Drivers/STM32F1xx_HAL_Driver/Src\stm32f1xx_hal_flash_ex.c ****   
 968:E:/VisualStudioCode/STM32F1_HAL/Drivers/STM32F1xx_HAL_Driver/Src\stm32f1xx_hal_flash_ex.c ****   if(status == HAL_OK)
 969:E:/VisualStudioCode/STM32F1_HAL/Drivers/STM32F1xx_HAL_Driver/Src\stm32f1xx_hal_flash_ex.c ****   {     
 970:E:/VisualStudioCode/STM32F1_HAL/Drivers/STM32F1xx_HAL_Driver/Src\stm32f1xx_hal_flash_ex.c ****     /* Clean the error context */
 971:E:/VisualStudioCode/STM32F1_HAL/Drivers/STM32F1xx_HAL_Driver/Src\stm32f1xx_hal_flash_ex.c ****     pFlash.ErrorCode = HAL_FLASH_ERROR_NONE;
 972:E:/VisualStudioCode/STM32F1_HAL/Drivers/STM32F1xx_HAL_Driver/Src\stm32f1xx_hal_flash_ex.c **** 
 973:E:/VisualStudioCode/STM32F1_HAL/Drivers/STM32F1xx_HAL_Driver/Src\stm32f1xx_hal_flash_ex.c ****     /* Enable the Option Bytes Programming operation */
 974:E:/VisualStudioCode/STM32F1_HAL/Drivers/STM32F1xx_HAL_Driver/Src\stm32f1xx_hal_flash_ex.c ****     SET_BIT(FLASH->CR, FLASH_CR_OPTPG); 
 975:E:/VisualStudioCode/STM32F1_HAL/Drivers/STM32F1xx_HAL_Driver/Src\stm32f1xx_hal_flash_ex.c ****  
 976:E:/VisualStudioCode/STM32F1_HAL/Drivers/STM32F1xx_HAL_Driver/Src\stm32f1xx_hal_flash_ex.c **** #if defined(FLASH_BANK2_END)
 977:E:/VisualStudioCode/STM32F1_HAL/Drivers/STM32F1xx_HAL_Driver/Src\stm32f1xx_hal_flash_ex.c ****     OB->USER = (UserConfig | 0xF0U);
 978:E:/VisualStudioCode/STM32F1_HAL/Drivers/STM32F1xx_HAL_Driver/Src\stm32f1xx_hal_flash_ex.c **** #else
 979:E:/VisualStudioCode/STM32F1_HAL/Drivers/STM32F1xx_HAL_Driver/Src\stm32f1xx_hal_flash_ex.c ****     OB->USER = (UserConfig | 0x88U);
 980:E:/VisualStudioCode/STM32F1_HAL/Drivers/STM32F1xx_HAL_Driver/Src\stm32f1xx_hal_flash_ex.c **** #endif /* FLASH_BANK2_END */
 981:E:/VisualStudioCode/STM32F1_HAL/Drivers/STM32F1xx_HAL_Driver/Src\stm32f1xx_hal_flash_ex.c **** 
 982:E:/VisualStudioCode/STM32F1_HAL/Drivers/STM32F1xx_HAL_Driver/Src\stm32f1xx_hal_flash_ex.c ****     /* Wait for last operation to be completed */
 983:E:/VisualStudioCode/STM32F1_HAL/Drivers/STM32F1xx_HAL_Driver/Src\stm32f1xx_hal_flash_ex.c ****     status = FLASH_WaitForLastOperation((uint32_t)FLASH_TIMEOUT_VALUE);
 984:E:/VisualStudioCode/STM32F1_HAL/Drivers/STM32F1xx_HAL_Driver/Src\stm32f1xx_hal_flash_ex.c **** 
 985:E:/VisualStudioCode/STM32F1_HAL/Drivers/STM32F1xx_HAL_Driver/Src\stm32f1xx_hal_flash_ex.c ****     /* if the program operation is completed, disable the OPTPG Bit */
 986:E:/VisualStudioCode/STM32F1_HAL/Drivers/STM32F1xx_HAL_Driver/Src\stm32f1xx_hal_flash_ex.c ****     CLEAR_BIT(FLASH->CR, FLASH_CR_OPTPG);
 987:E:/VisualStudioCode/STM32F1_HAL/Drivers/STM32F1xx_HAL_Driver/Src\stm32f1xx_hal_flash_ex.c ****   }
 988:E:/VisualStudioCode/STM32F1_HAL/Drivers/STM32F1xx_HAL_Driver/Src\stm32f1xx_hal_flash_ex.c ****   
 989:E:/VisualStudioCode/STM32F1_HAL/Drivers/STM32F1xx_HAL_Driver/Src\stm32f1xx_hal_flash_ex.c ****   return status; 
 990:E:/VisualStudioCode/STM32F1_HAL/Drivers/STM32F1xx_HAL_Driver/Src\stm32f1xx_hal_flash_ex.c **** }
 991:E:/VisualStudioCode/STM32F1_HAL/Drivers/STM32F1xx_HAL_Driver/Src\stm32f1xx_hal_flash_ex.c **** 
 992:E:/VisualStudioCode/STM32F1_HAL/Drivers/STM32F1xx_HAL_Driver/Src\stm32f1xx_hal_flash_ex.c **** /**
 993:E:/VisualStudioCode/STM32F1_HAL/Drivers/STM32F1xx_HAL_Driver/Src\stm32f1xx_hal_flash_ex.c ****   * @brief  Programs a half word at a specified Option Byte Data address.
 994:E:/VisualStudioCode/STM32F1_HAL/Drivers/STM32F1xx_HAL_Driver/Src\stm32f1xx_hal_flash_ex.c ****   * @note   The function @ref HAL_FLASH_Unlock() should be called before to unlock the FLASH interf
 995:E:/VisualStudioCode/STM32F1_HAL/Drivers/STM32F1xx_HAL_Driver/Src\stm32f1xx_hal_flash_ex.c ****   *         The function @ref HAL_FLASH_OB_Unlock() should be called before to unlock the options b
 996:E:/VisualStudioCode/STM32F1_HAL/Drivers/STM32F1xx_HAL_Driver/Src\stm32f1xx_hal_flash_ex.c ****   *         The function @ref HAL_FLASH_OB_Launch() should be called after to force the reload of t
 997:E:/VisualStudioCode/STM32F1_HAL/Drivers/STM32F1xx_HAL_Driver/Src\stm32f1xx_hal_flash_ex.c ****   *         (system reset will occur)
 998:E:/VisualStudioCode/STM32F1_HAL/Drivers/STM32F1xx_HAL_Driver/Src\stm32f1xx_hal_flash_ex.c ****   *         Programming of the OB should be performed only after an erase (otherwise PGERR occurs)
 999:E:/VisualStudioCode/STM32F1_HAL/Drivers/STM32F1xx_HAL_Driver/Src\stm32f1xx_hal_flash_ex.c ****   * @param  Address specifies the address to be programmed.
1000:E:/VisualStudioCode/STM32F1_HAL/Drivers/STM32F1xx_HAL_Driver/Src\stm32f1xx_hal_flash_ex.c ****   *         This parameter can be 0x1FFFF804 or 0x1FFFF806. 
1001:E:/VisualStudioCode/STM32F1_HAL/Drivers/STM32F1xx_HAL_Driver/Src\stm32f1xx_hal_flash_ex.c ****   * @param  Data specifies the data to be programmed.
1002:E:/VisualStudioCode/STM32F1_HAL/Drivers/STM32F1xx_HAL_Driver/Src\stm32f1xx_hal_flash_ex.c ****   * @retval HAL status
1003:E:/VisualStudioCode/STM32F1_HAL/Drivers/STM32F1xx_HAL_Driver/Src\stm32f1xx_hal_flash_ex.c ****   */
1004:E:/VisualStudioCode/STM32F1_HAL/Drivers/STM32F1xx_HAL_Driver/Src\stm32f1xx_hal_flash_ex.c **** static HAL_StatusTypeDef FLASH_OB_ProgramData(uint32_t Address, uint8_t Data)
1005:E:/VisualStudioCode/STM32F1_HAL/Drivers/STM32F1xx_HAL_Driver/Src\stm32f1xx_hal_flash_ex.c **** {
1006:E:/VisualStudioCode/STM32F1_HAL/Drivers/STM32F1xx_HAL_Driver/Src\stm32f1xx_hal_flash_ex.c ****   HAL_StatusTypeDef status = HAL_ERROR;
1007:E:/VisualStudioCode/STM32F1_HAL/Drivers/STM32F1xx_HAL_Driver/Src\stm32f1xx_hal_flash_ex.c ****   
1008:E:/VisualStudioCode/STM32F1_HAL/Drivers/STM32F1xx_HAL_Driver/Src\stm32f1xx_hal_flash_ex.c ****   /* Check the parameters */
1009:E:/VisualStudioCode/STM32F1_HAL/Drivers/STM32F1xx_HAL_Driver/Src\stm32f1xx_hal_flash_ex.c ****   assert_param(IS_OB_DATA_ADDRESS(Address));
1010:E:/VisualStudioCode/STM32F1_HAL/Drivers/STM32F1xx_HAL_Driver/Src\stm32f1xx_hal_flash_ex.c ****   
1011:E:/VisualStudioCode/STM32F1_HAL/Drivers/STM32F1xx_HAL_Driver/Src\stm32f1xx_hal_flash_ex.c ****   /* Wait for last operation to be completed */
1012:E:/VisualStudioCode/STM32F1_HAL/Drivers/STM32F1xx_HAL_Driver/Src\stm32f1xx_hal_flash_ex.c ****   status = FLASH_WaitForLastOperation((uint32_t)FLASH_TIMEOUT_VALUE);
1013:E:/VisualStudioCode/STM32F1_HAL/Drivers/STM32F1xx_HAL_Driver/Src\stm32f1xx_hal_flash_ex.c ****   
1014:E:/VisualStudioCode/STM32F1_HAL/Drivers/STM32F1xx_HAL_Driver/Src\stm32f1xx_hal_flash_ex.c ****   if(status == HAL_OK)
1015:E:/VisualStudioCode/STM32F1_HAL/Drivers/STM32F1xx_HAL_Driver/Src\stm32f1xx_hal_flash_ex.c ****   {
1016:E:/VisualStudioCode/STM32F1_HAL/Drivers/STM32F1xx_HAL_Driver/Src\stm32f1xx_hal_flash_ex.c ****     /* Clean the error context */
1017:E:/VisualStudioCode/STM32F1_HAL/Drivers/STM32F1xx_HAL_Driver/Src\stm32f1xx_hal_flash_ex.c ****     pFlash.ErrorCode = HAL_FLASH_ERROR_NONE;
1018:E:/VisualStudioCode/STM32F1_HAL/Drivers/STM32F1xx_HAL_Driver/Src\stm32f1xx_hal_flash_ex.c **** 
1019:E:/VisualStudioCode/STM32F1_HAL/Drivers/STM32F1xx_HAL_Driver/Src\stm32f1xx_hal_flash_ex.c ****     /* Enables the Option Bytes Programming operation */
1020:E:/VisualStudioCode/STM32F1_HAL/Drivers/STM32F1xx_HAL_Driver/Src\stm32f1xx_hal_flash_ex.c ****     SET_BIT(FLASH->CR, FLASH_CR_OPTPG); 
ARM GAS  C:\Users\ADMINI~1\AppData\Local\Temp\ccRfmGKA.s 			page 20


1021:E:/VisualStudioCode/STM32F1_HAL/Drivers/STM32F1xx_HAL_Driver/Src\stm32f1xx_hal_flash_ex.c ****     *(__IO uint16_t*)Address = Data;
1022:E:/VisualStudioCode/STM32F1_HAL/Drivers/STM32F1xx_HAL_Driver/Src\stm32f1xx_hal_flash_ex.c ****     
1023:E:/VisualStudioCode/STM32F1_HAL/Drivers/STM32F1xx_HAL_Driver/Src\stm32f1xx_hal_flash_ex.c ****     /* Wait for last operation to be completed */
1024:E:/VisualStudioCode/STM32F1_HAL/Drivers/STM32F1xx_HAL_Driver/Src\stm32f1xx_hal_flash_ex.c ****     status = FLASH_WaitForLastOperation((uint32_t)FLASH_TIMEOUT_VALUE);
1025:E:/VisualStudioCode/STM32F1_HAL/Drivers/STM32F1xx_HAL_Driver/Src\stm32f1xx_hal_flash_ex.c ****     
1026:E:/VisualStudioCode/STM32F1_HAL/Drivers/STM32F1xx_HAL_Driver/Src\stm32f1xx_hal_flash_ex.c ****     /* If the program operation is completed, disable the OPTPG Bit */
1027:E:/VisualStudioCode/STM32F1_HAL/Drivers/STM32F1xx_HAL_Driver/Src\stm32f1xx_hal_flash_ex.c ****     CLEAR_BIT(FLASH->CR, FLASH_CR_OPTPG);
1028:E:/VisualStudioCode/STM32F1_HAL/Drivers/STM32F1xx_HAL_Driver/Src\stm32f1xx_hal_flash_ex.c ****   }
1029:E:/VisualStudioCode/STM32F1_HAL/Drivers/STM32F1xx_HAL_Driver/Src\stm32f1xx_hal_flash_ex.c ****   /* Return the Option Byte Data Program Status */
1030:E:/VisualStudioCode/STM32F1_HAL/Drivers/STM32F1xx_HAL_Driver/Src\stm32f1xx_hal_flash_ex.c ****   return status;
1031:E:/VisualStudioCode/STM32F1_HAL/Drivers/STM32F1xx_HAL_Driver/Src\stm32f1xx_hal_flash_ex.c **** }
1032:E:/VisualStudioCode/STM32F1_HAL/Drivers/STM32F1xx_HAL_Driver/Src\stm32f1xx_hal_flash_ex.c **** 
1033:E:/VisualStudioCode/STM32F1_HAL/Drivers/STM32F1xx_HAL_Driver/Src\stm32f1xx_hal_flash_ex.c **** /**
1034:E:/VisualStudioCode/STM32F1_HAL/Drivers/STM32F1xx_HAL_Driver/Src\stm32f1xx_hal_flash_ex.c ****   * @brief  Return the FLASH Write Protection Option Bytes value.
1035:E:/VisualStudioCode/STM32F1_HAL/Drivers/STM32F1xx_HAL_Driver/Src\stm32f1xx_hal_flash_ex.c ****   * @retval The FLASH Write Protection Option Bytes value
1036:E:/VisualStudioCode/STM32F1_HAL/Drivers/STM32F1xx_HAL_Driver/Src\stm32f1xx_hal_flash_ex.c ****   */
1037:E:/VisualStudioCode/STM32F1_HAL/Drivers/STM32F1xx_HAL_Driver/Src\stm32f1xx_hal_flash_ex.c **** static uint32_t FLASH_OB_GetWRP(void)
1038:E:/VisualStudioCode/STM32F1_HAL/Drivers/STM32F1xx_HAL_Driver/Src\stm32f1xx_hal_flash_ex.c **** {
  67              		.loc 1 1038 0
  68              		.cfi_startproc
  69              		@ args = 0, pretend = 0, frame = 0
  70              		@ frame_needed = 0, uses_anonymous_args = 0
  71              		@ link register save eliminated.
1039:E:/VisualStudioCode/STM32F1_HAL/Drivers/STM32F1xx_HAL_Driver/Src\stm32f1xx_hal_flash_ex.c ****   /* Return the FLASH write protection Register value */
1040:E:/VisualStudioCode/STM32F1_HAL/Drivers/STM32F1xx_HAL_Driver/Src\stm32f1xx_hal_flash_ex.c ****   return (uint32_t)(READ_REG(FLASH->WRPR));
  72              		.loc 1 1040 0
  73 0000 014B     		ldr	r3, .L5
  74 0002 186A     		ldr	r0, [r3, #32]
1041:E:/VisualStudioCode/STM32F1_HAL/Drivers/STM32F1xx_HAL_Driver/Src\stm32f1xx_hal_flash_ex.c **** }
  75              		.loc 1 1041 0
  76 0004 7047     		bx	lr
  77              	.L6:
  78 0006 00BF     		.align	2
  79              	.L5:
  80 0008 00200240 		.word	1073881088
  81              		.cfi_endproc
  82              	.LFE76:
  83              		.cantunwind
  84              		.fnend
  86              		.section	.text._ZL15FLASH_OB_GetRDPv,"ax",%progbits
  87              		.align	1
  88              		.syntax unified
  89              		.thumb
  90              		.thumb_func
  91              		.fpu softvfp
  93              	_ZL15FLASH_OB_GetRDPv:
  94              		.fnstart
  95              	.LFB77:
1042:E:/VisualStudioCode/STM32F1_HAL/Drivers/STM32F1xx_HAL_Driver/Src\stm32f1xx_hal_flash_ex.c **** 
1043:E:/VisualStudioCode/STM32F1_HAL/Drivers/STM32F1xx_HAL_Driver/Src\stm32f1xx_hal_flash_ex.c **** /**
1044:E:/VisualStudioCode/STM32F1_HAL/Drivers/STM32F1xx_HAL_Driver/Src\stm32f1xx_hal_flash_ex.c ****   * @brief  Returns the FLASH Read Protection level.
1045:E:/VisualStudioCode/STM32F1_HAL/Drivers/STM32F1xx_HAL_Driver/Src\stm32f1xx_hal_flash_ex.c ****   * @retval FLASH RDP level
1046:E:/VisualStudioCode/STM32F1_HAL/Drivers/STM32F1xx_HAL_Driver/Src\stm32f1xx_hal_flash_ex.c ****   *         This parameter can be one of the following values:
1047:E:/VisualStudioCode/STM32F1_HAL/Drivers/STM32F1xx_HAL_Driver/Src\stm32f1xx_hal_flash_ex.c ****   *            @arg @ref OB_RDP_LEVEL_0 No protection
1048:E:/VisualStudioCode/STM32F1_HAL/Drivers/STM32F1xx_HAL_Driver/Src\stm32f1xx_hal_flash_ex.c ****   *            @arg @ref OB_RDP_LEVEL_1 Read protection of the memory
1049:E:/VisualStudioCode/STM32F1_HAL/Drivers/STM32F1xx_HAL_Driver/Src\stm32f1xx_hal_flash_ex.c ****   */
1050:E:/VisualStudioCode/STM32F1_HAL/Drivers/STM32F1xx_HAL_Driver/Src\stm32f1xx_hal_flash_ex.c **** static uint32_t FLASH_OB_GetRDP(void)
ARM GAS  C:\Users\ADMINI~1\AppData\Local\Temp\ccRfmGKA.s 			page 21


1051:E:/VisualStudioCode/STM32F1_HAL/Drivers/STM32F1xx_HAL_Driver/Src\stm32f1xx_hal_flash_ex.c **** {
  96              		.loc 1 1051 0
  97              		.cfi_startproc
  98              		@ args = 0, pretend = 0, frame = 0
  99              		@ frame_needed = 0, uses_anonymous_args = 0
 100              		@ link register save eliminated.
 101              	.LVL1:
1052:E:/VisualStudioCode/STM32F1_HAL/Drivers/STM32F1xx_HAL_Driver/Src\stm32f1xx_hal_flash_ex.c ****   uint32_t readstatus = OB_RDP_LEVEL_0;
1053:E:/VisualStudioCode/STM32F1_HAL/Drivers/STM32F1xx_HAL_Driver/Src\stm32f1xx_hal_flash_ex.c ****   uint32_t tmp_reg = 0U;
1054:E:/VisualStudioCode/STM32F1_HAL/Drivers/STM32F1xx_HAL_Driver/Src\stm32f1xx_hal_flash_ex.c ****   
1055:E:/VisualStudioCode/STM32F1_HAL/Drivers/STM32F1xx_HAL_Driver/Src\stm32f1xx_hal_flash_ex.c ****   /* Read RDP level bits */
1056:E:/VisualStudioCode/STM32F1_HAL/Drivers/STM32F1xx_HAL_Driver/Src\stm32f1xx_hal_flash_ex.c ****   tmp_reg = READ_BIT(FLASH->OBR, FLASH_OBR_RDPRT);
 102              		.loc 1 1056 0
 103 0000 044B     		ldr	r3, .L10
 104 0002 DB69     		ldr	r3, [r3, #28]
 105              	.LVL2:
1057:E:/VisualStudioCode/STM32F1_HAL/Drivers/STM32F1xx_HAL_Driver/Src\stm32f1xx_hal_flash_ex.c **** 
1058:E:/VisualStudioCode/STM32F1_HAL/Drivers/STM32F1xx_HAL_Driver/Src\stm32f1xx_hal_flash_ex.c ****   if (tmp_reg == FLASH_OBR_RDPRT)
 106              		.loc 1 1058 0
 107 0004 13F0020F 		tst	r3, #2
 108 0008 01D0     		beq	.L9
1059:E:/VisualStudioCode/STM32F1_HAL/Drivers/STM32F1xx_HAL_Driver/Src\stm32f1xx_hal_flash_ex.c ****   {
1060:E:/VisualStudioCode/STM32F1_HAL/Drivers/STM32F1xx_HAL_Driver/Src\stm32f1xx_hal_flash_ex.c ****     readstatus = OB_RDP_LEVEL_1;
 109              		.loc 1 1060 0
 110 000a 0020     		movs	r0, #0
 111 000c 7047     		bx	lr
 112              	.L9:
1061:E:/VisualStudioCode/STM32F1_HAL/Drivers/STM32F1xx_HAL_Driver/Src\stm32f1xx_hal_flash_ex.c ****   }
1062:E:/VisualStudioCode/STM32F1_HAL/Drivers/STM32F1xx_HAL_Driver/Src\stm32f1xx_hal_flash_ex.c ****   else 
1063:E:/VisualStudioCode/STM32F1_HAL/Drivers/STM32F1xx_HAL_Driver/Src\stm32f1xx_hal_flash_ex.c ****   {
1064:E:/VisualStudioCode/STM32F1_HAL/Drivers/STM32F1xx_HAL_Driver/Src\stm32f1xx_hal_flash_ex.c ****     readstatus = OB_RDP_LEVEL_0;
 113              		.loc 1 1064 0
 114 000e A520     		movs	r0, #165
1065:E:/VisualStudioCode/STM32F1_HAL/Drivers/STM32F1xx_HAL_Driver/Src\stm32f1xx_hal_flash_ex.c ****   }
1066:E:/VisualStudioCode/STM32F1_HAL/Drivers/STM32F1xx_HAL_Driver/Src\stm32f1xx_hal_flash_ex.c **** 
1067:E:/VisualStudioCode/STM32F1_HAL/Drivers/STM32F1xx_HAL_Driver/Src\stm32f1xx_hal_flash_ex.c ****   return readstatus;
1068:E:/VisualStudioCode/STM32F1_HAL/Drivers/STM32F1xx_HAL_Driver/Src\stm32f1xx_hal_flash_ex.c **** }
 115              		.loc 1 1068 0
 116 0010 7047     		bx	lr
 117              	.L11:
 118 0012 00BF     		.align	2
 119              	.L10:
 120 0014 00200240 		.word	1073881088
 121              		.cfi_endproc
 122              	.LFE77:
 123              		.cantunwind
 124              		.fnend
 126              		.section	.text._ZL16FLASH_OB_GetUserv,"ax",%progbits
 127              		.align	1
 128              		.syntax unified
 129              		.thumb
 130              		.thumb_func
 131              		.fpu softvfp
 133              	_ZL16FLASH_OB_GetUserv:
 134              		.fnstart
 135              	.LFB78:
1069:E:/VisualStudioCode/STM32F1_HAL/Drivers/STM32F1xx_HAL_Driver/Src\stm32f1xx_hal_flash_ex.c **** 
ARM GAS  C:\Users\ADMINI~1\AppData\Local\Temp\ccRfmGKA.s 			page 22


1070:E:/VisualStudioCode/STM32F1_HAL/Drivers/STM32F1xx_HAL_Driver/Src\stm32f1xx_hal_flash_ex.c **** /**
1071:E:/VisualStudioCode/STM32F1_HAL/Drivers/STM32F1xx_HAL_Driver/Src\stm32f1xx_hal_flash_ex.c ****   * @brief  Return the FLASH User Option Byte value.
1072:E:/VisualStudioCode/STM32F1_HAL/Drivers/STM32F1xx_HAL_Driver/Src\stm32f1xx_hal_flash_ex.c ****   * @retval The FLASH User Option Bytes values: FLASH_OBR_IWDG_SW(Bit2), 
1073:E:/VisualStudioCode/STM32F1_HAL/Drivers/STM32F1xx_HAL_Driver/Src\stm32f1xx_hal_flash_ex.c ****   *         FLASH_OBR_nRST_STOP(Bit3),FLASH_OBR_nRST_STDBY(Bit4).
1074:E:/VisualStudioCode/STM32F1_HAL/Drivers/STM32F1xx_HAL_Driver/Src\stm32f1xx_hal_flash_ex.c ****   *         And FLASH_OBR_BFB2(Bit5) for STM32F101xG and STM32F103xG . 
1075:E:/VisualStudioCode/STM32F1_HAL/Drivers/STM32F1xx_HAL_Driver/Src\stm32f1xx_hal_flash_ex.c ****   */
1076:E:/VisualStudioCode/STM32F1_HAL/Drivers/STM32F1xx_HAL_Driver/Src\stm32f1xx_hal_flash_ex.c **** static uint8_t FLASH_OB_GetUser(void)
1077:E:/VisualStudioCode/STM32F1_HAL/Drivers/STM32F1xx_HAL_Driver/Src\stm32f1xx_hal_flash_ex.c **** {
 136              		.loc 1 1077 0
 137              		.cfi_startproc
 138              		@ args = 0, pretend = 0, frame = 0
 139              		@ frame_needed = 0, uses_anonymous_args = 0
 140              		@ link register save eliminated.
1078:E:/VisualStudioCode/STM32F1_HAL/Drivers/STM32F1xx_HAL_Driver/Src\stm32f1xx_hal_flash_ex.c ****   /* Return the User Option Byte */
1079:E:/VisualStudioCode/STM32F1_HAL/Drivers/STM32F1xx_HAL_Driver/Src\stm32f1xx_hal_flash_ex.c ****   return (uint8_t)((READ_REG(FLASH->OBR) & FLASH_OBR_USER) >> FLASH_POSITION_IWDGSW_BIT);
 141              		.loc 1 1079 0
 142 0000 024B     		ldr	r3, .L13
 143 0002 D869     		ldr	r0, [r3, #28]
1080:E:/VisualStudioCode/STM32F1_HAL/Drivers/STM32F1xx_HAL_Driver/Src\stm32f1xx_hal_flash_ex.c **** }
 144              		.loc 1 1080 0
 145 0004 C0F38200 		ubfx	r0, r0, #2, #3
 146 0008 7047     		bx	lr
 147              	.L14:
 148 000a 00BF     		.align	2
 149              	.L13:
 150 000c 00200240 		.word	1073881088
 151              		.cfi_endproc
 152              	.LFE78:
 153              		.cantunwind
 154              		.fnend
 156              		.section	.text._ZL24FLASH_OB_RDP_LevelConfigh,"ax",%progbits
 157              		.align	1
 158              		.syntax unified
 159              		.thumb
 160              		.thumb_func
 161              		.fpu softvfp
 163              	_ZL24FLASH_OB_RDP_LevelConfigh:
 164              		.fnstart
 165              	.LFB73:
 903:E:/VisualStudioCode/STM32F1_HAL/Drivers/STM32F1xx_HAL_Driver/Src\stm32f1xx_hal_flash_ex.c ****   HAL_StatusTypeDef status = HAL_OK;
 166              		.loc 1 903 0
 167              		.cfi_startproc
 168              		@ args = 0, pretend = 0, frame = 0
 169              		@ frame_needed = 0, uses_anonymous_args = 0
 170              	.LVL3:
 171 0000 38B5     		push	{r3, r4, r5, lr}
 172              		.save {r3, r4, r5, lr}
 173              	.LCFI0:
 174              		.cfi_def_cfa_offset 16
 175              		.cfi_offset 3, -16
 176              		.cfi_offset 4, -12
 177              		.cfi_offset 5, -8
 178              		.cfi_offset 14, -4
 179 0002 0546     		mov	r5, r0
 180              	.LVL4:
 910:E:/VisualStudioCode/STM32F1_HAL/Drivers/STM32F1xx_HAL_Driver/Src\stm32f1xx_hal_flash_ex.c ****   
 181              		.loc 1 910 0
ARM GAS  C:\Users\ADMINI~1\AppData\Local\Temp\ccRfmGKA.s 			page 23


 182 0004 4CF25030 		movw	r0, #50000
 183              	.LVL5:
 184 0008 FFF7FEFF 		bl	FLASH_WaitForLastOperation
 185              	.LVL6:
 912:E:/VisualStudioCode/STM32F1_HAL/Drivers/STM32F1xx_HAL_Driver/Src\stm32f1xx_hal_flash_ex.c ****   { 
 186              		.loc 1 912 0
 187 000c 0346     		mov	r3, r0
 188 000e 08B1     		cbz	r0, .L18
 189              	.LVL7:
 190              	.L16:
 943:E:/VisualStudioCode/STM32F1_HAL/Drivers/STM32F1xx_HAL_Driver/Src\stm32f1xx_hal_flash_ex.c **** 
 191              		.loc 1 943 0
 192 0010 1846     		mov	r0, r3
 193 0012 38BD     		pop	{r3, r4, r5, pc}
 194              	.LVL8:
 195              	.L18:
 915:E:/VisualStudioCode/STM32F1_HAL/Drivers/STM32F1xx_HAL_Driver/Src\stm32f1xx_hal_flash_ex.c ****     
 196              		.loc 1 915 0
 197 0014 134B     		ldr	r3, .L19
 198 0016 0022     		movs	r2, #0
 199 0018 DA61     		str	r2, [r3, #28]
 918:E:/VisualStudioCode/STM32F1_HAL/Drivers/STM32F1xx_HAL_Driver/Src\stm32f1xx_hal_flash_ex.c ****     SET_BIT(FLASH->CR, FLASH_CR_STRT);
 200              		.loc 1 918 0
 201 001a 134C     		ldr	r4, .L19+4
 202 001c 2369     		ldr	r3, [r4, #16]
 203 001e 43F02003 		orr	r3, r3, #32
 204 0022 2361     		str	r3, [r4, #16]
 919:E:/VisualStudioCode/STM32F1_HAL/Drivers/STM32F1xx_HAL_Driver/Src\stm32f1xx_hal_flash_ex.c **** 
 205              		.loc 1 919 0
 206 0024 2369     		ldr	r3, [r4, #16]
 207 0026 43F04003 		orr	r3, r3, #64
 208 002a 2361     		str	r3, [r4, #16]
 922:E:/VisualStudioCode/STM32F1_HAL/Drivers/STM32F1xx_HAL_Driver/Src\stm32f1xx_hal_flash_ex.c **** 
 209              		.loc 1 922 0
 210 002c 4CF25030 		movw	r0, #50000
 211              	.LVL9:
 212 0030 FFF7FEFF 		bl	FLASH_WaitForLastOperation
 213              	.LVL10:
 925:E:/VisualStudioCode/STM32F1_HAL/Drivers/STM32F1xx_HAL_Driver/Src\stm32f1xx_hal_flash_ex.c **** 
 214              		.loc 1 925 0
 215 0034 2369     		ldr	r3, [r4, #16]
 216 0036 23F02003 		bic	r3, r3, #32
 217 003a 2361     		str	r3, [r4, #16]
 927:E:/VisualStudioCode/STM32F1_HAL/Drivers/STM32F1xx_HAL_Driver/Src\stm32f1xx_hal_flash_ex.c ****     {
 218              		.loc 1 927 0
 219 003c 0346     		mov	r3, r0
 220 003e 0028     		cmp	r0, #0
 221 0040 E6D1     		bne	.L16
 930:E:/VisualStudioCode/STM32F1_HAL/Drivers/STM32F1xx_HAL_Driver/Src\stm32f1xx_hal_flash_ex.c ****       
 222              		.loc 1 930 0
 223 0042 2369     		ldr	r3, [r4, #16]
 224 0044 43F01003 		orr	r3, r3, #16
 225 0048 2361     		str	r3, [r4, #16]
 932:E:/VisualStudioCode/STM32F1_HAL/Drivers/STM32F1xx_HAL_Driver/Src\stm32f1xx_hal_flash_ex.c ****       
 226              		.loc 1 932 0
 227 004a ADB2     		uxth	r5, r5
 228 004c 074B     		ldr	r3, .L19+8
ARM GAS  C:\Users\ADMINI~1\AppData\Local\Temp\ccRfmGKA.s 			page 24


 229 004e 1D80     		strh	r5, [r3]	@ movhi
 935:E:/VisualStudioCode/STM32F1_HAL/Drivers/STM32F1xx_HAL_Driver/Src\stm32f1xx_hal_flash_ex.c ****       
 230              		.loc 1 935 0
 231 0050 4CF25030 		movw	r0, #50000
 232              	.LVL11:
 233 0054 FFF7FEFF 		bl	FLASH_WaitForLastOperation
 234              	.LVL12:
 235 0058 0346     		mov	r3, r0
 236              	.LVL13:
 938:E:/VisualStudioCode/STM32F1_HAL/Drivers/STM32F1xx_HAL_Driver/Src\stm32f1xx_hal_flash_ex.c ****     }
 237              		.loc 1 938 0
 238 005a 2269     		ldr	r2, [r4, #16]
 239 005c 22F01002 		bic	r2, r2, #16
 240 0060 2261     		str	r2, [r4, #16]
 241 0062 D5E7     		b	.L16
 242              	.L20:
 243              		.align	2
 244              	.L19:
 245 0064 00000000 		.word	pFlash
 246 0068 00200240 		.word	1073881088
 247 006c 00F8FF1F 		.word	536868864
 248              		.cfi_endproc
 249              	.LFE73:
 250              		.fnend
 252              		.section	.text._ZL19FLASH_OB_UserConfigh,"ax",%progbits
 253              		.align	1
 254              		.syntax unified
 255              		.thumb
 256              		.thumb_func
 257              		.fpu softvfp
 259              	_ZL19FLASH_OB_UserConfigh:
 260              		.fnstart
 261              	.LFB74:
 954:E:/VisualStudioCode/STM32F1_HAL/Drivers/STM32F1xx_HAL_Driver/Src\stm32f1xx_hal_flash_ex.c ****   HAL_StatusTypeDef status = HAL_OK;
 262              		.loc 1 954 0
 263              		.cfi_startproc
 264              		@ args = 0, pretend = 0, frame = 0
 265              		@ frame_needed = 0, uses_anonymous_args = 0
 266              	.LVL14:
 267 0000 38B5     		push	{r3, r4, r5, lr}
 268              		.save {r3, r4, r5, lr}
 269              	.LCFI1:
 270              		.cfi_def_cfa_offset 16
 271              		.cfi_offset 3, -16
 272              		.cfi_offset 4, -12
 273              		.cfi_offset 5, -8
 274              		.cfi_offset 14, -4
 275 0002 0446     		mov	r4, r0
 276              	.LVL15:
 966:E:/VisualStudioCode/STM32F1_HAL/Drivers/STM32F1xx_HAL_Driver/Src\stm32f1xx_hal_flash_ex.c ****   
 277              		.loc 1 966 0
 278 0004 4CF25030 		movw	r0, #50000
 279              	.LVL16:
 280 0008 FFF7FEFF 		bl	FLASH_WaitForLastOperation
 281              	.LVL17:
 968:E:/VisualStudioCode/STM32F1_HAL/Drivers/STM32F1xx_HAL_Driver/Src\stm32f1xx_hal_flash_ex.c ****   {     
 282              		.loc 1 968 0
ARM GAS  C:\Users\ADMINI~1\AppData\Local\Temp\ccRfmGKA.s 			page 25


 283 000c 0346     		mov	r3, r0
 284 000e 08B1     		cbz	r0, .L24
 285              	.LVL18:
 286              	.L22:
 990:E:/VisualStudioCode/STM32F1_HAL/Drivers/STM32F1xx_HAL_Driver/Src\stm32f1xx_hal_flash_ex.c **** 
 287              		.loc 1 990 0
 288 0010 1846     		mov	r0, r3
 289 0012 38BD     		pop	{r3, r4, r5, pc}
 290              	.LVL19:
 291              	.L24:
 971:E:/VisualStudioCode/STM32F1_HAL/Drivers/STM32F1xx_HAL_Driver/Src\stm32f1xx_hal_flash_ex.c **** 
 292              		.loc 1 971 0
 293 0014 0A4B     		ldr	r3, .L25
 294 0016 0022     		movs	r2, #0
 295 0018 DA61     		str	r2, [r3, #28]
 974:E:/VisualStudioCode/STM32F1_HAL/Drivers/STM32F1xx_HAL_Driver/Src\stm32f1xx_hal_flash_ex.c ****  
 296              		.loc 1 974 0
 297 001a 0A4D     		ldr	r5, .L25+4
 298 001c 2B69     		ldr	r3, [r5, #16]
 299 001e 43F01003 		orr	r3, r3, #16
 300 0022 2B61     		str	r3, [r5, #16]
 979:E:/VisualStudioCode/STM32F1_HAL/Drivers/STM32F1xx_HAL_Driver/Src\stm32f1xx_hal_flash_ex.c **** #endif /* FLASH_BANK2_END */
 301              		.loc 1 979 0
 302 0024 44F08804 		orr	r4, r4, #136
 303 0028 074B     		ldr	r3, .L25+8
 304 002a 5C80     		strh	r4, [r3, #2]	@ movhi
 983:E:/VisualStudioCode/STM32F1_HAL/Drivers/STM32F1xx_HAL_Driver/Src\stm32f1xx_hal_flash_ex.c **** 
 305              		.loc 1 983 0
 306 002c 4CF25030 		movw	r0, #50000
 307              	.LVL20:
 308 0030 FFF7FEFF 		bl	FLASH_WaitForLastOperation
 309              	.LVL21:
 310 0034 0346     		mov	r3, r0
 311              	.LVL22:
 986:E:/VisualStudioCode/STM32F1_HAL/Drivers/STM32F1xx_HAL_Driver/Src\stm32f1xx_hal_flash_ex.c ****   }
 312              		.loc 1 986 0
 313 0036 2A69     		ldr	r2, [r5, #16]
 314 0038 22F01002 		bic	r2, r2, #16
 315 003c 2A61     		str	r2, [r5, #16]
 316 003e E7E7     		b	.L22
 317              	.L26:
 318              		.align	2
 319              	.L25:
 320 0040 00000000 		.word	pFlash
 321 0044 00200240 		.word	1073881088
 322 0048 00F8FF1F 		.word	536868864
 323              		.cfi_endproc
 324              	.LFE74:
 325              		.fnend
 327              		.section	.text._ZL20FLASH_OB_ProgramDatamh,"ax",%progbits
 328              		.align	1
 329              		.syntax unified
 330              		.thumb
 331              		.thumb_func
 332              		.fpu softvfp
 334              	_ZL20FLASH_OB_ProgramDatamh:
 335              		.fnstart
ARM GAS  C:\Users\ADMINI~1\AppData\Local\Temp\ccRfmGKA.s 			page 26


 336              	.LFB75:
1005:E:/VisualStudioCode/STM32F1_HAL/Drivers/STM32F1xx_HAL_Driver/Src\stm32f1xx_hal_flash_ex.c ****   HAL_StatusTypeDef status = HAL_ERROR;
 337              		.loc 1 1005 0
 338              		.cfi_startproc
 339              		@ args = 0, pretend = 0, frame = 0
 340              		@ frame_needed = 0, uses_anonymous_args = 0
 341              	.LVL23:
 342 0000 70B5     		push	{r4, r5, r6, lr}
 343              		.save {r4, r5, r6, lr}
 344              	.LCFI2:
 345              		.cfi_def_cfa_offset 16
 346              		.cfi_offset 4, -16
 347              		.cfi_offset 5, -12
 348              		.cfi_offset 6, -8
 349              		.cfi_offset 14, -4
 350 0002 0646     		mov	r6, r0
 351 0004 0C46     		mov	r4, r1
 352              	.LVL24:
1012:E:/VisualStudioCode/STM32F1_HAL/Drivers/STM32F1xx_HAL_Driver/Src\stm32f1xx_hal_flash_ex.c ****   
 353              		.loc 1 1012 0
 354 0006 4CF25030 		movw	r0, #50000
 355              	.LVL25:
 356 000a FFF7FEFF 		bl	FLASH_WaitForLastOperation
 357              	.LVL26:
1014:E:/VisualStudioCode/STM32F1_HAL/Drivers/STM32F1xx_HAL_Driver/Src\stm32f1xx_hal_flash_ex.c ****   {
 358              		.loc 1 1014 0
 359 000e 0346     		mov	r3, r0
 360 0010 08B1     		cbz	r0, .L30
 361              	.LVL27:
 362              	.L28:
1031:E:/VisualStudioCode/STM32F1_HAL/Drivers/STM32F1xx_HAL_Driver/Src\stm32f1xx_hal_flash_ex.c **** 
 363              		.loc 1 1031 0
 364 0012 1846     		mov	r0, r3
 365 0014 70BD     		pop	{r4, r5, r6, pc}
 366              	.LVL28:
 367              	.L30:
1017:E:/VisualStudioCode/STM32F1_HAL/Drivers/STM32F1xx_HAL_Driver/Src\stm32f1xx_hal_flash_ex.c **** 
 368              		.loc 1 1017 0
 369 0016 0A4B     		ldr	r3, .L31
 370 0018 0022     		movs	r2, #0
 371 001a DA61     		str	r2, [r3, #28]
1020:E:/VisualStudioCode/STM32F1_HAL/Drivers/STM32F1xx_HAL_Driver/Src\stm32f1xx_hal_flash_ex.c ****     *(__IO uint16_t*)Address = Data;
 372              		.loc 1 1020 0
 373 001c 094D     		ldr	r5, .L31+4
 374 001e 2B69     		ldr	r3, [r5, #16]
 375 0020 43F01003 		orr	r3, r3, #16
 376 0024 2B61     		str	r3, [r5, #16]
1021:E:/VisualStudioCode/STM32F1_HAL/Drivers/STM32F1xx_HAL_Driver/Src\stm32f1xx_hal_flash_ex.c ****     
 377              		.loc 1 1021 0
 378 0026 A4B2     		uxth	r4, r4
 379 0028 3480     		strh	r4, [r6]	@ movhi
1024:E:/VisualStudioCode/STM32F1_HAL/Drivers/STM32F1xx_HAL_Driver/Src\stm32f1xx_hal_flash_ex.c ****     
 380              		.loc 1 1024 0
 381 002a 4CF25030 		movw	r0, #50000
 382              	.LVL29:
 383 002e FFF7FEFF 		bl	FLASH_WaitForLastOperation
 384              	.LVL30:
ARM GAS  C:\Users\ADMINI~1\AppData\Local\Temp\ccRfmGKA.s 			page 27


 385 0032 0346     		mov	r3, r0
 386              	.LVL31:
1027:E:/VisualStudioCode/STM32F1_HAL/Drivers/STM32F1xx_HAL_Driver/Src\stm32f1xx_hal_flash_ex.c ****   }
 387              		.loc 1 1027 0
 388 0034 2A69     		ldr	r2, [r5, #16]
 389 0036 22F01002 		bic	r2, r2, #16
 390 003a 2A61     		str	r2, [r5, #16]
 391 003c E9E7     		b	.L28
 392              	.L32:
 393 003e 00BF     		.align	2
 394              	.L31:
 395 0040 00000000 		.word	pFlash
 396 0044 00200240 		.word	1073881088
 397              		.cfi_endproc
 398              	.LFE75:
 399              		.fnend
 401              		.section	.text.HAL_FLASHEx_OBErase,"ax",%progbits
 402              		.align	1
 403              		.global	HAL_FLASHEx_OBErase
 404              		.syntax unified
 405              		.thumb
 406              		.thumb_func
 407              		.fpu softvfp
 409              	HAL_FLASHEx_OBErase:
 410              		.fnstart
 411              	.LFB66:
 414:E:/VisualStudioCode/STM32F1_HAL/Drivers/STM32F1xx_HAL_Driver/Src\stm32f1xx_hal_flash_ex.c ****   uint8_t rdptmp = OB_RDP_LEVEL_0;
 412              		.loc 1 414 0
 413              		.cfi_startproc
 414              		@ args = 0, pretend = 0, frame = 0
 415              		@ frame_needed = 0, uses_anonymous_args = 0
 416 0000 38B5     		push	{r3, r4, r5, lr}
 417              		.save {r3, r4, r5, lr}
 418              	.LCFI3:
 419              		.cfi_def_cfa_offset 16
 420              		.cfi_offset 3, -16
 421              		.cfi_offset 4, -12
 422              		.cfi_offset 5, -8
 423              		.cfi_offset 14, -4
 424              	.LVL32:
 419:E:/VisualStudioCode/STM32F1_HAL/Drivers/STM32F1xx_HAL_Driver/Src\stm32f1xx_hal_flash_ex.c **** 
 425              		.loc 1 419 0
 426 0002 FFF7FEFF 		bl	_ZL15FLASH_OB_GetRDPv
 427              	.LVL33:
 428 0006 C5B2     		uxtb	r5, r0
 429              	.LVL34:
 422:E:/VisualStudioCode/STM32F1_HAL/Drivers/STM32F1xx_HAL_Driver/Src\stm32f1xx_hal_flash_ex.c **** 
 430              		.loc 1 422 0
 431 0008 4CF25030 		movw	r0, #50000
 432 000c FFF7FEFF 		bl	FLASH_WaitForLastOperation
 433              	.LVL35:
 424:E:/VisualStudioCode/STM32F1_HAL/Drivers/STM32F1xx_HAL_Driver/Src\stm32f1xx_hal_flash_ex.c ****   {
 434              		.loc 1 424 0
 435 0010 0346     		mov	r3, r0
 436 0012 08B1     		cbz	r0, .L36
 437              	.LVL36:
 438              	.L34:
ARM GAS  C:\Users\ADMINI~1\AppData\Local\Temp\ccRfmGKA.s 			page 28


 448:E:/VisualStudioCode/STM32F1_HAL/Drivers/STM32F1xx_HAL_Driver/Src\stm32f1xx_hal_flash_ex.c **** 
 439              		.loc 1 448 0
 440 0014 1846     		mov	r0, r3
 441 0016 38BD     		pop	{r3, r4, r5, pc}
 442              	.LVL37:
 443              	.L36:
 427:E:/VisualStudioCode/STM32F1_HAL/Drivers/STM32F1xx_HAL_Driver/Src\stm32f1xx_hal_flash_ex.c **** 
 444              		.loc 1 427 0
 445 0018 0D4B     		ldr	r3, .L37
 446 001a 0022     		movs	r2, #0
 447 001c DA61     		str	r2, [r3, #28]
 430:E:/VisualStudioCode/STM32F1_HAL/Drivers/STM32F1xx_HAL_Driver/Src\stm32f1xx_hal_flash_ex.c ****     SET_BIT(FLASH->CR, FLASH_CR_STRT);
 448              		.loc 1 430 0
 449 001e 0D4C     		ldr	r4, .L37+4
 450 0020 2369     		ldr	r3, [r4, #16]
 451 0022 43F02003 		orr	r3, r3, #32
 452 0026 2361     		str	r3, [r4, #16]
 431:E:/VisualStudioCode/STM32F1_HAL/Drivers/STM32F1xx_HAL_Driver/Src\stm32f1xx_hal_flash_ex.c **** 
 453              		.loc 1 431 0
 454 0028 2369     		ldr	r3, [r4, #16]
 455 002a 43F04003 		orr	r3, r3, #64
 456 002e 2361     		str	r3, [r4, #16]
 434:E:/VisualStudioCode/STM32F1_HAL/Drivers/STM32F1xx_HAL_Driver/Src\stm32f1xx_hal_flash_ex.c **** 
 457              		.loc 1 434 0
 458 0030 4CF25030 		movw	r0, #50000
 459              	.LVL38:
 460 0034 FFF7FEFF 		bl	FLASH_WaitForLastOperation
 461              	.LVL39:
 437:E:/VisualStudioCode/STM32F1_HAL/Drivers/STM32F1xx_HAL_Driver/Src\stm32f1xx_hal_flash_ex.c **** 
 462              		.loc 1 437 0
 463 0038 2369     		ldr	r3, [r4, #16]
 464 003a 23F02003 		bic	r3, r3, #32
 465 003e 2361     		str	r3, [r4, #16]
 439:E:/VisualStudioCode/STM32F1_HAL/Drivers/STM32F1xx_HAL_Driver/Src\stm32f1xx_hal_flash_ex.c ****     {
 466              		.loc 1 439 0
 467 0040 0346     		mov	r3, r0
 468 0042 0028     		cmp	r0, #0
 469 0044 E6D1     		bne	.L34
 442:E:/VisualStudioCode/STM32F1_HAL/Drivers/STM32F1xx_HAL_Driver/Src\stm32f1xx_hal_flash_ex.c ****     }
 470              		.loc 1 442 0
 471 0046 2846     		mov	r0, r5
 472              	.LVL40:
 473 0048 FFF7FEFF 		bl	_ZL24FLASH_OB_RDP_LevelConfigh
 474              	.LVL41:
 475 004c 0346     		mov	r3, r0
 476              	.LVL42:
 477 004e E1E7     		b	.L34
 478              	.L38:
 479              		.align	2
 480              	.L37:
 481 0050 00000000 		.word	pFlash
 482 0054 00200240 		.word	1073881088
 483              		.cfi_endproc
 484              	.LFE66:
 485              		.fnend
 487              		.section	.text._ZL18FLASH_OB_EnableWRPm,"ax",%progbits
 488              		.align	1
ARM GAS  C:\Users\ADMINI~1\AppData\Local\Temp\ccRfmGKA.s 			page 29


 489              		.syntax unified
 490              		.thumb
 491              		.thumb_func
 492              		.fpu softvfp
 494              	_ZL18FLASH_OB_EnableWRPm:
 495              		.fnstart
 496              	.LFB71:
 661:E:/VisualStudioCode/STM32F1_HAL/Drivers/STM32F1xx_HAL_Driver/Src\stm32f1xx_hal_flash_ex.c ****   HAL_StatusTypeDef status = HAL_OK;
 497              		.loc 1 661 0
 498              		.cfi_startproc
 499              		@ args = 0, pretend = 0, frame = 0
 500              		@ frame_needed = 0, uses_anonymous_args = 0
 501              	.LVL43:
 502 0000 F8B5     		push	{r3, r4, r5, r6, r7, lr}
 503              		.save {r3, r4, r5, r6, r7, lr}
 504              	.LCFI4:
 505              		.cfi_def_cfa_offset 24
 506              		.cfi_offset 3, -24
 507              		.cfi_offset 4, -20
 508              		.cfi_offset 5, -16
 509              		.cfi_offset 6, -12
 510              		.cfi_offset 7, -8
 511              		.cfi_offset 14, -4
 512 0002 0446     		mov	r4, r0
 513              	.LVL44:
 678:E:/VisualStudioCode/STM32F1_HAL/Drivers/STM32F1xx_HAL_Driver/Src\stm32f1xx_hal_flash_ex.c ****   
 514              		.loc 1 678 0
 515 0004 FFF7FEFF 		bl	_ZL15FLASH_OB_GetWRPv
 516              	.LVL45:
 517 0008 20EA0404 		bic	r4, r0, r4
 518              	.LVL46:
 689:E:/VisualStudioCode/STM32F1_HAL/Drivers/STM32F1xx_HAL_Driver/Src\stm32f1xx_hal_flash_ex.c **** #endif /* OB_WRP_PAGES32TO63MASK */
 519              		.loc 1 689 0
 520 000c C4F30727 		ubfx	r7, r4, #8, #8
 521              	.LVL47:
 693:E:/VisualStudioCode/STM32F1_HAL/Drivers/STM32F1xx_HAL_Driver/Src\stm32f1xx_hal_flash_ex.c **** #endif /* OB_WRP_PAGES64TO95MASK */
 522              		.loc 1 693 0
 523 0010 C4F30746 		ubfx	r6, r4, #16, #8
 524              	.LVL48:
 710:E:/VisualStudioCode/STM32F1_HAL/Drivers/STM32F1xx_HAL_Driver/Src\stm32f1xx_hal_flash_ex.c **** 
 525              		.loc 1 710 0
 526 0014 4CF25030 		movw	r0, #50000
 527 0018 FFF7FEFF 		bl	FLASH_WaitForLastOperation
 528              	.LVL49:
 712:E:/VisualStudioCode/STM32F1_HAL/Drivers/STM32F1xx_HAL_Driver/Src\stm32f1xx_hal_flash_ex.c ****   { 
 529              		.loc 1 712 0
 530 001c 0346     		mov	r3, r0
 531 001e 08B1     		cbz	r0, .L46
 532              	.LVL50:
 533              	.L40:
 770:E:/VisualStudioCode/STM32F1_HAL/Drivers/STM32F1xx_HAL_Driver/Src\stm32f1xx_hal_flash_ex.c **** 
 534              		.loc 1 770 0
 535 0020 1846     		mov	r0, r3
 536 0022 F8BD     		pop	{r3, r4, r5, r6, r7, pc}
 537              	.LVL51:
 538              	.L46:
 539 0024 E5B2     		uxtb	r5, r4
ARM GAS  C:\Users\ADMINI~1\AppData\Local\Temp\ccRfmGKA.s 			page 30


 540 0026 240E     		lsrs	r4, r4, #24
 541              	.LVL52:
 715:E:/VisualStudioCode/STM32F1_HAL/Drivers/STM32F1xx_HAL_Driver/Src\stm32f1xx_hal_flash_ex.c **** 
 542              		.loc 1 715 0
 543 0028 224B     		ldr	r3, .L51
 544 002a 0022     		movs	r2, #0
 545 002c DA61     		str	r2, [r3, #28]
 718:E:/VisualStudioCode/STM32F1_HAL/Drivers/STM32F1xx_HAL_Driver/Src\stm32f1xx_hal_flash_ex.c ****     if (status == HAL_OK)  
 546              		.loc 1 718 0
 547 002e FFF7FEFF 		bl	HAL_FLASHEx_OBErase
 548              	.LVL53:
 719:E:/VisualStudioCode/STM32F1_HAL/Drivers/STM32F1xx_HAL_Driver/Src\stm32f1xx_hal_flash_ex.c ****     {
 549              		.loc 1 719 0
 550 0032 0346     		mov	r3, r0
 551 0034 0028     		cmp	r0, #0
 552 0036 F3D1     		bne	.L40
 722:E:/VisualStudioCode/STM32F1_HAL/Drivers/STM32F1xx_HAL_Driver/Src\stm32f1xx_hal_flash_ex.c **** 
 553              		.loc 1 722 0
 554 0038 1F49     		ldr	r1, .L51+4
 555 003a 0A69     		ldr	r2, [r1, #16]
 556 003c 42F01002 		orr	r2, r2, #16
 557 0040 0A61     		str	r2, [r1, #16]
 725:E:/VisualStudioCode/STM32F1_HAL/Drivers/STM32F1xx_HAL_Driver/Src\stm32f1xx_hal_flash_ex.c ****       {
 558              		.loc 1 725 0
 559 0042 FF2D     		cmp	r5, #255
 560 0044 0ED1     		bne	.L47
 561              	.LVL54:
 562              	.L41:
 735:E:/VisualStudioCode/STM32F1_HAL/Drivers/STM32F1xx_HAL_Driver/Src\stm32f1xx_hal_flash_ex.c ****       {
 563              		.loc 1 735 0
 564 0046 0BB9     		cbnz	r3, .L42
 735:E:/VisualStudioCode/STM32F1_HAL/Drivers/STM32F1xx_HAL_Driver/Src\stm32f1xx_hal_flash_ex.c ****       {
 565              		.loc 1 735 0 is_stmt 0 discriminator 1
 566 0048 FF2F     		cmp	r7, #255
 567 004a 15D1     		bne	.L48
 568              	.LVL55:
 569              	.L42:
 745:E:/VisualStudioCode/STM32F1_HAL/Drivers/STM32F1xx_HAL_Driver/Src\stm32f1xx_hal_flash_ex.c ****       {
 570              		.loc 1 745 0 is_stmt 1
 571 004c 0BB9     		cbnz	r3, .L43
 745:E:/VisualStudioCode/STM32F1_HAL/Drivers/STM32F1xx_HAL_Driver/Src\stm32f1xx_hal_flash_ex.c ****       {
 572              		.loc 1 745 0 is_stmt 0 discriminator 1
 573 004e FF2E     		cmp	r6, #255
 574 0050 1CD1     		bne	.L49
 575              	.LVL56:
 576              	.L43:
 755:E:/VisualStudioCode/STM32F1_HAL/Drivers/STM32F1xx_HAL_Driver/Src\stm32f1xx_hal_flash_ex.c ****       {
 577              		.loc 1 755 0 is_stmt 1
 578 0052 0BB9     		cbnz	r3, .L44
 755:E:/VisualStudioCode/STM32F1_HAL/Drivers/STM32F1xx_HAL_Driver/Src\stm32f1xx_hal_flash_ex.c ****       {
 579              		.loc 1 755 0 is_stmt 0 discriminator 1
 580 0054 FF2C     		cmp	r4, #255
 581 0056 23D1     		bne	.L50
 582              	.L44:
 765:E:/VisualStudioCode/STM32F1_HAL/Drivers/STM32F1xx_HAL_Driver/Src\stm32f1xx_hal_flash_ex.c ****     }
 583              		.loc 1 765 0 is_stmt 1
 584 0058 1749     		ldr	r1, .L51+4
ARM GAS  C:\Users\ADMINI~1\AppData\Local\Temp\ccRfmGKA.s 			page 31


 585 005a 0A69     		ldr	r2, [r1, #16]
 586 005c 22F01002 		bic	r2, r2, #16
 587 0060 0A61     		str	r2, [r1, #16]
 588 0062 DDE7     		b	.L40
 589              	.LVL57:
 590              	.L47:
 727:E:/VisualStudioCode/STM32F1_HAL/Drivers/STM32F1xx_HAL_Driver/Src\stm32f1xx_hal_flash_ex.c ****         
 591              		.loc 1 727 0
 592 0064 154B     		ldr	r3, .L51+8
 593 0066 1A89     		ldrh	r2, [r3, #8]
 594 0068 1540     		ands	r5, r5, r2
 595              	.LVL58:
 596 006a 1D81     		strh	r5, [r3, #8]	@ movhi
 730:E:/VisualStudioCode/STM32F1_HAL/Drivers/STM32F1xx_HAL_Driver/Src\stm32f1xx_hal_flash_ex.c ****       }
 597              		.loc 1 730 0
 598 006c 4CF25030 		movw	r0, #50000
 599              	.LVL59:
 600 0070 FFF7FEFF 		bl	FLASH_WaitForLastOperation
 601              	.LVL60:
 602 0074 0346     		mov	r3, r0
 603              	.LVL61:
 604 0076 E6E7     		b	.L41
 605              	.L48:
 737:E:/VisualStudioCode/STM32F1_HAL/Drivers/STM32F1xx_HAL_Driver/Src\stm32f1xx_hal_flash_ex.c ****         
 606              		.loc 1 737 0
 607 0078 104B     		ldr	r3, .L51+8
 608              	.LVL62:
 609 007a 5A89     		ldrh	r2, [r3, #10]
 610 007c 1740     		ands	r7, r7, r2
 611              	.LVL63:
 612 007e 5F81     		strh	r7, [r3, #10]	@ movhi
 740:E:/VisualStudioCode/STM32F1_HAL/Drivers/STM32F1xx_HAL_Driver/Src\stm32f1xx_hal_flash_ex.c ****       }
 613              		.loc 1 740 0
 614 0080 4CF25030 		movw	r0, #50000
 615 0084 FFF7FEFF 		bl	FLASH_WaitForLastOperation
 616              	.LVL64:
 617 0088 0346     		mov	r3, r0
 618              	.LVL65:
 619 008a DFE7     		b	.L42
 620              	.L49:
 747:E:/VisualStudioCode/STM32F1_HAL/Drivers/STM32F1xx_HAL_Driver/Src\stm32f1xx_hal_flash_ex.c ****         
 621              		.loc 1 747 0
 622 008c 0B4B     		ldr	r3, .L51+8
 623              	.LVL66:
 624 008e 9A89     		ldrh	r2, [r3, #12]
 625 0090 1640     		ands	r6, r6, r2
 626              	.LVL67:
 627 0092 9E81     		strh	r6, [r3, #12]	@ movhi
 750:E:/VisualStudioCode/STM32F1_HAL/Drivers/STM32F1xx_HAL_Driver/Src\stm32f1xx_hal_flash_ex.c ****       }
 628              		.loc 1 750 0
 629 0094 4CF25030 		movw	r0, #50000
 630 0098 FFF7FEFF 		bl	FLASH_WaitForLastOperation
 631              	.LVL68:
 632 009c 0346     		mov	r3, r0
 633              	.LVL69:
 634 009e D8E7     		b	.L43
 635              	.L50:
ARM GAS  C:\Users\ADMINI~1\AppData\Local\Temp\ccRfmGKA.s 			page 32


 757:E:/VisualStudioCode/STM32F1_HAL/Drivers/STM32F1xx_HAL_Driver/Src\stm32f1xx_hal_flash_ex.c ****         
 636              		.loc 1 757 0
 637 00a0 064B     		ldr	r3, .L51+8
 638              	.LVL70:
 639 00a2 D889     		ldrh	r0, [r3, #14]
 640 00a4 2040     		ands	r0, r0, r4
 641 00a6 D881     		strh	r0, [r3, #14]	@ movhi
 760:E:/VisualStudioCode/STM32F1_HAL/Drivers/STM32F1xx_HAL_Driver/Src\stm32f1xx_hal_flash_ex.c ****       }
 642              		.loc 1 760 0
 643 00a8 4CF25030 		movw	r0, #50000
 644 00ac FFF7FEFF 		bl	FLASH_WaitForLastOperation
 645              	.LVL71:
 646 00b0 0346     		mov	r3, r0
 647              	.LVL72:
 648 00b2 D1E7     		b	.L44
 649              	.L52:
 650              		.align	2
 651              	.L51:
 652 00b4 00000000 		.word	pFlash
 653 00b8 00200240 		.word	1073881088
 654 00bc 00F8FF1F 		.word	536868864
 655              		.cfi_endproc
 656              	.LFE71:
 657              		.fnend
 659              		.section	.text._ZL19FLASH_OB_DisableWRPm,"ax",%progbits
 660              		.align	1
 661              		.syntax unified
 662              		.thumb
 663              		.thumb_func
 664              		.fpu softvfp
 666              	_ZL19FLASH_OB_DisableWRPm:
 667              		.fnstart
 668              	.LFB72:
 784:E:/VisualStudioCode/STM32F1_HAL/Drivers/STM32F1xx_HAL_Driver/Src\stm32f1xx_hal_flash_ex.c ****   HAL_StatusTypeDef status = HAL_OK;
 669              		.loc 1 784 0
 670              		.cfi_startproc
 671              		@ args = 0, pretend = 0, frame = 0
 672              		@ frame_needed = 0, uses_anonymous_args = 0
 673              	.LVL73:
 674 0000 F8B5     		push	{r3, r4, r5, r6, r7, lr}
 675              		.save {r3, r4, r5, r6, r7, lr}
 676              	.LCFI5:
 677              		.cfi_def_cfa_offset 24
 678              		.cfi_offset 3, -24
 679              		.cfi_offset 4, -20
 680              		.cfi_offset 5, -16
 681              		.cfi_offset 6, -12
 682              		.cfi_offset 7, -8
 683              		.cfi_offset 14, -4
 684 0002 0446     		mov	r4, r0
 685              	.LVL74:
 801:E:/VisualStudioCode/STM32F1_HAL/Drivers/STM32F1xx_HAL_Driver/Src\stm32f1xx_hal_flash_ex.c **** 
 686              		.loc 1 801 0
 687 0004 FFF7FEFF 		bl	_ZL15FLASH_OB_GetWRPv
 688              	.LVL75:
 689 0008 0443     		orrs	r4, r4, r0
 690              	.LVL76:
ARM GAS  C:\Users\ADMINI~1\AppData\Local\Temp\ccRfmGKA.s 			page 33


 812:E:/VisualStudioCode/STM32F1_HAL/Drivers/STM32F1xx_HAL_Driver/Src\stm32f1xx_hal_flash_ex.c **** #endif /* OB_WRP_PAGES32TO63MASK */
 691              		.loc 1 812 0
 692 000a C4F30727 		ubfx	r7, r4, #8, #8
 693              	.LVL77:
 816:E:/VisualStudioCode/STM32F1_HAL/Drivers/STM32F1xx_HAL_Driver/Src\stm32f1xx_hal_flash_ex.c **** #endif /* OB_WRP_PAGES64TO95MASK */
 694              		.loc 1 816 0
 695 000e C4F30746 		ubfx	r6, r4, #16, #8
 696              	.LVL78:
 834:E:/VisualStudioCode/STM32F1_HAL/Drivers/STM32F1xx_HAL_Driver/Src\stm32f1xx_hal_flash_ex.c **** 
 697              		.loc 1 834 0
 698 0012 4CF25030 		movw	r0, #50000
 699 0016 FFF7FEFF 		bl	FLASH_WaitForLastOperation
 700              	.LVL79:
 836:E:/VisualStudioCode/STM32F1_HAL/Drivers/STM32F1xx_HAL_Driver/Src\stm32f1xx_hal_flash_ex.c ****   { 
 701              		.loc 1 836 0
 702 001a 0346     		mov	r3, r0
 703 001c 08B1     		cbz	r0, .L60
 704              	.LVL80:
 705              	.L54:
 892:E:/VisualStudioCode/STM32F1_HAL/Drivers/STM32F1xx_HAL_Driver/Src\stm32f1xx_hal_flash_ex.c **** 
 706              		.loc 1 892 0
 707 001e 1846     		mov	r0, r3
 708 0020 F8BD     		pop	{r3, r4, r5, r6, r7, pc}
 709              	.LVL81:
 710              	.L60:
 711 0022 E5B2     		uxtb	r5, r4
 712 0024 240E     		lsrs	r4, r4, #24
 713              	.LVL82:
 839:E:/VisualStudioCode/STM32F1_HAL/Drivers/STM32F1xx_HAL_Driver/Src\stm32f1xx_hal_flash_ex.c **** 
 714              		.loc 1 839 0
 715 0026 234B     		ldr	r3, .L65
 716 0028 0022     		movs	r2, #0
 717 002a DA61     		str	r2, [r3, #28]
 842:E:/VisualStudioCode/STM32F1_HAL/Drivers/STM32F1xx_HAL_Driver/Src\stm32f1xx_hal_flash_ex.c ****     if (status == HAL_OK)  
 718              		.loc 1 842 0
 719 002c FFF7FEFF 		bl	HAL_FLASHEx_OBErase
 720              	.LVL83:
 843:E:/VisualStudioCode/STM32F1_HAL/Drivers/STM32F1xx_HAL_Driver/Src\stm32f1xx_hal_flash_ex.c ****     {
 721              		.loc 1 843 0
 722 0030 0346     		mov	r3, r0
 723 0032 0028     		cmp	r0, #0
 724 0034 F3D1     		bne	.L54
 845:E:/VisualStudioCode/STM32F1_HAL/Drivers/STM32F1xx_HAL_Driver/Src\stm32f1xx_hal_flash_ex.c **** 
 725              		.loc 1 845 0
 726 0036 2049     		ldr	r1, .L65+4
 727 0038 0A69     		ldr	r2, [r1, #16]
 728 003a 42F01002 		orr	r2, r2, #16
 729 003e 0A61     		str	r2, [r1, #16]
 848:E:/VisualStudioCode/STM32F1_HAL/Drivers/STM32F1xx_HAL_Driver/Src\stm32f1xx_hal_flash_ex.c ****       {
 730              		.loc 1 848 0
 731 0040 FF2D     		cmp	r5, #255
 732 0042 0ED1     		bne	.L61
 733              	.LVL84:
 734              	.L55:
 858:E:/VisualStudioCode/STM32F1_HAL/Drivers/STM32F1xx_HAL_Driver/Src\stm32f1xx_hal_flash_ex.c ****       {
 735              		.loc 1 858 0
 736 0044 0BB9     		cbnz	r3, .L56
ARM GAS  C:\Users\ADMINI~1\AppData\Local\Temp\ccRfmGKA.s 			page 34


 858:E:/VisualStudioCode/STM32F1_HAL/Drivers/STM32F1xx_HAL_Driver/Src\stm32f1xx_hal_flash_ex.c ****       {
 737              		.loc 1 858 0 is_stmt 0 discriminator 1
 738 0046 FF2F     		cmp	r7, #255
 739 0048 15D1     		bne	.L62
 740              	.LVL85:
 741              	.L56:
 868:E:/VisualStudioCode/STM32F1_HAL/Drivers/STM32F1xx_HAL_Driver/Src\stm32f1xx_hal_flash_ex.c ****       {
 742              		.loc 1 868 0 is_stmt 1
 743 004a 0BB9     		cbnz	r3, .L57
 868:E:/VisualStudioCode/STM32F1_HAL/Drivers/STM32F1xx_HAL_Driver/Src\stm32f1xx_hal_flash_ex.c ****       {
 744              		.loc 1 868 0 is_stmt 0 discriminator 1
 745 004c FF2E     		cmp	r6, #255
 746 004e 1CD1     		bne	.L63
 747              	.LVL86:
 748              	.L57:
 878:E:/VisualStudioCode/STM32F1_HAL/Drivers/STM32F1xx_HAL_Driver/Src\stm32f1xx_hal_flash_ex.c ****       {
 749              		.loc 1 878 0 is_stmt 1
 750 0050 0BB9     		cbnz	r3, .L58
 878:E:/VisualStudioCode/STM32F1_HAL/Drivers/STM32F1xx_HAL_Driver/Src\stm32f1xx_hal_flash_ex.c ****       {
 751              		.loc 1 878 0 is_stmt 0 discriminator 1
 752 0052 FF2C     		cmp	r4, #255
 753 0054 23D1     		bne	.L64
 754              	.L58:
 888:E:/VisualStudioCode/STM32F1_HAL/Drivers/STM32F1xx_HAL_Driver/Src\stm32f1xx_hal_flash_ex.c ****     }
 755              		.loc 1 888 0 is_stmt 1
 756 0056 1849     		ldr	r1, .L65+4
 757 0058 0A69     		ldr	r2, [r1, #16]
 758 005a 22F01002 		bic	r2, r2, #16
 759 005e 0A61     		str	r2, [r1, #16]
 760 0060 DDE7     		b	.L54
 761              	.LVL87:
 762              	.L61:
 850:E:/VisualStudioCode/STM32F1_HAL/Drivers/STM32F1xx_HAL_Driver/Src\stm32f1xx_hal_flash_ex.c ****         
 763              		.loc 1 850 0
 764 0062 164B     		ldr	r3, .L65+8
 765 0064 1A89     		ldrh	r2, [r3, #8]
 766 0066 1543     		orrs	r5, r5, r2
 767              	.LVL88:
 768 0068 1D81     		strh	r5, [r3, #8]	@ movhi
 853:E:/VisualStudioCode/STM32F1_HAL/Drivers/STM32F1xx_HAL_Driver/Src\stm32f1xx_hal_flash_ex.c ****       }
 769              		.loc 1 853 0
 770 006a 4CF25030 		movw	r0, #50000
 771              	.LVL89:
 772 006e FFF7FEFF 		bl	FLASH_WaitForLastOperation
 773              	.LVL90:
 774 0072 0346     		mov	r3, r0
 775              	.LVL91:
 776 0074 E6E7     		b	.L55
 777              	.L62:
 860:E:/VisualStudioCode/STM32F1_HAL/Drivers/STM32F1xx_HAL_Driver/Src\stm32f1xx_hal_flash_ex.c ****         
 778              		.loc 1 860 0
 779 0076 114B     		ldr	r3, .L65+8
 780              	.LVL92:
 781 0078 5A89     		ldrh	r2, [r3, #10]
 782 007a 1743     		orrs	r7, r7, r2
 783              	.LVL93:
 784 007c 5F81     		strh	r7, [r3, #10]	@ movhi
ARM GAS  C:\Users\ADMINI~1\AppData\Local\Temp\ccRfmGKA.s 			page 35


 863:E:/VisualStudioCode/STM32F1_HAL/Drivers/STM32F1xx_HAL_Driver/Src\stm32f1xx_hal_flash_ex.c ****       }
 785              		.loc 1 863 0
 786 007e 4CF25030 		movw	r0, #50000
 787 0082 FFF7FEFF 		bl	FLASH_WaitForLastOperation
 788              	.LVL94:
 789 0086 0346     		mov	r3, r0
 790              	.LVL95:
 791 0088 DFE7     		b	.L56
 792              	.L63:
 870:E:/VisualStudioCode/STM32F1_HAL/Drivers/STM32F1xx_HAL_Driver/Src\stm32f1xx_hal_flash_ex.c ****         
 793              		.loc 1 870 0
 794 008a 0C4B     		ldr	r3, .L65+8
 795              	.LVL96:
 796 008c 9A89     		ldrh	r2, [r3, #12]
 797 008e 1643     		orrs	r6, r6, r2
 798              	.LVL97:
 799 0090 9E81     		strh	r6, [r3, #12]	@ movhi
 873:E:/VisualStudioCode/STM32F1_HAL/Drivers/STM32F1xx_HAL_Driver/Src\stm32f1xx_hal_flash_ex.c ****       }
 800              		.loc 1 873 0
 801 0092 4CF25030 		movw	r0, #50000
 802 0096 FFF7FEFF 		bl	FLASH_WaitForLastOperation
 803              	.LVL98:
 804 009a 0346     		mov	r3, r0
 805              	.LVL99:
 806 009c D8E7     		b	.L57
 807              	.L64:
 880:E:/VisualStudioCode/STM32F1_HAL/Drivers/STM32F1xx_HAL_Driver/Src\stm32f1xx_hal_flash_ex.c ****         
 808              		.loc 1 880 0
 809 009e 074B     		ldr	r3, .L65+8
 810              	.LVL100:
 811 00a0 D889     		ldrh	r0, [r3, #14]
 812 00a2 2043     		orrs	r0, r0, r4
 813 00a4 D881     		strh	r0, [r3, #14]	@ movhi
 883:E:/VisualStudioCode/STM32F1_HAL/Drivers/STM32F1xx_HAL_Driver/Src\stm32f1xx_hal_flash_ex.c ****       }
 814              		.loc 1 883 0
 815 00a6 4CF25030 		movw	r0, #50000
 816 00aa FFF7FEFF 		bl	FLASH_WaitForLastOperation
 817              	.LVL101:
 818 00ae 0346     		mov	r3, r0
 819              	.LVL102:
 820 00b0 D1E7     		b	.L58
 821              	.L66:
 822 00b2 00BF     		.align	2
 823              	.L65:
 824 00b4 00000000 		.word	pFlash
 825 00b8 00200240 		.word	1073881088
 826 00bc 00F8FF1F 		.word	536868864
 827              		.cfi_endproc
 828              	.LFE72:
 829              		.fnend
 831              		.section	.text.HAL_FLASHEx_OBProgram,"ax",%progbits
 832              		.align	1
 833              		.global	HAL_FLASHEx_OBProgram
 834              		.syntax unified
 835              		.thumb
 836              		.thumb_func
 837              		.fpu softvfp
ARM GAS  C:\Users\ADMINI~1\AppData\Local\Temp\ccRfmGKA.s 			page 36


 839              	HAL_FLASHEx_OBProgram:
 840              		.fnstart
 841              	.LFB67:
 463:E:/VisualStudioCode/STM32F1_HAL/Drivers/STM32F1xx_HAL_Driver/Src\stm32f1xx_hal_flash_ex.c ****   HAL_StatusTypeDef status = HAL_ERROR;
 842              		.loc 1 463 0
 843              		.cfi_startproc
 844              		@ args = 0, pretend = 0, frame = 0
 845              		@ frame_needed = 0, uses_anonymous_args = 0
 846              	.LVL103:
 467:E:/VisualStudioCode/STM32F1_HAL/Drivers/STM32F1xx_HAL_Driver/Src\stm32f1xx_hal_flash_ex.c **** 
 847              		.loc 1 467 0
 848 0000 284B     		ldr	r3, .L85
 849 0002 1B7E     		ldrb	r3, [r3, #24]	@ zero_extendqisi2
 850 0004 012B     		cmp	r3, #1
 851 0006 4AD0     		beq	.L75
 463:E:/VisualStudioCode/STM32F1_HAL/Drivers/STM32F1xx_HAL_Driver/Src\stm32f1xx_hal_flash_ex.c ****   HAL_StatusTypeDef status = HAL_ERROR;
 852              		.loc 1 463 0 discriminator 2
 853 0008 10B5     		push	{r4, lr}
 854              		.save {r4, lr}
 855              	.LCFI6:
 856              		.cfi_def_cfa_offset 8
 857              		.cfi_offset 4, -8
 858              		.cfi_offset 14, -4
 859 000a 0446     		mov	r4, r0
 467:E:/VisualStudioCode/STM32F1_HAL/Drivers/STM32F1xx_HAL_Driver/Src\stm32f1xx_hal_flash_ex.c **** 
 860              		.loc 1 467 0 discriminator 2
 861 000c 254B     		ldr	r3, .L85
 862 000e 0122     		movs	r2, #1
 863 0010 1A76     		strb	r2, [r3, #24]
 473:E:/VisualStudioCode/STM32F1_HAL/Drivers/STM32F1xx_HAL_Driver/Src\stm32f1xx_hal_flash_ex.c ****   {
 864              		.loc 1 473 0 discriminator 2
 865 0012 0368     		ldr	r3, [r0]
 866 0014 13F0010F 		tst	r3, #1
 867 0018 10D0     		beq	.L76
 476:E:/VisualStudioCode/STM32F1_HAL/Drivers/STM32F1xx_HAL_Driver/Src\stm32f1xx_hal_flash_ex.c ****     {
 868              		.loc 1 476 0
 869 001a 4368     		ldr	r3, [r0, #4]
 870 001c 9342     		cmp	r3, r2
 871 001e 08D0     		beq	.L81
 484:E:/VisualStudioCode/STM32F1_HAL/Drivers/STM32F1xx_HAL_Driver/Src\stm32f1xx_hal_flash_ex.c ****     }
 872              		.loc 1 484 0
 873 0020 8068     		ldr	r0, [r0, #8]
 874              	.LVL104:
 875 0022 FFF7FEFF 		bl	_ZL19FLASH_OB_DisableWRPm
 876              	.LVL105:
 877 0026 0346     		mov	r3, r0
 878              	.LVL106:
 879              	.L71:
 486:E:/VisualStudioCode/STM32F1_HAL/Drivers/STM32F1xx_HAL_Driver/Src\stm32f1xx_hal_flash_ex.c ****     {
 880              		.loc 1 486 0
 881 0028 4BB1     		cbz	r3, .L69
 489:E:/VisualStudioCode/STM32F1_HAL/Drivers/STM32F1xx_HAL_Driver/Src\stm32f1xx_hal_flash_ex.c ****       return status;
 882              		.loc 1 489 0
 883 002a 1E4A     		ldr	r2, .L85
 884 002c 0021     		movs	r1, #0
 885 002e 1176     		strb	r1, [r2, #24]
 490:E:/VisualStudioCode/STM32F1_HAL/Drivers/STM32F1xx_HAL_Driver/Src\stm32f1xx_hal_flash_ex.c ****     }
ARM GAS  C:\Users\ADMINI~1\AppData\Local\Temp\ccRfmGKA.s 			page 37


 886              		.loc 1 490 0
 887 0030 14E0     		b	.L68
 888              	.LVL107:
 889              	.L81:
 479:E:/VisualStudioCode/STM32F1_HAL/Drivers/STM32F1xx_HAL_Driver/Src\stm32f1xx_hal_flash_ex.c ****     }
 890              		.loc 1 479 0
 891 0032 8068     		ldr	r0, [r0, #8]
 892              	.LVL108:
 893 0034 FFF7FEFF 		bl	_ZL18FLASH_OB_EnableWRPm
 894              	.LVL109:
 895 0038 0346     		mov	r3, r0
 896              	.LVL110:
 897 003a F5E7     		b	.L71
 898              	.LVL111:
 899              	.L76:
 464:E:/VisualStudioCode/STM32F1_HAL/Drivers/STM32F1xx_HAL_Driver/Src\stm32f1xx_hal_flash_ex.c **** 
 900              		.loc 1 464 0
 901 003c 0123     		movs	r3, #1
 902              	.LVL112:
 903              	.L69:
 495:E:/VisualStudioCode/STM32F1_HAL/Drivers/STM32F1xx_HAL_Driver/Src\stm32f1xx_hal_flash_ex.c ****   {
 904              		.loc 1 495 0
 905 003e 2268     		ldr	r2, [r4]
 906 0040 12F0020F 		tst	r2, #2
 907 0044 0CD1     		bne	.L82
 908              	.LVL113:
 909              	.L72:
 507:E:/VisualStudioCode/STM32F1_HAL/Drivers/STM32F1xx_HAL_Driver/Src\stm32f1xx_hal_flash_ex.c ****   {
 910              		.loc 1 507 0
 911 0046 2268     		ldr	r2, [r4]
 912 0048 12F0040F 		tst	r2, #4
 913 004c 12D1     		bne	.L83
 914              	.LVL114:
 915              	.L73:
 519:E:/VisualStudioCode/STM32F1_HAL/Drivers/STM32F1xx_HAL_Driver/Src\stm32f1xx_hal_flash_ex.c ****   {
 916              		.loc 1 519 0
 917 004e 2268     		ldr	r2, [r4]
 918 0050 12F0080F 		tst	r2, #8
 919 0054 18D1     		bne	.L84
 920              	.LVL115:
 921              	.L74:
 531:E:/VisualStudioCode/STM32F1_HAL/Drivers/STM32F1xx_HAL_Driver/Src\stm32f1xx_hal_flash_ex.c **** 
 922              		.loc 1 531 0
 923 0056 134A     		ldr	r2, .L85
 924 0058 0021     		movs	r1, #0
 925 005a 1176     		strb	r1, [r2, #24]
 926              	.LVL116:
 927              	.L68:
 534:E:/VisualStudioCode/STM32F1_HAL/Drivers/STM32F1xx_HAL_Driver/Src\stm32f1xx_hal_flash_ex.c **** 
 928              		.loc 1 534 0
 929 005c 1846     		mov	r0, r3
 930 005e 10BD     		pop	{r4, pc}
 931              	.LVL117:
 932              	.L82:
 497:E:/VisualStudioCode/STM32F1_HAL/Drivers/STM32F1xx_HAL_Driver/Src\stm32f1xx_hal_flash_ex.c ****     if (status != HAL_OK)
 933              		.loc 1 497 0
 934 0060 207C     		ldrb	r0, [r4, #16]	@ zero_extendqisi2
ARM GAS  C:\Users\ADMINI~1\AppData\Local\Temp\ccRfmGKA.s 			page 38


 935 0062 FFF7FEFF 		bl	_ZL24FLASH_OB_RDP_LevelConfigh
 936              	.LVL118:
 498:E:/VisualStudioCode/STM32F1_HAL/Drivers/STM32F1xx_HAL_Driver/Src\stm32f1xx_hal_flash_ex.c ****     {
 937              		.loc 1 498 0
 938 0066 0346     		mov	r3, r0
 939 0068 0028     		cmp	r0, #0
 940 006a ECD0     		beq	.L72
 501:E:/VisualStudioCode/STM32F1_HAL/Drivers/STM32F1xx_HAL_Driver/Src\stm32f1xx_hal_flash_ex.c ****       return status;
 941              		.loc 1 501 0
 942 006c 0D4A     		ldr	r2, .L85
 943 006e 0021     		movs	r1, #0
 944 0070 1176     		strb	r1, [r2, #24]
 502:E:/VisualStudioCode/STM32F1_HAL/Drivers/STM32F1xx_HAL_Driver/Src\stm32f1xx_hal_flash_ex.c ****     }
 945              		.loc 1 502 0
 946 0072 F3E7     		b	.L68
 947              	.LVL119:
 948              	.L83:
 509:E:/VisualStudioCode/STM32F1_HAL/Drivers/STM32F1xx_HAL_Driver/Src\stm32f1xx_hal_flash_ex.c ****     if (status != HAL_OK)
 949              		.loc 1 509 0
 950 0074 607C     		ldrb	r0, [r4, #17]	@ zero_extendqisi2
 951 0076 FFF7FEFF 		bl	_ZL19FLASH_OB_UserConfigh
 952              	.LVL120:
 510:E:/VisualStudioCode/STM32F1_HAL/Drivers/STM32F1xx_HAL_Driver/Src\stm32f1xx_hal_flash_ex.c ****     {
 953              		.loc 1 510 0
 954 007a 0346     		mov	r3, r0
 955 007c 0028     		cmp	r0, #0
 956 007e E6D0     		beq	.L73
 513:E:/VisualStudioCode/STM32F1_HAL/Drivers/STM32F1xx_HAL_Driver/Src\stm32f1xx_hal_flash_ex.c ****       return status;
 957              		.loc 1 513 0
 958 0080 084A     		ldr	r2, .L85
 959 0082 0021     		movs	r1, #0
 960 0084 1176     		strb	r1, [r2, #24]
 514:E:/VisualStudioCode/STM32F1_HAL/Drivers/STM32F1xx_HAL_Driver/Src\stm32f1xx_hal_flash_ex.c ****     }
 961              		.loc 1 514 0
 962 0086 E9E7     		b	.L68
 963              	.LVL121:
 964              	.L84:
 521:E:/VisualStudioCode/STM32F1_HAL/Drivers/STM32F1xx_HAL_Driver/Src\stm32f1xx_hal_flash_ex.c ****     if (status != HAL_OK)
 965              		.loc 1 521 0
 966 0088 217E     		ldrb	r1, [r4, #24]	@ zero_extendqisi2
 967 008a 6069     		ldr	r0, [r4, #20]
 968 008c FFF7FEFF 		bl	_ZL20FLASH_OB_ProgramDatamh
 969              	.LVL122:
 522:E:/VisualStudioCode/STM32F1_HAL/Drivers/STM32F1xx_HAL_Driver/Src\stm32f1xx_hal_flash_ex.c ****     {
 970              		.loc 1 522 0
 971 0090 0346     		mov	r3, r0
 972 0092 0028     		cmp	r0, #0
 973 0094 DFD0     		beq	.L74
 525:E:/VisualStudioCode/STM32F1_HAL/Drivers/STM32F1xx_HAL_Driver/Src\stm32f1xx_hal_flash_ex.c ****       return status;
 974              		.loc 1 525 0
 975 0096 034A     		ldr	r2, .L85
 976 0098 0021     		movs	r1, #0
 977 009a 1176     		strb	r1, [r2, #24]
 526:E:/VisualStudioCode/STM32F1_HAL/Drivers/STM32F1xx_HAL_Driver/Src\stm32f1xx_hal_flash_ex.c ****     }
 978              		.loc 1 526 0
 979 009c DEE7     		b	.L68
 980              	.LVL123:
ARM GAS  C:\Users\ADMINI~1\AppData\Local\Temp\ccRfmGKA.s 			page 39


 981              	.L75:
 982              	.LCFI7:
 983              		.cfi_def_cfa_offset 0
 984              		.cfi_restore 4
 985              		.cfi_restore 14
 467:E:/VisualStudioCode/STM32F1_HAL/Drivers/STM32F1xx_HAL_Driver/Src\stm32f1xx_hal_flash_ex.c **** 
 986              		.loc 1 467 0
 987 009e 0223     		movs	r3, #2
 534:E:/VisualStudioCode/STM32F1_HAL/Drivers/STM32F1xx_HAL_Driver/Src\stm32f1xx_hal_flash_ex.c **** 
 988              		.loc 1 534 0
 989 00a0 1846     		mov	r0, r3
 990              	.LVL124:
 991 00a2 7047     		bx	lr
 992              	.L86:
 993              		.align	2
 994              	.L85:
 995 00a4 00000000 		.word	pFlash
 996              		.cfi_endproc
 997              	.LFE67:
 998              		.fnend
 1000              		.section	.text.HAL_FLASHEx_OBGetConfig,"ax",%progbits
 1001              		.align	1
 1002              		.global	HAL_FLASHEx_OBGetConfig
 1003              		.syntax unified
 1004              		.thumb
 1005              		.thumb_func
 1006              		.fpu softvfp
 1008              	HAL_FLASHEx_OBGetConfig:
 1009              		.fnstart
 1010              	.LFB68:
 544:E:/VisualStudioCode/STM32F1_HAL/Drivers/STM32F1xx_HAL_Driver/Src\stm32f1xx_hal_flash_ex.c ****   pOBInit->OptionType = OPTIONBYTE_WRP | OPTIONBYTE_RDP | OPTIONBYTE_USER;
 1011              		.loc 1 544 0
 1012              		.cfi_startproc
 1013              		@ args = 0, pretend = 0, frame = 0
 1014              		@ frame_needed = 0, uses_anonymous_args = 0
 1015              	.LVL125:
 1016 0000 10B5     		push	{r4, lr}
 1017              	.LCFI8:
 1018              		.cfi_def_cfa_offset 8
 1019              		.cfi_offset 4, -8
 1020              		.cfi_offset 14, -4
 1021 0002 0446     		mov	r4, r0
 545:E:/VisualStudioCode/STM32F1_HAL/Drivers/STM32F1xx_HAL_Driver/Src\stm32f1xx_hal_flash_ex.c **** 
 1022              		.loc 1 545 0
 1023 0004 0723     		movs	r3, #7
 1024 0006 0360     		str	r3, [r0]
 548:E:/VisualStudioCode/STM32F1_HAL/Drivers/STM32F1xx_HAL_Driver/Src\stm32f1xx_hal_flash_ex.c **** 
 1025              		.loc 1 548 0
 1026 0008 FFF7FEFF 		bl	_ZL15FLASH_OB_GetWRPv
 1027              	.LVL126:
 1028 000c A060     		str	r0, [r4, #8]
 551:E:/VisualStudioCode/STM32F1_HAL/Drivers/STM32F1xx_HAL_Driver/Src\stm32f1xx_hal_flash_ex.c **** 
 1029              		.loc 1 551 0
 1030 000e FFF7FEFF 		bl	_ZL15FLASH_OB_GetRDPv
 1031              	.LVL127:
 1032 0012 2074     		strb	r0, [r4, #16]
 554:E:/VisualStudioCode/STM32F1_HAL/Drivers/STM32F1xx_HAL_Driver/Src\stm32f1xx_hal_flash_ex.c **** }
ARM GAS  C:\Users\ADMINI~1\AppData\Local\Temp\ccRfmGKA.s 			page 40


 1033              		.loc 1 554 0
 1034 0014 FFF7FEFF 		bl	_ZL16FLASH_OB_GetUserv
 1035              	.LVL128:
 1036 0018 6074     		strb	r0, [r4, #17]
 555:E:/VisualStudioCode/STM32F1_HAL/Drivers/STM32F1xx_HAL_Driver/Src\stm32f1xx_hal_flash_ex.c **** 
 1037              		.loc 1 555 0
 1038 001a 10BD     		pop	{r4, pc}
 1039              		.cfi_endproc
 1040              	.LFE68:
 1041              		.cantunwind
 1042              		.fnend
 1044              		.section	.text.HAL_FLASHEx_OBGetUserData,"ax",%progbits
 1045              		.align	1
 1046              		.global	HAL_FLASHEx_OBGetUserData
 1047              		.syntax unified
 1048              		.thumb
 1049              		.thumb_func
 1050              		.fpu softvfp
 1052              	HAL_FLASHEx_OBGetUserData:
 1053              		.fnstart
 1054              	.LFB69:
 566:E:/VisualStudioCode/STM32F1_HAL/Drivers/STM32F1xx_HAL_Driver/Src\stm32f1xx_hal_flash_ex.c ****   uint32_t value = 0;
 1055              		.loc 1 566 0
 1056              		.cfi_startproc
 1057              		@ args = 0, pretend = 0, frame = 0
 1058              		@ frame_needed = 0, uses_anonymous_args = 0
 1059              		@ link register save eliminated.
 1060              	.LVL129:
 569:E:/VisualStudioCode/STM32F1_HAL/Drivers/STM32F1xx_HAL_Driver/Src\stm32f1xx_hal_flash_ex.c ****   {
 1061              		.loc 1 569 0
 1062 0000 064B     		ldr	r3, .L93
 1063 0002 9842     		cmp	r0, r3
 1064 0004 04D0     		beq	.L92
 577:E:/VisualStudioCode/STM32F1_HAL/Drivers/STM32F1xx_HAL_Driver/Src\stm32f1xx_hal_flash_ex.c ****   }
 1065              		.loc 1 577 0
 1066 0006 064B     		ldr	r3, .L93+4
 1067 0008 D869     		ldr	r0, [r3, #28]
 1068              	.LVL130:
 1069 000a C0F38740 		ubfx	r0, r0, #18, #8
 1070              	.LVL131:
 581:E:/VisualStudioCode/STM32F1_HAL/Drivers/STM32F1xx_HAL_Driver/Src\stm32f1xx_hal_flash_ex.c **** 
 1071              		.loc 1 581 0
 1072 000e 7047     		bx	lr
 1073              	.LVL132:
 1074              	.L92:
 572:E:/VisualStudioCode/STM32F1_HAL/Drivers/STM32F1xx_HAL_Driver/Src\stm32f1xx_hal_flash_ex.c ****   }
 1075              		.loc 1 572 0
 1076 0010 034B     		ldr	r3, .L93+4
 1077 0012 D869     		ldr	r0, [r3, #28]
 1078              	.LVL133:
 1079 0014 C0F38720 		ubfx	r0, r0, #10, #8
 1080              	.LVL134:
 1081 0018 7047     		bx	lr
 1082              	.L94:
 1083 001a 00BF     		.align	2
 1084              	.L93:
 1085 001c 04F8FF1F 		.word	536868868
ARM GAS  C:\Users\ADMINI~1\AppData\Local\Temp\ccRfmGKA.s 			page 41


 1086 0020 00200240 		.word	1073881088
 1087              		.cfi_endproc
 1088              	.LFE69:
 1089              		.cantunwind
 1090              		.fnend
 1092              		.section	.text._Z15FLASH_PageErasem,"ax",%progbits
 1093              		.align	1
 1094              		.global	_Z15FLASH_PageErasem
 1095              		.syntax unified
 1096              		.thumb
 1097              		.thumb_func
 1098              		.fpu softvfp
 1100              	_Z15FLASH_PageErasem:
 1101              		.fnstart
 1102              	.LFB79:
1081:E:/VisualStudioCode/STM32F1_HAL/Drivers/STM32F1xx_HAL_Driver/Src\stm32f1xx_hal_flash_ex.c **** 
1082:E:/VisualStudioCode/STM32F1_HAL/Drivers/STM32F1xx_HAL_Driver/Src\stm32f1xx_hal_flash_ex.c **** /**
1083:E:/VisualStudioCode/STM32F1_HAL/Drivers/STM32F1xx_HAL_Driver/Src\stm32f1xx_hal_flash_ex.c ****   * @}
1084:E:/VisualStudioCode/STM32F1_HAL/Drivers/STM32F1xx_HAL_Driver/Src\stm32f1xx_hal_flash_ex.c ****   */
1085:E:/VisualStudioCode/STM32F1_HAL/Drivers/STM32F1xx_HAL_Driver/Src\stm32f1xx_hal_flash_ex.c **** 
1086:E:/VisualStudioCode/STM32F1_HAL/Drivers/STM32F1xx_HAL_Driver/Src\stm32f1xx_hal_flash_ex.c **** /**
1087:E:/VisualStudioCode/STM32F1_HAL/Drivers/STM32F1xx_HAL_Driver/Src\stm32f1xx_hal_flash_ex.c ****   * @}
1088:E:/VisualStudioCode/STM32F1_HAL/Drivers/STM32F1xx_HAL_Driver/Src\stm32f1xx_hal_flash_ex.c ****   */
1089:E:/VisualStudioCode/STM32F1_HAL/Drivers/STM32F1xx_HAL_Driver/Src\stm32f1xx_hal_flash_ex.c **** 
1090:E:/VisualStudioCode/STM32F1_HAL/Drivers/STM32F1xx_HAL_Driver/Src\stm32f1xx_hal_flash_ex.c **** /** @addtogroup FLASH
1091:E:/VisualStudioCode/STM32F1_HAL/Drivers/STM32F1xx_HAL_Driver/Src\stm32f1xx_hal_flash_ex.c ****   * @{
1092:E:/VisualStudioCode/STM32F1_HAL/Drivers/STM32F1xx_HAL_Driver/Src\stm32f1xx_hal_flash_ex.c ****   */
1093:E:/VisualStudioCode/STM32F1_HAL/Drivers/STM32F1xx_HAL_Driver/Src\stm32f1xx_hal_flash_ex.c **** 
1094:E:/VisualStudioCode/STM32F1_HAL/Drivers/STM32F1xx_HAL_Driver/Src\stm32f1xx_hal_flash_ex.c **** /** @addtogroup FLASH_Private_Functions
1095:E:/VisualStudioCode/STM32F1_HAL/Drivers/STM32F1xx_HAL_Driver/Src\stm32f1xx_hal_flash_ex.c ****  * @{
1096:E:/VisualStudioCode/STM32F1_HAL/Drivers/STM32F1xx_HAL_Driver/Src\stm32f1xx_hal_flash_ex.c ****  */
1097:E:/VisualStudioCode/STM32F1_HAL/Drivers/STM32F1xx_HAL_Driver/Src\stm32f1xx_hal_flash_ex.c **** 
1098:E:/VisualStudioCode/STM32F1_HAL/Drivers/STM32F1xx_HAL_Driver/Src\stm32f1xx_hal_flash_ex.c **** /**
1099:E:/VisualStudioCode/STM32F1_HAL/Drivers/STM32F1xx_HAL_Driver/Src\stm32f1xx_hal_flash_ex.c ****   * @brief  Erase the specified FLASH memory page
1100:E:/VisualStudioCode/STM32F1_HAL/Drivers/STM32F1xx_HAL_Driver/Src\stm32f1xx_hal_flash_ex.c ****   * @param  PageAddress FLASH page to erase
1101:E:/VisualStudioCode/STM32F1_HAL/Drivers/STM32F1xx_HAL_Driver/Src\stm32f1xx_hal_flash_ex.c ****   *         The value of this parameter depend on device used within the same series      
1102:E:/VisualStudioCode/STM32F1_HAL/Drivers/STM32F1xx_HAL_Driver/Src\stm32f1xx_hal_flash_ex.c ****   * 
1103:E:/VisualStudioCode/STM32F1_HAL/Drivers/STM32F1xx_HAL_Driver/Src\stm32f1xx_hal_flash_ex.c ****   * @retval None
1104:E:/VisualStudioCode/STM32F1_HAL/Drivers/STM32F1xx_HAL_Driver/Src\stm32f1xx_hal_flash_ex.c ****   */
1105:E:/VisualStudioCode/STM32F1_HAL/Drivers/STM32F1xx_HAL_Driver/Src\stm32f1xx_hal_flash_ex.c **** void FLASH_PageErase(uint32_t PageAddress)
1106:E:/VisualStudioCode/STM32F1_HAL/Drivers/STM32F1xx_HAL_Driver/Src\stm32f1xx_hal_flash_ex.c **** {
 1103              		.loc 1 1106 0
 1104              		.cfi_startproc
 1105              		@ args = 0, pretend = 0, frame = 0
 1106              		@ frame_needed = 0, uses_anonymous_args = 0
 1107              		@ link register save eliminated.
 1108              	.LVL135:
1107:E:/VisualStudioCode/STM32F1_HAL/Drivers/STM32F1xx_HAL_Driver/Src\stm32f1xx_hal_flash_ex.c ****   /* Clean the error context */
1108:E:/VisualStudioCode/STM32F1_HAL/Drivers/STM32F1xx_HAL_Driver/Src\stm32f1xx_hal_flash_ex.c ****   pFlash.ErrorCode = HAL_FLASH_ERROR_NONE;
 1109              		.loc 1 1108 0
 1110 0000 064B     		ldr	r3, .L96
 1111 0002 0022     		movs	r2, #0
 1112 0004 DA61     		str	r2, [r3, #28]
1109:E:/VisualStudioCode/STM32F1_HAL/Drivers/STM32F1xx_HAL_Driver/Src\stm32f1xx_hal_flash_ex.c **** 
1110:E:/VisualStudioCode/STM32F1_HAL/Drivers/STM32F1xx_HAL_Driver/Src\stm32f1xx_hal_flash_ex.c **** #if defined(FLASH_BANK2_END)
1111:E:/VisualStudioCode/STM32F1_HAL/Drivers/STM32F1xx_HAL_Driver/Src\stm32f1xx_hal_flash_ex.c ****   if(PageAddress > FLASH_BANK1_END)
1112:E:/VisualStudioCode/STM32F1_HAL/Drivers/STM32F1xx_HAL_Driver/Src\stm32f1xx_hal_flash_ex.c ****   { 
ARM GAS  C:\Users\ADMINI~1\AppData\Local\Temp\ccRfmGKA.s 			page 42


1113:E:/VisualStudioCode/STM32F1_HAL/Drivers/STM32F1xx_HAL_Driver/Src\stm32f1xx_hal_flash_ex.c ****     /* Proceed to erase the page */
1114:E:/VisualStudioCode/STM32F1_HAL/Drivers/STM32F1xx_HAL_Driver/Src\stm32f1xx_hal_flash_ex.c ****     SET_BIT(FLASH->CR2, FLASH_CR2_PER);
1115:E:/VisualStudioCode/STM32F1_HAL/Drivers/STM32F1xx_HAL_Driver/Src\stm32f1xx_hal_flash_ex.c ****     WRITE_REG(FLASH->AR2, PageAddress);
1116:E:/VisualStudioCode/STM32F1_HAL/Drivers/STM32F1xx_HAL_Driver/Src\stm32f1xx_hal_flash_ex.c ****     SET_BIT(FLASH->CR2, FLASH_CR2_STRT);
1117:E:/VisualStudioCode/STM32F1_HAL/Drivers/STM32F1xx_HAL_Driver/Src\stm32f1xx_hal_flash_ex.c ****   }
1118:E:/VisualStudioCode/STM32F1_HAL/Drivers/STM32F1xx_HAL_Driver/Src\stm32f1xx_hal_flash_ex.c ****   else
1119:E:/VisualStudioCode/STM32F1_HAL/Drivers/STM32F1xx_HAL_Driver/Src\stm32f1xx_hal_flash_ex.c ****   {
1120:E:/VisualStudioCode/STM32F1_HAL/Drivers/STM32F1xx_HAL_Driver/Src\stm32f1xx_hal_flash_ex.c **** #endif /* FLASH_BANK2_END */
1121:E:/VisualStudioCode/STM32F1_HAL/Drivers/STM32F1xx_HAL_Driver/Src\stm32f1xx_hal_flash_ex.c ****     /* Proceed to erase the page */
1122:E:/VisualStudioCode/STM32F1_HAL/Drivers/STM32F1xx_HAL_Driver/Src\stm32f1xx_hal_flash_ex.c ****     SET_BIT(FLASH->CR, FLASH_CR_PER);
 1113              		.loc 1 1122 0
 1114 0006 064B     		ldr	r3, .L96+4
 1115 0008 1A69     		ldr	r2, [r3, #16]
 1116 000a 42F00202 		orr	r2, r2, #2
 1117 000e 1A61     		str	r2, [r3, #16]
1123:E:/VisualStudioCode/STM32F1_HAL/Drivers/STM32F1xx_HAL_Driver/Src\stm32f1xx_hal_flash_ex.c ****     WRITE_REG(FLASH->AR, PageAddress);
 1118              		.loc 1 1123 0
 1119 0010 5861     		str	r0, [r3, #20]
1124:E:/VisualStudioCode/STM32F1_HAL/Drivers/STM32F1xx_HAL_Driver/Src\stm32f1xx_hal_flash_ex.c ****     SET_BIT(FLASH->CR, FLASH_CR_STRT);
 1120              		.loc 1 1124 0
 1121 0012 1A69     		ldr	r2, [r3, #16]
 1122 0014 42F04002 		orr	r2, r2, #64
 1123 0018 1A61     		str	r2, [r3, #16]
1125:E:/VisualStudioCode/STM32F1_HAL/Drivers/STM32F1xx_HAL_Driver/Src\stm32f1xx_hal_flash_ex.c **** #if defined(FLASH_BANK2_END)
1126:E:/VisualStudioCode/STM32F1_HAL/Drivers/STM32F1xx_HAL_Driver/Src\stm32f1xx_hal_flash_ex.c ****   }
1127:E:/VisualStudioCode/STM32F1_HAL/Drivers/STM32F1xx_HAL_Driver/Src\stm32f1xx_hal_flash_ex.c **** #endif /* FLASH_BANK2_END */
1128:E:/VisualStudioCode/STM32F1_HAL/Drivers/STM32F1xx_HAL_Driver/Src\stm32f1xx_hal_flash_ex.c **** }
 1124              		.loc 1 1128 0
 1125 001a 7047     		bx	lr
 1126              	.L97:
 1127              		.align	2
 1128              	.L96:
 1129 001c 00000000 		.word	pFlash
 1130 0020 00200240 		.word	1073881088
 1131              		.cfi_endproc
 1132              	.LFE79:
 1133              		.cantunwind
 1134              		.fnend
 1136              		.section	.text.HAL_FLASHEx_Erase,"ax",%progbits
 1137              		.align	1
 1138              		.global	HAL_FLASHEx_Erase
 1139              		.syntax unified
 1140              		.thumb
 1141              		.thumb_func
 1142              		.fpu softvfp
 1144              	HAL_FLASHEx_Erase:
 1145              		.fnstart
 1146              	.LFB64:
 176:E:/VisualStudioCode/STM32F1_HAL/Drivers/STM32F1xx_HAL_Driver/Src\stm32f1xx_hal_flash_ex.c ****   HAL_StatusTypeDef status = HAL_ERROR;
 1147              		.loc 1 176 0
 1148              		.cfi_startproc
 1149              		@ args = 0, pretend = 0, frame = 0
 1150              		@ frame_needed = 0, uses_anonymous_args = 0
 1151              	.LVL136:
 181:E:/VisualStudioCode/STM32F1_HAL/Drivers/STM32F1xx_HAL_Driver/Src\stm32f1xx_hal_flash_ex.c **** 
 1152              		.loc 1 181 0
 1153 0000 264B     		ldr	r3, .L114
ARM GAS  C:\Users\ADMINI~1\AppData\Local\Temp\ccRfmGKA.s 			page 43


 1154 0002 1B7E     		ldrb	r3, [r3, #24]	@ zero_extendqisi2
 1155 0004 012B     		cmp	r3, #1
 1156 0006 46D0     		beq	.L104
 176:E:/VisualStudioCode/STM32F1_HAL/Drivers/STM32F1xx_HAL_Driver/Src\stm32f1xx_hal_flash_ex.c ****   HAL_StatusTypeDef status = HAL_ERROR;
 1157              		.loc 1 176 0 discriminator 2
 1158 0008 70B5     		push	{r4, r5, r6, lr}
 1159              		.save {r4, r5, r6, lr}
 1160              	.LCFI9:
 1161              		.cfi_def_cfa_offset 16
 1162              		.cfi_offset 4, -16
 1163              		.cfi_offset 5, -12
 1164              		.cfi_offset 6, -8
 1165              		.cfi_offset 14, -4
 1166 000a 0E46     		mov	r6, r1
 1167 000c 0446     		mov	r4, r0
 181:E:/VisualStudioCode/STM32F1_HAL/Drivers/STM32F1xx_HAL_Driver/Src\stm32f1xx_hal_flash_ex.c **** 
 1168              		.loc 1 181 0 discriminator 2
 1169 000e 234B     		ldr	r3, .L114
 1170 0010 0122     		movs	r2, #1
 1171 0012 1A76     		strb	r2, [r3, #24]
 186:E:/VisualStudioCode/STM32F1_HAL/Drivers/STM32F1xx_HAL_Driver/Src\stm32f1xx_hal_flash_ex.c ****   {
 1172              		.loc 1 186 0 discriminator 2
 1173 0014 0368     		ldr	r3, [r0]
 1174 0016 022B     		cmp	r3, #2
 1175 0018 20D0     		beq	.L111
 289:E:/VisualStudioCode/STM32F1_HAL/Drivers/STM32F1xx_HAL_Driver/Src\stm32f1xx_hal_flash_ex.c ****       {
 1176              		.loc 1 289 0
 1177 001a 4CF25030 		movw	r0, #50000
 1178              	.LVL137:
 1179 001e FFF7FEFF 		bl	FLASH_WaitForLastOperation
 1180              	.LVL138:
 1181 0022 90BB     		cbnz	r0, .L106
 292:E:/VisualStudioCode/STM32F1_HAL/Drivers/STM32F1xx_HAL_Driver/Src\stm32f1xx_hal_flash_ex.c ****         
 1182              		.loc 1 292 0
 1183 0024 4FF0FF33 		mov	r3, #-1
 1184 0028 3360     		str	r3, [r6]
 295:E:/VisualStudioCode/STM32F1_HAL/Drivers/STM32F1xx_HAL_Driver/Src\stm32f1xx_hal_flash_ex.c ****             address < ((pEraseInit->NbPages * FLASH_PAGE_SIZE) + pEraseInit->PageAddress);
 1185              		.loc 1 295 0
 1186 002a A568     		ldr	r5, [r4, #8]
 1187              	.LVL139:
 177:E:/VisualStudioCode/STM32F1_HAL/Drivers/STM32F1xx_HAL_Driver/Src\stm32f1xx_hal_flash_ex.c ****   uint32_t address = 0U;
 1188              		.loc 1 177 0
 1189 002c 0122     		movs	r2, #1
 1190              	.LVL140:
 1191              	.L103:
 296:E:/VisualStudioCode/STM32F1_HAL/Drivers/STM32F1xx_HAL_Driver/Src\stm32f1xx_hal_flash_ex.c ****             address += FLASH_PAGE_SIZE)
 1192              		.loc 1 296 0
 1193 002e E168     		ldr	r1, [r4, #12]
 1194 0030 A368     		ldr	r3, [r4, #8]
 1195 0032 03EB8123 		add	r3, r3, r1, lsl #10
 1196 0036 AB42     		cmp	r3, r5
 1197 0038 28D9     		bls	.L101
 299:E:/VisualStudioCode/STM32F1_HAL/Drivers/STM32F1xx_HAL_Driver/Src\stm32f1xx_hal_flash_ex.c ****           
 1198              		.loc 1 299 0
 1199 003a 2846     		mov	r0, r5
 1200 003c FFF7FEFF 		bl	_Z15FLASH_PageErasem
 1201              	.LVL141:
ARM GAS  C:\Users\ADMINI~1\AppData\Local\Temp\ccRfmGKA.s 			page 44


 302:E:/VisualStudioCode/STM32F1_HAL/Drivers/STM32F1xx_HAL_Driver/Src\stm32f1xx_hal_flash_ex.c ****           
 1202              		.loc 1 302 0
 1203 0040 4CF25030 		movw	r0, #50000
 1204 0044 FFF7FEFF 		bl	FLASH_WaitForLastOperation
 1205              	.LVL142:
 305:E:/VisualStudioCode/STM32F1_HAL/Drivers/STM32F1xx_HAL_Driver/Src\stm32f1xx_hal_flash_ex.c ****           
 1206              		.loc 1 305 0
 1207 0048 154A     		ldr	r2, .L114+4
 1208 004a 1369     		ldr	r3, [r2, #16]
 1209 004c 23F00203 		bic	r3, r3, #2
 1210 0050 1361     		str	r3, [r2, #16]
 307:E:/VisualStudioCode/STM32F1_HAL/Drivers/STM32F1xx_HAL_Driver/Src\stm32f1xx_hal_flash_ex.c ****           {
 1211              		.loc 1 307 0
 1212 0052 0246     		mov	r2, r0
 1213 0054 B8B9     		cbnz	r0, .L112
 297:E:/VisualStudioCode/STM32F1_HAL/Drivers/STM32F1xx_HAL_Driver/Src\stm32f1xx_hal_flash_ex.c ****         {
 1214              		.loc 1 297 0
 1215 0056 05F58065 		add	r5, r5, #1024
 1216              	.LVL143:
 295:E:/VisualStudioCode/STM32F1_HAL/Drivers/STM32F1xx_HAL_Driver/Src\stm32f1xx_hal_flash_ex.c ****             address < ((pEraseInit->NbPages * FLASH_PAGE_SIZE) + pEraseInit->PageAddress);
 1217              		.loc 1 295 0
 1218 005a E8E7     		b	.L103
 1219              	.LVL144:
 1220              	.L111:
 232:E:/VisualStudioCode/STM32F1_HAL/Drivers/STM32F1xx_HAL_Driver/Src\stm32f1xx_hal_flash_ex.c ****       {
 1221              		.loc 1 232 0
 1222 005c 4CF25030 		movw	r0, #50000
 1223              	.LVL145:
 1224 0060 FFF7FEFF 		bl	FLASH_WaitForLastOperation
 1225              	.LVL146:
 1226 0064 08B1     		cbz	r0, .L113
 177:E:/VisualStudioCode/STM32F1_HAL/Drivers/STM32F1xx_HAL_Driver/Src\stm32f1xx_hal_flash_ex.c ****   uint32_t address = 0U;
 1227              		.loc 1 177 0
 1228 0066 0122     		movs	r2, #1
 1229 0068 10E0     		b	.L101
 1230              	.L113:
 235:E:/VisualStudioCode/STM32F1_HAL/Drivers/STM32F1xx_HAL_Driver/Src\stm32f1xx_hal_flash_ex.c ****         
 1231              		.loc 1 235 0
 1232 006a 0120     		movs	r0, #1
 1233 006c FFF7FEFF 		bl	_ZL15FLASH_MassErasem
 1234              	.LVL147:
 238:E:/VisualStudioCode/STM32F1_HAL/Drivers/STM32F1xx_HAL_Driver/Src\stm32f1xx_hal_flash_ex.c ****         
 1235              		.loc 1 238 0
 1236 0070 4CF25030 		movw	r0, #50000
 1237 0074 FFF7FEFF 		bl	FLASH_WaitForLastOperation
 1238              	.LVL148:
 1239 0078 0246     		mov	r2, r0
 1240              	.LVL149:
 241:E:/VisualStudioCode/STM32F1_HAL/Drivers/STM32F1xx_HAL_Driver/Src\stm32f1xx_hal_flash_ex.c ****       }
 1241              		.loc 1 241 0
 1242 007a 0949     		ldr	r1, .L114+4
 1243 007c 0B69     		ldr	r3, [r1, #16]
 1244 007e 23F00403 		bic	r3, r3, #4
 1245 0082 0B61     		str	r3, [r1, #16]
 1246 0084 02E0     		b	.L101
 1247              	.LVL150:
 1248              	.L112:
ARM GAS  C:\Users\ADMINI~1\AppData\Local\Temp\ccRfmGKA.s 			page 45


 310:E:/VisualStudioCode/STM32F1_HAL/Drivers/STM32F1xx_HAL_Driver/Src\stm32f1xx_hal_flash_ex.c ****             break;
 1249              		.loc 1 310 0
 1250 0086 3560     		str	r5, [r6]
 311:E:/VisualStudioCode/STM32F1_HAL/Drivers/STM32F1xx_HAL_Driver/Src\stm32f1xx_hal_flash_ex.c ****           }
 1251              		.loc 1 311 0
 1252 0088 00E0     		b	.L101
 1253              	.LVL151:
 1254              	.L106:
 177:E:/VisualStudioCode/STM32F1_HAL/Drivers/STM32F1xx_HAL_Driver/Src\stm32f1xx_hal_flash_ex.c ****   uint32_t address = 0U;
 1255              		.loc 1 177 0
 1256 008a 0122     		movs	r2, #1
 1257              	.LVL152:
 1258              	.L101:
 319:E:/VisualStudioCode/STM32F1_HAL/Drivers/STM32F1xx_HAL_Driver/Src\stm32f1xx_hal_flash_ex.c **** 
 1259              		.loc 1 319 0
 1260 008c 034B     		ldr	r3, .L114
 1261 008e 0021     		movs	r1, #0
 1262 0090 1976     		strb	r1, [r3, #24]
 322:E:/VisualStudioCode/STM32F1_HAL/Drivers/STM32F1xx_HAL_Driver/Src\stm32f1xx_hal_flash_ex.c **** 
 1263              		.loc 1 322 0
 1264 0092 1046     		mov	r0, r2
 1265 0094 70BD     		pop	{r4, r5, r6, pc}
 1266              	.LVL153:
 1267              	.L104:
 1268              	.LCFI10:
 1269              		.cfi_def_cfa_offset 0
 1270              		.cfi_restore 4
 1271              		.cfi_restore 5
 1272              		.cfi_restore 6
 1273              		.cfi_restore 14
 181:E:/VisualStudioCode/STM32F1_HAL/Drivers/STM32F1xx_HAL_Driver/Src\stm32f1xx_hal_flash_ex.c **** 
 1274              		.loc 1 181 0
 1275 0096 0222     		movs	r2, #2
 322:E:/VisualStudioCode/STM32F1_HAL/Drivers/STM32F1xx_HAL_Driver/Src\stm32f1xx_hal_flash_ex.c **** 
 1276              		.loc 1 322 0
 1277 0098 1046     		mov	r0, r2
 1278              	.LVL154:
 1279 009a 7047     		bx	lr
 1280              	.L115:
 1281              		.align	2
 1282              	.L114:
 1283 009c 00000000 		.word	pFlash
 1284 00a0 00200240 		.word	1073881088
 1285              		.cfi_endproc
 1286              	.LFE64:
 1287              		.fnend
 1289              		.section	.text.HAL_FLASHEx_Erase_IT,"ax",%progbits
 1290              		.align	1
 1291              		.global	HAL_FLASHEx_Erase_IT
 1292              		.syntax unified
 1293              		.thumb
 1294              		.thumb_func
 1295              		.fpu softvfp
 1297              	HAL_FLASHEx_Erase_IT:
 1298              		.fnstart
 1299              	.LFB65:
 336:E:/VisualStudioCode/STM32F1_HAL/Drivers/STM32F1xx_HAL_Driver/Src\stm32f1xx_hal_flash_ex.c ****   HAL_StatusTypeDef status = HAL_OK;
ARM GAS  C:\Users\ADMINI~1\AppData\Local\Temp\ccRfmGKA.s 			page 46


 1300              		.loc 1 336 0
 1301              		.cfi_startproc
 1302              		@ args = 0, pretend = 0, frame = 0
 1303              		@ frame_needed = 0, uses_anonymous_args = 0
 1304              	.LVL155:
 1305 0000 08B5     		push	{r3, lr}
 1306              	.LCFI11:
 1307              		.cfi_def_cfa_offset 8
 1308              		.cfi_offset 3, -8
 1309              		.cfi_offset 14, -4
 1310              	.LVL156:
 340:E:/VisualStudioCode/STM32F1_HAL/Drivers/STM32F1xx_HAL_Driver/Src\stm32f1xx_hal_flash_ex.c **** 
 1311              		.loc 1 340 0
 1312 0002 144B     		ldr	r3, .L123
 1313 0004 1B7E     		ldrb	r3, [r3, #24]	@ zero_extendqisi2
 1314 0006 012B     		cmp	r3, #1
 1315 0008 20D0     		beq	.L119
 340:E:/VisualStudioCode/STM32F1_HAL/Drivers/STM32F1xx_HAL_Driver/Src\stm32f1xx_hal_flash_ex.c **** 
 1316              		.loc 1 340 0 is_stmt 0 discriminator 2
 1317 000a 124B     		ldr	r3, .L123
 1318 000c 0122     		movs	r2, #1
 1319 000e 1A76     		strb	r2, [r3, #24]
 343:E:/VisualStudioCode/STM32F1_HAL/Drivers/STM32F1xx_HAL_Driver/Src\stm32f1xx_hal_flash_ex.c ****   {
 1320              		.loc 1 343 0 is_stmt 1 discriminator 2
 1321 0010 1B78     		ldrb	r3, [r3]	@ zero_extendqisi2
 1322 0012 EBB9     		cbnz	r3, .L120
 352:E:/VisualStudioCode/STM32F1_HAL/Drivers/STM32F1xx_HAL_Driver/Src\stm32f1xx_hal_flash_ex.c **** 
 1323              		.loc 1 352 0
 1324 0014 104A     		ldr	r2, .L123+4
 1325 0016 1369     		ldr	r3, [r2, #16]
 1326 0018 43F4A053 		orr	r3, r3, #5120
 1327 001c 1361     		str	r3, [r2, #16]
 359:E:/VisualStudioCode/STM32F1_HAL/Drivers/STM32F1xx_HAL_Driver/Src\stm32f1xx_hal_flash_ex.c ****   {
 1328              		.loc 1 359 0
 1329 001e 0368     		ldr	r3, [r0]
 1330 0020 022B     		cmp	r3, #2
 1331 0022 0BD0     		beq	.L122
 373:E:/VisualStudioCode/STM32F1_HAL/Drivers/STM32F1xx_HAL_Driver/Src\stm32f1xx_hal_flash_ex.c ****     pFlash.DataRemaining = pEraseInit->NbPages;
 1332              		.loc 1 373 0
 1333 0024 0B4B     		ldr	r3, .L123
 1334 0026 0122     		movs	r2, #1
 1335 0028 1A70     		strb	r2, [r3]
 374:E:/VisualStudioCode/STM32F1_HAL/Drivers/STM32F1xx_HAL_Driver/Src\stm32f1xx_hal_flash_ex.c ****     pFlash.Address = pEraseInit->PageAddress;
 1336              		.loc 1 374 0
 1337 002a C268     		ldr	r2, [r0, #12]
 1338 002c 5A60     		str	r2, [r3, #4]
 375:E:/VisualStudioCode/STM32F1_HAL/Drivers/STM32F1xx_HAL_Driver/Src\stm32f1xx_hal_flash_ex.c **** 
 1339              		.loc 1 375 0
 1340 002e 8268     		ldr	r2, [r0, #8]
 1341 0030 9A60     		str	r2, [r3, #8]
 378:E:/VisualStudioCode/STM32F1_HAL/Drivers/STM32F1xx_HAL_Driver/Src\stm32f1xx_hal_flash_ex.c ****   }
 1342              		.loc 1 378 0
 1343 0032 8068     		ldr	r0, [r0, #8]
 1344              	.LVL157:
 1345 0034 FFF7FEFF 		bl	_Z15FLASH_PageErasem
 1346              	.LVL158:
 381:E:/VisualStudioCode/STM32F1_HAL/Drivers/STM32F1xx_HAL_Driver/Src\stm32f1xx_hal_flash_ex.c **** }
ARM GAS  C:\Users\ADMINI~1\AppData\Local\Temp\ccRfmGKA.s 			page 47


 1347              		.loc 1 381 0
 1348 0038 0020     		movs	r0, #0
 1349 003a 0AE0     		b	.L117
 1350              	.LVL159:
 1351              	.L122:
 362:E:/VisualStudioCode/STM32F1_HAL/Drivers/STM32F1xx_HAL_Driver/Src\stm32f1xx_hal_flash_ex.c ****         FLASH_MassErase(pEraseInit->Banks);
 1352              		.loc 1 362 0
 1353 003c 054B     		ldr	r3, .L123
 1354 003e 0222     		movs	r2, #2
 1355 0040 1A70     		strb	r2, [r3]
 363:E:/VisualStudioCode/STM32F1_HAL/Drivers/STM32F1xx_HAL_Driver/Src\stm32f1xx_hal_flash_ex.c ****   }
 1356              		.loc 1 363 0
 1357 0042 4068     		ldr	r0, [r0, #4]
 1358              	.LVL160:
 1359 0044 FFF7FEFF 		bl	_ZL15FLASH_MassErasem
 1360              	.LVL161:
 381:E:/VisualStudioCode/STM32F1_HAL/Drivers/STM32F1xx_HAL_Driver/Src\stm32f1xx_hal_flash_ex.c **** }
 1361              		.loc 1 381 0
 1362 0048 0020     		movs	r0, #0
 1363 004a 02E0     		b	.L117
 1364              	.LVL162:
 1365              	.L119:
 340:E:/VisualStudioCode/STM32F1_HAL/Drivers/STM32F1xx_HAL_Driver/Src\stm32f1xx_hal_flash_ex.c **** 
 1366              		.loc 1 340 0
 1367 004c 0220     		movs	r0, #2
 1368              	.LVL163:
 1369 004e 00E0     		b	.L117
 1370              	.LVL164:
 1371              	.L120:
 345:E:/VisualStudioCode/STM32F1_HAL/Drivers/STM32F1xx_HAL_Driver/Src\stm32f1xx_hal_flash_ex.c ****   }
 1372              		.loc 1 345 0
 1373 0050 0120     		movs	r0, #1
 1374              	.LVL165:
 1375              	.L117:
 382:E:/VisualStudioCode/STM32F1_HAL/Drivers/STM32F1xx_HAL_Driver/Src\stm32f1xx_hal_flash_ex.c **** 
 1376              		.loc 1 382 0
 1377 0052 08BD     		pop	{r3, pc}
 1378              	.L124:
 1379              		.align	2
 1380              	.L123:
 1381 0054 00000000 		.word	pFlash
 1382 0058 00200240 		.word	1073881088
 1383              		.cfi_endproc
 1384              	.LFE65:
 1385              		.cantunwind
 1386              		.fnend
 1388              		.text
 1389              	.Letext0:
 1390              		.file 2 "e:\\visualstudiocode\\gcc-arm-none-eabi\\arm-none-eabi\\include\\machine\\_default_types.
 1391              		.file 3 "e:\\visualstudiocode\\gcc-arm-none-eabi\\arm-none-eabi\\include\\sys\\_stdint.h"
 1392              		.file 4 "E:/VisualStudioCode/STM32F1_HAL/Drivers/CMSIS/Include/core_cm3.h"
 1393              		.file 5 "E:/VisualStudioCode/STM32F1_HAL/Drivers/CMSIS/Device/ST/STM32F1xx/Include/system_stm32f1x
 1394              		.file 6 "E:/VisualStudioCode/STM32F1_HAL/Drivers/CMSIS/Device/ST/STM32F1xx/Include/stm32f103xb.h"
 1395              		.file 7 "e:\\visualstudiocode\\gcc-arm-none-eabi\\arm-none-eabi\\include\\sys\\lock.h"
 1396              		.file 8 "e:\\visualstudiocode\\gcc-arm-none-eabi\\arm-none-eabi\\include\\sys\\_types.h"
 1397              		.file 9 "e:\\visualstudiocode\\gcc-arm-none-eabi\\lib\\gcc\\arm-none-eabi\\7.2.1\\include\\stddef.
 1398              		.file 10 "e:\\visualstudiocode\\gcc-arm-none-eabi\\arm-none-eabi\\include\\sys\\reent.h"
ARM GAS  C:\Users\ADMINI~1\AppData\Local\Temp\ccRfmGKA.s 			page 48


 1399              		.file 11 "E:/VisualStudioCode/STM32F1_HAL/Drivers/STM32F1xx_HAL_Driver/Inc/stm32f1xx_hal_def.h"
 1400              		.file 12 "E:/VisualStudioCode/STM32F1_HAL/Drivers/STM32F1xx_HAL_Driver/Inc/stm32f1xx_hal_flash.h"
 1401              		.file 13 "E:/VisualStudioCode/STM32F1_HAL/Drivers/STM32F1xx_HAL_Driver/Inc/stm32f1xx_hal_flash_ex.
ARM GAS  C:\Users\ADMINI~1\AppData\Local\Temp\ccRfmGKA.s 			page 49


DEFINED SYMBOLS
                            *ABS*:00000000 stm32f1xx_hal_flash_ex.c
C:\Users\ADMINI~1\AppData\Local\Temp\ccRfmGKA.s:16     .text._ZL15FLASH_MassErasem:00000000 $t
C:\Users\ADMINI~1\AppData\Local\Temp\ccRfmGKA.s:22     .text._ZL15FLASH_MassErasem:00000000 _ZL15FLASH_MassErasem
C:\Users\ADMINI~1\AppData\Local\Temp\ccRfmGKA.s:50     .text._ZL15FLASH_MassErasem:0000001c $d
.ARM.exidx.text._ZL15FLASH_MassErasem:00000000 $d
C:\Users\ADMINI~1\AppData\Local\Temp\ccRfmGKA.s:58     .text._ZL15FLASH_OB_GetWRPv:00000000 $t
C:\Users\ADMINI~1\AppData\Local\Temp\ccRfmGKA.s:64     .text._ZL15FLASH_OB_GetWRPv:00000000 _ZL15FLASH_OB_GetWRPv
C:\Users\ADMINI~1\AppData\Local\Temp\ccRfmGKA.s:80     .text._ZL15FLASH_OB_GetWRPv:00000008 $d
.ARM.exidx.text._ZL15FLASH_OB_GetWRPv:00000000 $d
C:\Users\ADMINI~1\AppData\Local\Temp\ccRfmGKA.s:87     .text._ZL15FLASH_OB_GetRDPv:00000000 $t
C:\Users\ADMINI~1\AppData\Local\Temp\ccRfmGKA.s:93     .text._ZL15FLASH_OB_GetRDPv:00000000 _ZL15FLASH_OB_GetRDPv
C:\Users\ADMINI~1\AppData\Local\Temp\ccRfmGKA.s:120    .text._ZL15FLASH_OB_GetRDPv:00000014 $d
.ARM.exidx.text._ZL15FLASH_OB_GetRDPv:00000000 $d
C:\Users\ADMINI~1\AppData\Local\Temp\ccRfmGKA.s:127    .text._ZL16FLASH_OB_GetUserv:00000000 $t
C:\Users\ADMINI~1\AppData\Local\Temp\ccRfmGKA.s:133    .text._ZL16FLASH_OB_GetUserv:00000000 _ZL16FLASH_OB_GetUserv
C:\Users\ADMINI~1\AppData\Local\Temp\ccRfmGKA.s:150    .text._ZL16FLASH_OB_GetUserv:0000000c $d
.ARM.exidx.text._ZL16FLASH_OB_GetUserv:00000000 $d
C:\Users\ADMINI~1\AppData\Local\Temp\ccRfmGKA.s:157    .text._ZL24FLASH_OB_RDP_LevelConfigh:00000000 $t
C:\Users\ADMINI~1\AppData\Local\Temp\ccRfmGKA.s:163    .text._ZL24FLASH_OB_RDP_LevelConfigh:00000000 _ZL24FLASH_OB_RDP_LevelConfigh
C:\Users\ADMINI~1\AppData\Local\Temp\ccRfmGKA.s:245    .text._ZL24FLASH_OB_RDP_LevelConfigh:00000064 $d
.ARM.exidx.text._ZL24FLASH_OB_RDP_LevelConfigh:00000000 $d
C:\Users\ADMINI~1\AppData\Local\Temp\ccRfmGKA.s:253    .text._ZL19FLASH_OB_UserConfigh:00000000 $t
C:\Users\ADMINI~1\AppData\Local\Temp\ccRfmGKA.s:259    .text._ZL19FLASH_OB_UserConfigh:00000000 _ZL19FLASH_OB_UserConfigh
C:\Users\ADMINI~1\AppData\Local\Temp\ccRfmGKA.s:320    .text._ZL19FLASH_OB_UserConfigh:00000040 $d
.ARM.exidx.text._ZL19FLASH_OB_UserConfigh:00000000 $d
C:\Users\ADMINI~1\AppData\Local\Temp\ccRfmGKA.s:328    .text._ZL20FLASH_OB_ProgramDatamh:00000000 $t
C:\Users\ADMINI~1\AppData\Local\Temp\ccRfmGKA.s:334    .text._ZL20FLASH_OB_ProgramDatamh:00000000 _ZL20FLASH_OB_ProgramDatamh
C:\Users\ADMINI~1\AppData\Local\Temp\ccRfmGKA.s:395    .text._ZL20FLASH_OB_ProgramDatamh:00000040 $d
.ARM.exidx.text._ZL20FLASH_OB_ProgramDatamh:00000000 $d
C:\Users\ADMINI~1\AppData\Local\Temp\ccRfmGKA.s:402    .text.HAL_FLASHEx_OBErase:00000000 $t
C:\Users\ADMINI~1\AppData\Local\Temp\ccRfmGKA.s:409    .text.HAL_FLASHEx_OBErase:00000000 HAL_FLASHEx_OBErase
C:\Users\ADMINI~1\AppData\Local\Temp\ccRfmGKA.s:481    .text.HAL_FLASHEx_OBErase:00000050 $d
.ARM.exidx.text.HAL_FLASHEx_OBErase:00000000 $d
C:\Users\ADMINI~1\AppData\Local\Temp\ccRfmGKA.s:488    .text._ZL18FLASH_OB_EnableWRPm:00000000 $t
C:\Users\ADMINI~1\AppData\Local\Temp\ccRfmGKA.s:494    .text._ZL18FLASH_OB_EnableWRPm:00000000 _ZL18FLASH_OB_EnableWRPm
C:\Users\ADMINI~1\AppData\Local\Temp\ccRfmGKA.s:652    .text._ZL18FLASH_OB_EnableWRPm:000000b4 $d
.ARM.exidx.text._ZL18FLASH_OB_EnableWRPm:00000000 $d
C:\Users\ADMINI~1\AppData\Local\Temp\ccRfmGKA.s:660    .text._ZL19FLASH_OB_DisableWRPm:00000000 $t
C:\Users\ADMINI~1\AppData\Local\Temp\ccRfmGKA.s:666    .text._ZL19FLASH_OB_DisableWRPm:00000000 _ZL19FLASH_OB_DisableWRPm
C:\Users\ADMINI~1\AppData\Local\Temp\ccRfmGKA.s:824    .text._ZL19FLASH_OB_DisableWRPm:000000b4 $d
.ARM.exidx.text._ZL19FLASH_OB_DisableWRPm:00000000 $d
C:\Users\ADMINI~1\AppData\Local\Temp\ccRfmGKA.s:832    .text.HAL_FLASHEx_OBProgram:00000000 $t
C:\Users\ADMINI~1\AppData\Local\Temp\ccRfmGKA.s:839    .text.HAL_FLASHEx_OBProgram:00000000 HAL_FLASHEx_OBProgram
C:\Users\ADMINI~1\AppData\Local\Temp\ccRfmGKA.s:995    .text.HAL_FLASHEx_OBProgram:000000a4 $d
.ARM.exidx.text.HAL_FLASHEx_OBProgram:00000000 $d
C:\Users\ADMINI~1\AppData\Local\Temp\ccRfmGKA.s:1001   .text.HAL_FLASHEx_OBGetConfig:00000000 $t
C:\Users\ADMINI~1\AppData\Local\Temp\ccRfmGKA.s:1008   .text.HAL_FLASHEx_OBGetConfig:00000000 HAL_FLASHEx_OBGetConfig
.ARM.exidx.text.HAL_FLASHEx_OBGetConfig:00000000 $d
C:\Users\ADMINI~1\AppData\Local\Temp\ccRfmGKA.s:1045   .text.HAL_FLASHEx_OBGetUserData:00000000 $t
C:\Users\ADMINI~1\AppData\Local\Temp\ccRfmGKA.s:1052   .text.HAL_FLASHEx_OBGetUserData:00000000 HAL_FLASHEx_OBGetUserData
C:\Users\ADMINI~1\AppData\Local\Temp\ccRfmGKA.s:1085   .text.HAL_FLASHEx_OBGetUserData:0000001c $d
.ARM.exidx.text.HAL_FLASHEx_OBGetUserData:00000000 $d
C:\Users\ADMINI~1\AppData\Local\Temp\ccRfmGKA.s:1093   .text._Z15FLASH_PageErasem:00000000 $t
C:\Users\ADMINI~1\AppData\Local\Temp\ccRfmGKA.s:1100   .text._Z15FLASH_PageErasem:00000000 _Z15FLASH_PageErasem
C:\Users\ADMINI~1\AppData\Local\Temp\ccRfmGKA.s:1129   .text._Z15FLASH_PageErasem:0000001c $d
.ARM.exidx.text._Z15FLASH_PageErasem:00000000 $d
ARM GAS  C:\Users\ADMINI~1\AppData\Local\Temp\ccRfmGKA.s 			page 50


C:\Users\ADMINI~1\AppData\Local\Temp\ccRfmGKA.s:1137   .text.HAL_FLASHEx_Erase:00000000 $t
C:\Users\ADMINI~1\AppData\Local\Temp\ccRfmGKA.s:1144   .text.HAL_FLASHEx_Erase:00000000 HAL_FLASHEx_Erase
C:\Users\ADMINI~1\AppData\Local\Temp\ccRfmGKA.s:1283   .text.HAL_FLASHEx_Erase:0000009c $d
.ARM.exidx.text.HAL_FLASHEx_Erase:00000000 $d
C:\Users\ADMINI~1\AppData\Local\Temp\ccRfmGKA.s:1290   .text.HAL_FLASHEx_Erase_IT:00000000 $t
C:\Users\ADMINI~1\AppData\Local\Temp\ccRfmGKA.s:1297   .text.HAL_FLASHEx_Erase_IT:00000000 HAL_FLASHEx_Erase_IT
C:\Users\ADMINI~1\AppData\Local\Temp\ccRfmGKA.s:1381   .text.HAL_FLASHEx_Erase_IT:00000054 $d
.ARM.exidx.text.HAL_FLASHEx_Erase_IT:00000000 $d

UNDEFINED SYMBOLS
pFlash
FLASH_WaitForLastOperation
__aeabi_unwind_cpp_pr0
