ARM GAS  C:\Users\ADMINI~1\AppData\Local\Temp\ccMiw49t.s 			page 1


   1              		.cpu cortex-m3
   2              		.eabi_attribute 20, 1
   3              		.eabi_attribute 21, 1
   4              		.eabi_attribute 23, 3
   5              		.eabi_attribute 24, 1
   6              		.eabi_attribute 25, 1
   7              		.eabi_attribute 26, 1
   8              		.eabi_attribute 30, 1
   9              		.eabi_attribute 34, 1
  10              		.eabi_attribute 18, 4
  11              		.file	"stm32f1xx_hal_msp.c"
  12              		.text
  13              	.Ltext0:
  14              		.cfi_sections	.debug_frame
  15              		.section	.text._Error_Handler,"ax",%progbits
  16              		.align	1
  17              		.global	_Error_Handler
  18              		.syntax unified
  19              		.thumb
  20              		.thumb_func
  21              		.fpu softvfp
  23              	_Error_Handler:
  24              		.fnstart
  25              	.LFB64:
  26              		.file 1 "E:/VisualStudioCode/STM32F1_HAL/Src/stm32f1xx_hal_msp.c"
   1:E:/VisualStudioCode/STM32F1_HAL/Src\stm32f1xx_hal_msp.c **** /**
   2:E:/VisualStudioCode/STM32F1_HAL/Src\stm32f1xx_hal_msp.c ****   ******************************************************************************
   3:E:/VisualStudioCode/STM32F1_HAL/Src\stm32f1xx_hal_msp.c ****   * File Name          : stm32f1xx_hal_msp.c
   4:E:/VisualStudioCode/STM32F1_HAL/Src\stm32f1xx_hal_msp.c ****   * Description        : This file provides code for the MSP Initialization 
   5:E:/VisualStudioCode/STM32F1_HAL/Src\stm32f1xx_hal_msp.c ****   *                      and de-Initialization codes.
   6:E:/VisualStudioCode/STM32F1_HAL/Src\stm32f1xx_hal_msp.c ****   ******************************************************************************
   7:E:/VisualStudioCode/STM32F1_HAL/Src\stm32f1xx_hal_msp.c ****   ** This notice applies to any and all portions of this file
   8:E:/VisualStudioCode/STM32F1_HAL/Src\stm32f1xx_hal_msp.c ****   * that are not between comment pairs USER CODE BEGIN and
   9:E:/VisualStudioCode/STM32F1_HAL/Src\stm32f1xx_hal_msp.c ****   * USER CODE END. Other portions of this file, whether 
  10:E:/VisualStudioCode/STM32F1_HAL/Src\stm32f1xx_hal_msp.c ****   * inserted by the user or by software development tools
  11:E:/VisualStudioCode/STM32F1_HAL/Src\stm32f1xx_hal_msp.c ****   * are owned by their respective copyright owners.
  12:E:/VisualStudioCode/STM32F1_HAL/Src\stm32f1xx_hal_msp.c ****   *
  13:E:/VisualStudioCode/STM32F1_HAL/Src\stm32f1xx_hal_msp.c ****   * COPYRIGHT(c) 2018 STMicroelectronics
  14:E:/VisualStudioCode/STM32F1_HAL/Src\stm32f1xx_hal_msp.c ****   *
  15:E:/VisualStudioCode/STM32F1_HAL/Src\stm32f1xx_hal_msp.c ****   * Redistribution and use in source and binary forms, with or without modification,
  16:E:/VisualStudioCode/STM32F1_HAL/Src\stm32f1xx_hal_msp.c ****   * are permitted provided that the following conditions are met:
  17:E:/VisualStudioCode/STM32F1_HAL/Src\stm32f1xx_hal_msp.c ****   *   1. Redistributions of source code must retain the above copyright notice,
  18:E:/VisualStudioCode/STM32F1_HAL/Src\stm32f1xx_hal_msp.c ****   *      this list of conditions and the following disclaimer.
  19:E:/VisualStudioCode/STM32F1_HAL/Src\stm32f1xx_hal_msp.c ****   *   2. Redistributions in binary form must reproduce the above copyright notice,
  20:E:/VisualStudioCode/STM32F1_HAL/Src\stm32f1xx_hal_msp.c ****   *      this list of conditions and the following disclaimer in the documentation
  21:E:/VisualStudioCode/STM32F1_HAL/Src\stm32f1xx_hal_msp.c ****   *      and/or other materials provided with the distribution.
  22:E:/VisualStudioCode/STM32F1_HAL/Src\stm32f1xx_hal_msp.c ****   *   3. Neither the name of STMicroelectronics nor the names of its contributors
  23:E:/VisualStudioCode/STM32F1_HAL/Src\stm32f1xx_hal_msp.c ****   *      may be used to endorse or promote products derived from this software
  24:E:/VisualStudioCode/STM32F1_HAL/Src\stm32f1xx_hal_msp.c ****   *      without specific prior written permission.
  25:E:/VisualStudioCode/STM32F1_HAL/Src\stm32f1xx_hal_msp.c ****   *
  26:E:/VisualStudioCode/STM32F1_HAL/Src\stm32f1xx_hal_msp.c ****   * THIS SOFTWARE IS PROVIDED BY THE COPYRIGHT HOLDERS AND CONTRIBUTORS "AS IS"
  27:E:/VisualStudioCode/STM32F1_HAL/Src\stm32f1xx_hal_msp.c ****   * AND ANY EXPRESS OR IMPLIED WARRANTIES, INCLUDING, BUT NOT LIMITED TO, THE
  28:E:/VisualStudioCode/STM32F1_HAL/Src\stm32f1xx_hal_msp.c ****   * IMPLIED WARRANTIES OF MERCHANTABILITY AND FITNESS FOR A PARTICULAR PURPOSE ARE
  29:E:/VisualStudioCode/STM32F1_HAL/Src\stm32f1xx_hal_msp.c ****   * DISCLAIMED. IN NO EVENT SHALL THE COPYRIGHT HOLDER OR CONTRIBUTORS BE LIABLE
  30:E:/VisualStudioCode/STM32F1_HAL/Src\stm32f1xx_hal_msp.c ****   * FOR ANY DIRECT, INDIRECT, INCIDENTAL, SPECIAL, EXEMPLARY, OR CONSEQUENTIAL
  31:E:/VisualStudioCode/STM32F1_HAL/Src\stm32f1xx_hal_msp.c ****   * DAMAGES (INCLUDING, BUT NOT LIMITED TO, PROCUREMENT OF SUBSTITUTE GOODS OR
  32:E:/VisualStudioCode/STM32F1_HAL/Src\stm32f1xx_hal_msp.c ****   * SERVICES; LOSS OF USE, DATA, OR PROFITS; OR BUSINESS INTERRUPTION) HOWEVER
ARM GAS  C:\Users\ADMINI~1\AppData\Local\Temp\ccMiw49t.s 			page 2


  33:E:/VisualStudioCode/STM32F1_HAL/Src\stm32f1xx_hal_msp.c ****   * CAUSED AND ON ANY THEORY OF LIABILITY, WHETHER IN CONTRACT, STRICT LIABILITY,
  34:E:/VisualStudioCode/STM32F1_HAL/Src\stm32f1xx_hal_msp.c ****   * OR TORT (INCLUDING NEGLIGENCE OR OTHERWISE) ARISING IN ANY WAY OUT OF THE USE
  35:E:/VisualStudioCode/STM32F1_HAL/Src\stm32f1xx_hal_msp.c ****   * OF THIS SOFTWARE, EVEN IF ADVISED OF THE POSSIBILITY OF SUCH DAMAGE.
  36:E:/VisualStudioCode/STM32F1_HAL/Src\stm32f1xx_hal_msp.c ****   *
  37:E:/VisualStudioCode/STM32F1_HAL/Src\stm32f1xx_hal_msp.c ****   ******************************************************************************
  38:E:/VisualStudioCode/STM32F1_HAL/Src\stm32f1xx_hal_msp.c ****   */
  39:E:/VisualStudioCode/STM32F1_HAL/Src\stm32f1xx_hal_msp.c **** /* Includes ------------------------------------------------------------------*/
  40:E:/VisualStudioCode/STM32F1_HAL/Src\stm32f1xx_hal_msp.c **** #include "stm32f1xx_hal.h"
  41:E:/VisualStudioCode/STM32F1_HAL/Src\stm32f1xx_hal_msp.c **** #include "main.h"
  42:E:/VisualStudioCode/STM32F1_HAL/Src\stm32f1xx_hal_msp.c **** //#include "led.h"
  43:E:/VisualStudioCode/STM32F1_HAL/Src\stm32f1xx_hal_msp.c **** 
  44:E:/VisualStudioCode/STM32F1_HAL/Src\stm32f1xx_hal_msp.c **** /**
  45:E:/VisualStudioCode/STM32F1_HAL/Src\stm32f1xx_hal_msp.c ****   * @brief  This function is executed in case of error occurrence.
  46:E:/VisualStudioCode/STM32F1_HAL/Src\stm32f1xx_hal_msp.c ****   * @param  file: The file name as string.
  47:E:/VisualStudioCode/STM32F1_HAL/Src\stm32f1xx_hal_msp.c ****   * @param  line: The line in file as a number.
  48:E:/VisualStudioCode/STM32F1_HAL/Src\stm32f1xx_hal_msp.c ****   * @retval None
  49:E:/VisualStudioCode/STM32F1_HAL/Src\stm32f1xx_hal_msp.c ****   */
  50:E:/VisualStudioCode/STM32F1_HAL/Src\stm32f1xx_hal_msp.c **** void _Error_Handler(char *file, int line)
  51:E:/VisualStudioCode/STM32F1_HAL/Src\stm32f1xx_hal_msp.c **** {
  27              		.loc 1 51 0
  28              		.cfi_startproc
  29              		@ args = 0, pretend = 0, frame = 0
  30              		@ frame_needed = 0, uses_anonymous_args = 0
  31              	.LVL0:
  32 0000 08B5     		push	{r3, lr}
  33              		.save {r3, lr}
  34              	.LCFI0:
  35              		.cfi_def_cfa_offset 8
  36              		.cfi_offset 3, -8
  37              		.cfi_offset 14, -4
  38              	.LVL1:
  39              	.L2:
  52:E:/VisualStudioCode/STM32F1_HAL/Src\stm32f1xx_hal_msp.c ****   /* USER CODE BEGIN Error_Handler_Debug */
  53:E:/VisualStudioCode/STM32F1_HAL/Src\stm32f1xx_hal_msp.c ****   /* User can add his own implementation to report the HAL error return state */
  54:E:/VisualStudioCode/STM32F1_HAL/Src\stm32f1xx_hal_msp.c **** 	//LED_INIT;
  55:E:/VisualStudioCode/STM32F1_HAL/Src\stm32f1xx_hal_msp.c ****   while(1)
  56:E:/VisualStudioCode/STM32F1_HAL/Src\stm32f1xx_hal_msp.c ****   {
  57:E:/VisualStudioCode/STM32F1_HAL/Src\stm32f1xx_hal_msp.c **** 		//LED_CHANGE;			
  58:E:/VisualStudioCode/STM32F1_HAL/Src\stm32f1xx_hal_msp.c **** 		HAL_Delay(50);
  40              		.loc 1 58 0 discriminator 1
  41 0002 3220     		movs	r0, #50
  42 0004 FFF7FEFF 		bl	HAL_Delay
  43              	.LVL2:
  44 0008 FBE7     		b	.L2
  45              		.cfi_endproc
  46              	.LFE64:
  47              		.fnend
  49              		.section	.text.HAL_MspInit,"ax",%progbits
  50              		.align	1
  51              		.global	HAL_MspInit
  52              		.syntax unified
  53              		.thumb
  54              		.thumb_func
  55              		.fpu softvfp
  57              	HAL_MspInit:
  58              		.fnstart
  59              	.LFB65:
ARM GAS  C:\Users\ADMINI~1\AppData\Local\Temp\ccMiw49t.s 			page 3


  59:E:/VisualStudioCode/STM32F1_HAL/Src\stm32f1xx_hal_msp.c ****   }
  60:E:/VisualStudioCode/STM32F1_HAL/Src\stm32f1xx_hal_msp.c ****   /* USER CODE END Error_Handler_Debug */
  61:E:/VisualStudioCode/STM32F1_HAL/Src\stm32f1xx_hal_msp.c **** }
  62:E:/VisualStudioCode/STM32F1_HAL/Src\stm32f1xx_hal_msp.c **** 
  63:E:/VisualStudioCode/STM32F1_HAL/Src\stm32f1xx_hal_msp.c **** /**
  64:E:/VisualStudioCode/STM32F1_HAL/Src\stm32f1xx_hal_msp.c ****   * Initializes the Global MSP.
  65:E:/VisualStudioCode/STM32F1_HAL/Src\stm32f1xx_hal_msp.c ****   */
  66:E:/VisualStudioCode/STM32F1_HAL/Src\stm32f1xx_hal_msp.c **** void HAL_MspInit(void)
  67:E:/VisualStudioCode/STM32F1_HAL/Src\stm32f1xx_hal_msp.c **** {
  60              		.loc 1 67 0
  61              		.cfi_startproc
  62              		@ args = 0, pretend = 0, frame = 8
  63              		@ frame_needed = 0, uses_anonymous_args = 0
  64 0000 00B5     		push	{lr}
  65              		.save {lr}
  66              	.LCFI1:
  67              		.cfi_def_cfa_offset 4
  68              		.cfi_offset 14, -4
  69              		.pad #12
  70 0002 83B0     		sub	sp, sp, #12
  71              	.LCFI2:
  72              		.cfi_def_cfa_offset 16
  73              	.LBB2:
  68:E:/VisualStudioCode/STM32F1_HAL/Src\stm32f1xx_hal_msp.c ****   /* USER CODE BEGIN MspInit 0 */
  69:E:/VisualStudioCode/STM32F1_HAL/Src\stm32f1xx_hal_msp.c **** 
  70:E:/VisualStudioCode/STM32F1_HAL/Src\stm32f1xx_hal_msp.c ****   /* USER CODE END MspInit 0 */
  71:E:/VisualStudioCode/STM32F1_HAL/Src\stm32f1xx_hal_msp.c **** 
  72:E:/VisualStudioCode/STM32F1_HAL/Src\stm32f1xx_hal_msp.c ****   __HAL_RCC_AFIO_CLK_ENABLE();
  74              		.loc 1 72 0
  75 0004 204B     		ldr	r3, .L6
  76 0006 9A69     		ldr	r2, [r3, #24]
  77 0008 42F00102 		orr	r2, r2, #1
  78 000c 9A61     		str	r2, [r3, #24]
  79 000e 9B69     		ldr	r3, [r3, #24]
  80 0010 03F00103 		and	r3, r3, #1
  81 0014 0193     		str	r3, [sp, #4]
  82 0016 019B     		ldr	r3, [sp, #4]
  83              	.LBE2:
  73:E:/VisualStudioCode/STM32F1_HAL/Src\stm32f1xx_hal_msp.c **** 
  74:E:/VisualStudioCode/STM32F1_HAL/Src\stm32f1xx_hal_msp.c ****   HAL_NVIC_SetPriorityGrouping(NVIC_PRIORITYGROUP_4);
  84              		.loc 1 74 0
  85 0018 0320     		movs	r0, #3
  86 001a FFF7FEFF 		bl	HAL_NVIC_SetPriorityGrouping
  87              	.LVL3:
  75:E:/VisualStudioCode/STM32F1_HAL/Src\stm32f1xx_hal_msp.c **** 
  76:E:/VisualStudioCode/STM32F1_HAL/Src\stm32f1xx_hal_msp.c ****   /* System interrupt init*/
  77:E:/VisualStudioCode/STM32F1_HAL/Src\stm32f1xx_hal_msp.c ****   /* MemoryManagement_IRQn interrupt configuration */
  78:E:/VisualStudioCode/STM32F1_HAL/Src\stm32f1xx_hal_msp.c ****   HAL_NVIC_SetPriority(MemoryManagement_IRQn, 0, 0);
  88              		.loc 1 78 0
  89 001e 0022     		movs	r2, #0
  90 0020 1146     		mov	r1, r2
  91 0022 6FF00B00 		mvn	r0, #11
  92 0026 FFF7FEFF 		bl	HAL_NVIC_SetPriority
  93              	.LVL4:
  79:E:/VisualStudioCode/STM32F1_HAL/Src\stm32f1xx_hal_msp.c ****   /* BusFault_IRQn interrupt configuration */
  80:E:/VisualStudioCode/STM32F1_HAL/Src\stm32f1xx_hal_msp.c ****   HAL_NVIC_SetPriority(BusFault_IRQn, 0, 0);
  94              		.loc 1 80 0
ARM GAS  C:\Users\ADMINI~1\AppData\Local\Temp\ccMiw49t.s 			page 4


  95 002a 0022     		movs	r2, #0
  96 002c 1146     		mov	r1, r2
  97 002e 6FF00A00 		mvn	r0, #10
  98 0032 FFF7FEFF 		bl	HAL_NVIC_SetPriority
  99              	.LVL5:
  81:E:/VisualStudioCode/STM32F1_HAL/Src\stm32f1xx_hal_msp.c ****   /* UsageFault_IRQn interrupt configuration */
  82:E:/VisualStudioCode/STM32F1_HAL/Src\stm32f1xx_hal_msp.c ****   HAL_NVIC_SetPriority(UsageFault_IRQn, 0, 0);
 100              		.loc 1 82 0
 101 0036 0022     		movs	r2, #0
 102 0038 1146     		mov	r1, r2
 103 003a 6FF00900 		mvn	r0, #9
 104 003e FFF7FEFF 		bl	HAL_NVIC_SetPriority
 105              	.LVL6:
  83:E:/VisualStudioCode/STM32F1_HAL/Src\stm32f1xx_hal_msp.c ****   /* SVCall_IRQn interrupt configuration */
  84:E:/VisualStudioCode/STM32F1_HAL/Src\stm32f1xx_hal_msp.c ****   HAL_NVIC_SetPriority(SVCall_IRQn, 0, 0);
 106              		.loc 1 84 0
 107 0042 0022     		movs	r2, #0
 108 0044 1146     		mov	r1, r2
 109 0046 6FF00400 		mvn	r0, #4
 110 004a FFF7FEFF 		bl	HAL_NVIC_SetPriority
 111              	.LVL7:
  85:E:/VisualStudioCode/STM32F1_HAL/Src\stm32f1xx_hal_msp.c ****   /* DebugMonitor_IRQn interrupt configuration */
  86:E:/VisualStudioCode/STM32F1_HAL/Src\stm32f1xx_hal_msp.c ****   HAL_NVIC_SetPriority(DebugMonitor_IRQn, 0, 0);
 112              		.loc 1 86 0
 113 004e 0022     		movs	r2, #0
 114 0050 1146     		mov	r1, r2
 115 0052 6FF00300 		mvn	r0, #3
 116 0056 FFF7FEFF 		bl	HAL_NVIC_SetPriority
 117              	.LVL8:
  87:E:/VisualStudioCode/STM32F1_HAL/Src\stm32f1xx_hal_msp.c ****   /* PendSV_IRQn interrupt configuration */
  88:E:/VisualStudioCode/STM32F1_HAL/Src\stm32f1xx_hal_msp.c ****   HAL_NVIC_SetPriority(PendSV_IRQn, 0, 0);
 118              		.loc 1 88 0
 119 005a 0022     		movs	r2, #0
 120 005c 1146     		mov	r1, r2
 121 005e 6FF00100 		mvn	r0, #1
 122 0062 FFF7FEFF 		bl	HAL_NVIC_SetPriority
 123              	.LVL9:
  89:E:/VisualStudioCode/STM32F1_HAL/Src\stm32f1xx_hal_msp.c ****   /* SysTick_IRQn interrupt configuration */
  90:E:/VisualStudioCode/STM32F1_HAL/Src\stm32f1xx_hal_msp.c ****   HAL_NVIC_SetPriority(SysTick_IRQn, 0, 0);
 124              		.loc 1 90 0
 125 0066 0022     		movs	r2, #0
 126 0068 1146     		mov	r1, r2
 127 006a 4FF0FF30 		mov	r0, #-1
 128 006e FFF7FEFF 		bl	HAL_NVIC_SetPriority
 129              	.LVL10:
 130              	.LBB3:
  91:E:/VisualStudioCode/STM32F1_HAL/Src\stm32f1xx_hal_msp.c **** 
  92:E:/VisualStudioCode/STM32F1_HAL/Src\stm32f1xx_hal_msp.c ****     /**NOJTAG: JTAG-DP Disabled and SW-DP Enabled 
  93:E:/VisualStudioCode/STM32F1_HAL/Src\stm32f1xx_hal_msp.c ****     */
  94:E:/VisualStudioCode/STM32F1_HAL/Src\stm32f1xx_hal_msp.c ****   __HAL_AFIO_REMAP_SWJ_NOJTAG();
 131              		.loc 1 94 0
 132 0072 064A     		ldr	r2, .L6+4
 133 0074 5368     		ldr	r3, [r2, #4]
 134              	.LVL11:
 135 0076 23F0E063 		bic	r3, r3, #117440512
 136              	.LVL12:
 137 007a 43F00073 		orr	r3, r3, #33554432
ARM GAS  C:\Users\ADMINI~1\AppData\Local\Temp\ccMiw49t.s 			page 5


 138              	.LVL13:
 139 007e 5360     		str	r3, [r2, #4]
 140              	.LBE3:
  95:E:/VisualStudioCode/STM32F1_HAL/Src\stm32f1xx_hal_msp.c **** 
  96:E:/VisualStudioCode/STM32F1_HAL/Src\stm32f1xx_hal_msp.c ****   /* USER CODE BEGIN MspInit 1 */
  97:E:/VisualStudioCode/STM32F1_HAL/Src\stm32f1xx_hal_msp.c **** 
  98:E:/VisualStudioCode/STM32F1_HAL/Src\stm32f1xx_hal_msp.c ****   /* USER CODE END MspInit 1 */
  99:E:/VisualStudioCode/STM32F1_HAL/Src\stm32f1xx_hal_msp.c **** }
 141              		.loc 1 99 0
 142 0080 03B0     		add	sp, sp, #12
 143              	.LCFI3:
 144              		.cfi_def_cfa_offset 4
 145              		@ sp needed
 146 0082 5DF804FB 		ldr	pc, [sp], #4
 147              	.L7:
 148 0086 00BF     		.align	2
 149              	.L6:
 150 0088 00100240 		.word	1073876992
 151 008c 00000140 		.word	1073807360
 152              		.cfi_endproc
 153              	.LFE65:
 154              		.fnend
 156              		.section	.text.SystemClock_Config,"ax",%progbits
 157              		.align	1
 158              		.global	SystemClock_Config
 159              		.syntax unified
 160              		.thumb
 161              		.thumb_func
 162              		.fpu softvfp
 164              	SystemClock_Config:
 165              		.fnstart
 166              	.LFB66:
 100:E:/VisualStudioCode/STM32F1_HAL/Src\stm32f1xx_hal_msp.c **** 
 101:E:/VisualStudioCode/STM32F1_HAL/Src\stm32f1xx_hal_msp.c **** /**
 102:E:/VisualStudioCode/STM32F1_HAL/Src\stm32f1xx_hal_msp.c ****   * @brief System Clock Configuration
 103:E:/VisualStudioCode/STM32F1_HAL/Src\stm32f1xx_hal_msp.c ****   * @retval None
 104:E:/VisualStudioCode/STM32F1_HAL/Src\stm32f1xx_hal_msp.c ****   */
 105:E:/VisualStudioCode/STM32F1_HAL/Src\stm32f1xx_hal_msp.c **** void SystemClock_Config(void)
 106:E:/VisualStudioCode/STM32F1_HAL/Src\stm32f1xx_hal_msp.c **** {
 167              		.loc 1 106 0
 168              		.cfi_startproc
 169              		@ args = 0, pretend = 0, frame = 64
 170              		@ frame_needed = 0, uses_anonymous_args = 0
 171 0000 10B5     		push	{r4, lr}
 172              		.save {r4, lr}
 173              	.LCFI4:
 174              		.cfi_def_cfa_offset 8
 175              		.cfi_offset 4, -8
 176              		.cfi_offset 14, -4
 177              		.pad #64
 178 0002 90B0     		sub	sp, sp, #64
 179              	.LCFI5:
 180              		.cfi_def_cfa_offset 72
 107:E:/VisualStudioCode/STM32F1_HAL/Src\stm32f1xx_hal_msp.c **** 
 108:E:/VisualStudioCode/STM32F1_HAL/Src\stm32f1xx_hal_msp.c ****   RCC_OscInitTypeDef RCC_OscInitStruct;
 109:E:/VisualStudioCode/STM32F1_HAL/Src\stm32f1xx_hal_msp.c ****   RCC_ClkInitTypeDef RCC_ClkInitStruct;
 110:E:/VisualStudioCode/STM32F1_HAL/Src\stm32f1xx_hal_msp.c **** 
ARM GAS  C:\Users\ADMINI~1\AppData\Local\Temp\ccMiw49t.s 			page 6


 111:E:/VisualStudioCode/STM32F1_HAL/Src\stm32f1xx_hal_msp.c ****     /**Initializes the CPU, AHB and APB busses clocks 
 112:E:/VisualStudioCode/STM32F1_HAL/Src\stm32f1xx_hal_msp.c ****     */
 113:E:/VisualStudioCode/STM32F1_HAL/Src\stm32f1xx_hal_msp.c ****   RCC_OscInitStruct.OscillatorType = RCC_OSCILLATORTYPE_HSI;
 181              		.loc 1 113 0
 182 0004 0223     		movs	r3, #2
 183 0006 0693     		str	r3, [sp, #24]
 114:E:/VisualStudioCode/STM32F1_HAL/Src\stm32f1xx_hal_msp.c ****   RCC_OscInitStruct.HSIState = RCC_HSI_ON;
 184              		.loc 1 114 0
 185 0008 0123     		movs	r3, #1
 186 000a 0A93     		str	r3, [sp, #40]
 115:E:/VisualStudioCode/STM32F1_HAL/Src\stm32f1xx_hal_msp.c ****   RCC_OscInitStruct.HSICalibrationValue = 16;
 187              		.loc 1 115 0
 188 000c 1023     		movs	r3, #16
 189 000e 0B93     		str	r3, [sp, #44]
 116:E:/VisualStudioCode/STM32F1_HAL/Src\stm32f1xx_hal_msp.c ****   RCC_OscInitStruct.PLL.PLLState = RCC_PLL_NONE;
 190              		.loc 1 116 0
 191 0010 0024     		movs	r4, #0
 192 0012 0D94     		str	r4, [sp, #52]
 117:E:/VisualStudioCode/STM32F1_HAL/Src\stm32f1xx_hal_msp.c ****   if (HAL_RCC_OscConfig(&RCC_OscInitStruct) != HAL_OK)
 193              		.loc 1 117 0
 194 0014 06A8     		add	r0, sp, #24
 195 0016 FFF7FEFF 		bl	HAL_RCC_OscConfig
 196              	.LVL14:
 118:E:/VisualStudioCode/STM32F1_HAL/Src\stm32f1xx_hal_msp.c ****   {
 119:E:/VisualStudioCode/STM32F1_HAL/Src\stm32f1xx_hal_msp.c ****     //_Error_Handler(__FILE__, __LINE__);
 120:E:/VisualStudioCode/STM32F1_HAL/Src\stm32f1xx_hal_msp.c ****   }
 121:E:/VisualStudioCode/STM32F1_HAL/Src\stm32f1xx_hal_msp.c **** 
 122:E:/VisualStudioCode/STM32F1_HAL/Src\stm32f1xx_hal_msp.c ****     /**Initializes the CPU, AHB and APB busses clocks 
 123:E:/VisualStudioCode/STM32F1_HAL/Src\stm32f1xx_hal_msp.c ****     */
 124:E:/VisualStudioCode/STM32F1_HAL/Src\stm32f1xx_hal_msp.c ****   RCC_ClkInitStruct.ClockType = RCC_CLOCKTYPE_HCLK|RCC_CLOCKTYPE_SYSCLK
 197              		.loc 1 124 0
 198 001a 0F23     		movs	r3, #15
 199 001c 0193     		str	r3, [sp, #4]
 125:E:/VisualStudioCode/STM32F1_HAL/Src\stm32f1xx_hal_msp.c ****                               |RCC_CLOCKTYPE_PCLK1|RCC_CLOCKTYPE_PCLK2;
 126:E:/VisualStudioCode/STM32F1_HAL/Src\stm32f1xx_hal_msp.c ****   RCC_ClkInitStruct.SYSCLKSource = RCC_SYSCLKSOURCE_HSI;
 200              		.loc 1 126 0
 201 001e 0294     		str	r4, [sp, #8]
 127:E:/VisualStudioCode/STM32F1_HAL/Src\stm32f1xx_hal_msp.c ****   RCC_ClkInitStruct.AHBCLKDivider = RCC_SYSCLK_DIV1;
 202              		.loc 1 127 0
 203 0020 0394     		str	r4, [sp, #12]
 128:E:/VisualStudioCode/STM32F1_HAL/Src\stm32f1xx_hal_msp.c ****   RCC_ClkInitStruct.APB1CLKDivider = RCC_HCLK_DIV1;
 204              		.loc 1 128 0
 205 0022 0494     		str	r4, [sp, #16]
 129:E:/VisualStudioCode/STM32F1_HAL/Src\stm32f1xx_hal_msp.c ****   RCC_ClkInitStruct.APB2CLKDivider = RCC_HCLK_DIV1;
 206              		.loc 1 129 0
 207 0024 0594     		str	r4, [sp, #20]
 130:E:/VisualStudioCode/STM32F1_HAL/Src\stm32f1xx_hal_msp.c **** 
 131:E:/VisualStudioCode/STM32F1_HAL/Src\stm32f1xx_hal_msp.c ****   if (HAL_RCC_ClockConfig(&RCC_ClkInitStruct, FLASH_LATENCY_0) != HAL_OK)
 208              		.loc 1 131 0
 209 0026 2146     		mov	r1, r4
 210 0028 01A8     		add	r0, sp, #4
 211 002a FFF7FEFF 		bl	HAL_RCC_ClockConfig
 212              	.LVL15:
 132:E:/VisualStudioCode/STM32F1_HAL/Src\stm32f1xx_hal_msp.c ****   {
 133:E:/VisualStudioCode/STM32F1_HAL/Src\stm32f1xx_hal_msp.c ****     //_Error_Handler(__FILE__, __LINE__);
 134:E:/VisualStudioCode/STM32F1_HAL/Src\stm32f1xx_hal_msp.c ****   }
 135:E:/VisualStudioCode/STM32F1_HAL/Src\stm32f1xx_hal_msp.c **** 
ARM GAS  C:\Users\ADMINI~1\AppData\Local\Temp\ccMiw49t.s 			page 7


 136:E:/VisualStudioCode/STM32F1_HAL/Src\stm32f1xx_hal_msp.c ****     /**Configure the Systick interrupt time 
 137:E:/VisualStudioCode/STM32F1_HAL/Src\stm32f1xx_hal_msp.c ****     */
 138:E:/VisualStudioCode/STM32F1_HAL/Src\stm32f1xx_hal_msp.c ****   HAL_SYSTICK_Config(HAL_RCC_GetHCLKFreq()/1000);
 213              		.loc 1 138 0
 214 002e FFF7FEFF 		bl	HAL_RCC_GetHCLKFreq
 215              	.LVL16:
 216 0032 084B     		ldr	r3, .L10
 217 0034 A3FB0030 		umull	r3, r0, r3, r0
 218 0038 8009     		lsrs	r0, r0, #6
 219 003a FFF7FEFF 		bl	HAL_SYSTICK_Config
 220              	.LVL17:
 139:E:/VisualStudioCode/STM32F1_HAL/Src\stm32f1xx_hal_msp.c **** 
 140:E:/VisualStudioCode/STM32F1_HAL/Src\stm32f1xx_hal_msp.c ****     /**Configure the Systick 
 141:E:/VisualStudioCode/STM32F1_HAL/Src\stm32f1xx_hal_msp.c ****     */
 142:E:/VisualStudioCode/STM32F1_HAL/Src\stm32f1xx_hal_msp.c ****   HAL_SYSTICK_CLKSourceConfig(SYSTICK_CLKSOURCE_HCLK);
 221              		.loc 1 142 0
 222 003e 0420     		movs	r0, #4
 223 0040 FFF7FEFF 		bl	HAL_SYSTICK_CLKSourceConfig
 224              	.LVL18:
 143:E:/VisualStudioCode/STM32F1_HAL/Src\stm32f1xx_hal_msp.c **** 
 144:E:/VisualStudioCode/STM32F1_HAL/Src\stm32f1xx_hal_msp.c ****   /* SysTick_IRQn interrupt configuration */
 145:E:/VisualStudioCode/STM32F1_HAL/Src\stm32f1xx_hal_msp.c ****   HAL_NVIC_SetPriority(SysTick_IRQn, 0, 0);
 225              		.loc 1 145 0
 226 0044 2246     		mov	r2, r4
 227 0046 2146     		mov	r1, r4
 228 0048 4FF0FF30 		mov	r0, #-1
 229 004c FFF7FEFF 		bl	HAL_NVIC_SetPriority
 230              	.LVL19:
 146:E:/VisualStudioCode/STM32F1_HAL/Src\stm32f1xx_hal_msp.c **** }
 231              		.loc 1 146 0
 232 0050 10B0     		add	sp, sp, #64
 233              	.LCFI6:
 234              		.cfi_def_cfa_offset 8
 235              		@ sp needed
 236 0052 10BD     		pop	{r4, pc}
 237              	.L11:
 238              		.align	2
 239              	.L10:
 240 0054 D34D6210 		.word	274877907
 241              		.cfi_endproc
 242              	.LFE66:
 243              		.fnend
 245              		.text
 246              	.Letext0:
 247              		.file 2 "E:/VisualStudioCode/STM32F1_HAL/Drivers/CMSIS/Device/ST/STM32F1xx/Include/stm32f103xb.h"
 248              		.file 3 "e:\\visualstudiocode\\gcc-arm-none-eabi\\arm-none-eabi\\include\\machine\\_default_types.
 249              		.file 4 "e:\\visualstudiocode\\gcc-arm-none-eabi\\arm-none-eabi\\include\\sys\\_stdint.h"
 250              		.file 5 "E:/VisualStudioCode/STM32F1_HAL/Drivers/CMSIS/Include/core_cm3.h"
 251              		.file 6 "E:/VisualStudioCode/STM32F1_HAL/Drivers/CMSIS/Device/ST/STM32F1xx/Include/system_stm32f1x
 252              		.file 7 "e:\\visualstudiocode\\gcc-arm-none-eabi\\arm-none-eabi\\include\\sys\\lock.h"
 253              		.file 8 "e:\\visualstudiocode\\gcc-arm-none-eabi\\arm-none-eabi\\include\\sys\\_types.h"
 254              		.file 9 "e:\\visualstudiocode\\gcc-arm-none-eabi\\lib\\gcc\\arm-none-eabi\\7.2.1\\include\\stddef.
 255              		.file 10 "e:\\visualstudiocode\\gcc-arm-none-eabi\\arm-none-eabi\\include\\sys\\reent.h"
 256              		.file 11 "E:/VisualStudioCode/STM32F1_HAL/Drivers/STM32F1xx_HAL_Driver/Inc/stm32f1xx_hal_def.h"
 257              		.file 12 "E:/VisualStudioCode/STM32F1_HAL/Drivers/STM32F1xx_HAL_Driver/Inc/stm32f1xx_hal_rcc.h"
 258              		.file 13 "E:/VisualStudioCode/STM32F1_HAL/Drivers/STM32F1xx_HAL_Driver/Inc/stm32f1xx_hal_rcc_ex.h"
 259              		.file 14 "E:/VisualStudioCode/STM32F1_HAL/Drivers/STM32F1xx_HAL_Driver/Inc/stm32f1xx_hal_cortex.h"
ARM GAS  C:\Users\ADMINI~1\AppData\Local\Temp\ccMiw49t.s 			page 8


 260              		.file 15 "E:/VisualStudioCode/STM32F1_HAL/Drivers/STM32F1xx_HAL_Driver/Inc/stm32f1xx_hal.h"
ARM GAS  C:\Users\ADMINI~1\AppData\Local\Temp\ccMiw49t.s 			page 9

