ARM GAS  C:\Users\ADMINI~1\AppData\Local\Temp\ccXng2ld.s 			page 1


   1              		.cpu cortex-m3
   2              		.eabi_attribute 20, 1
   3              		.eabi_attribute 21, 1
   4              		.eabi_attribute 23, 3
   5              		.eabi_attribute 24, 1
   6              		.eabi_attribute 25, 1
   7              		.eabi_attribute 26, 1
   8              		.eabi_attribute 30, 1
   9              		.eabi_attribute 34, 1
  10              		.eabi_attribute 18, 4
  11              		.file	"stm32f1xx_hal_gpio.c"
  12              		.text
  13              	.Ltext0:
  14              		.cfi_sections	.debug_frame
  15              		.section	.text.HAL_GPIO_Init,"ax",%progbits
  16              		.align	1
  17              		.global	HAL_GPIO_Init
  18              		.syntax unified
  19              		.thumb
  20              		.thumb_func
  21              		.fpu softvfp
  23              	HAL_GPIO_Init:
  24              		.fnstart
  25              	.LFB64:
  26              		.file 1 "E:/VisualStudioCode/STM32F1_HAL/Drivers/STM32F1xx_HAL_Driver/Src/stm32f1xx_hal_gpio.c"
   1:E:/VisualStudioCode/STM32F1_HAL/Drivers/STM32F1xx_HAL_Driver/Src\stm32f1xx_hal_gpio.c **** /**
   2:E:/VisualStudioCode/STM32F1_HAL/Drivers/STM32F1xx_HAL_Driver/Src\stm32f1xx_hal_gpio.c ****   ******************************************************************************
   3:E:/VisualStudioCode/STM32F1_HAL/Drivers/STM32F1xx_HAL_Driver/Src\stm32f1xx_hal_gpio.c ****   * @file    stm32f1xx_hal_gpio.c
   4:E:/VisualStudioCode/STM32F1_HAL/Drivers/STM32F1xx_HAL_Driver/Src\stm32f1xx_hal_gpio.c ****   * @author  MCD Application Team
   5:E:/VisualStudioCode/STM32F1_HAL/Drivers/STM32F1xx_HAL_Driver/Src\stm32f1xx_hal_gpio.c ****   * @brief   GPIO HAL module driver.
   6:E:/VisualStudioCode/STM32F1_HAL/Drivers/STM32F1xx_HAL_Driver/Src\stm32f1xx_hal_gpio.c ****   *          This file provides firmware functions to manage the following
   7:E:/VisualStudioCode/STM32F1_HAL/Drivers/STM32F1xx_HAL_Driver/Src\stm32f1xx_hal_gpio.c ****   *          functionalities of the General Purpose Input/Output (GPIO) peripheral:
   8:E:/VisualStudioCode/STM32F1_HAL/Drivers/STM32F1xx_HAL_Driver/Src\stm32f1xx_hal_gpio.c ****   *           + Initialization and de-initialization functions
   9:E:/VisualStudioCode/STM32F1_HAL/Drivers/STM32F1xx_HAL_Driver/Src\stm32f1xx_hal_gpio.c ****   *           + IO operation functions
  10:E:/VisualStudioCode/STM32F1_HAL/Drivers/STM32F1xx_HAL_Driver/Src\stm32f1xx_hal_gpio.c ****   *
  11:E:/VisualStudioCode/STM32F1_HAL/Drivers/STM32F1xx_HAL_Driver/Src\stm32f1xx_hal_gpio.c ****   @verbatim
  12:E:/VisualStudioCode/STM32F1_HAL/Drivers/STM32F1xx_HAL_Driver/Src\stm32f1xx_hal_gpio.c ****   ==============================================================================
  13:E:/VisualStudioCode/STM32F1_HAL/Drivers/STM32F1xx_HAL_Driver/Src\stm32f1xx_hal_gpio.c ****                     ##### GPIO Peripheral features #####
  14:E:/VisualStudioCode/STM32F1_HAL/Drivers/STM32F1xx_HAL_Driver/Src\stm32f1xx_hal_gpio.c ****   ==============================================================================
  15:E:/VisualStudioCode/STM32F1_HAL/Drivers/STM32F1xx_HAL_Driver/Src\stm32f1xx_hal_gpio.c ****   [..]
  16:E:/VisualStudioCode/STM32F1_HAL/Drivers/STM32F1xx_HAL_Driver/Src\stm32f1xx_hal_gpio.c ****   Subject to the specific hardware characteristics of each I/O port listed in the datasheet, each
  17:E:/VisualStudioCode/STM32F1_HAL/Drivers/STM32F1xx_HAL_Driver/Src\stm32f1xx_hal_gpio.c ****   port bit of the General Purpose IO (GPIO) Ports, can be individually configured by software
  18:E:/VisualStudioCode/STM32F1_HAL/Drivers/STM32F1xx_HAL_Driver/Src\stm32f1xx_hal_gpio.c ****   in several modes:
  19:E:/VisualStudioCode/STM32F1_HAL/Drivers/STM32F1xx_HAL_Driver/Src\stm32f1xx_hal_gpio.c ****   (+) Input mode
  20:E:/VisualStudioCode/STM32F1_HAL/Drivers/STM32F1xx_HAL_Driver/Src\stm32f1xx_hal_gpio.c ****   (+) Analog mode
  21:E:/VisualStudioCode/STM32F1_HAL/Drivers/STM32F1xx_HAL_Driver/Src\stm32f1xx_hal_gpio.c ****   (+) Output mode
  22:E:/VisualStudioCode/STM32F1_HAL/Drivers/STM32F1xx_HAL_Driver/Src\stm32f1xx_hal_gpio.c ****   (+) Alternate function mode
  23:E:/VisualStudioCode/STM32F1_HAL/Drivers/STM32F1xx_HAL_Driver/Src\stm32f1xx_hal_gpio.c ****   (+) External interrupt/event lines
  24:E:/VisualStudioCode/STM32F1_HAL/Drivers/STM32F1xx_HAL_Driver/Src\stm32f1xx_hal_gpio.c **** 
  25:E:/VisualStudioCode/STM32F1_HAL/Drivers/STM32F1xx_HAL_Driver/Src\stm32f1xx_hal_gpio.c ****   [..]
  26:E:/VisualStudioCode/STM32F1_HAL/Drivers/STM32F1xx_HAL_Driver/Src\stm32f1xx_hal_gpio.c ****   During and just after reset, the alternate functions and external interrupt
  27:E:/VisualStudioCode/STM32F1_HAL/Drivers/STM32F1xx_HAL_Driver/Src\stm32f1xx_hal_gpio.c ****   lines are not active and the I/O ports are configured in input floating mode.
  28:E:/VisualStudioCode/STM32F1_HAL/Drivers/STM32F1xx_HAL_Driver/Src\stm32f1xx_hal_gpio.c **** 
  29:E:/VisualStudioCode/STM32F1_HAL/Drivers/STM32F1xx_HAL_Driver/Src\stm32f1xx_hal_gpio.c ****   [..]
  30:E:/VisualStudioCode/STM32F1_HAL/Drivers/STM32F1xx_HAL_Driver/Src\stm32f1xx_hal_gpio.c ****   All GPIO pins have weak internal pull-up and pull-down resistors, which can be
  31:E:/VisualStudioCode/STM32F1_HAL/Drivers/STM32F1xx_HAL_Driver/Src\stm32f1xx_hal_gpio.c ****   activated or not.
  32:E:/VisualStudioCode/STM32F1_HAL/Drivers/STM32F1xx_HAL_Driver/Src\stm32f1xx_hal_gpio.c **** 
ARM GAS  C:\Users\ADMINI~1\AppData\Local\Temp\ccXng2ld.s 			page 2


  33:E:/VisualStudioCode/STM32F1_HAL/Drivers/STM32F1xx_HAL_Driver/Src\stm32f1xx_hal_gpio.c ****   [..]
  34:E:/VisualStudioCode/STM32F1_HAL/Drivers/STM32F1xx_HAL_Driver/Src\stm32f1xx_hal_gpio.c ****   In Output or Alternate mode, each IO can be configured on open-drain or push-pull
  35:E:/VisualStudioCode/STM32F1_HAL/Drivers/STM32F1xx_HAL_Driver/Src\stm32f1xx_hal_gpio.c ****   type and the IO speed can be selected depending on the VDD value.
  36:E:/VisualStudioCode/STM32F1_HAL/Drivers/STM32F1xx_HAL_Driver/Src\stm32f1xx_hal_gpio.c **** 
  37:E:/VisualStudioCode/STM32F1_HAL/Drivers/STM32F1xx_HAL_Driver/Src\stm32f1xx_hal_gpio.c ****   [..]
  38:E:/VisualStudioCode/STM32F1_HAL/Drivers/STM32F1xx_HAL_Driver/Src\stm32f1xx_hal_gpio.c ****   All ports have external interrupt/event capability. To use external interrupt
  39:E:/VisualStudioCode/STM32F1_HAL/Drivers/STM32F1xx_HAL_Driver/Src\stm32f1xx_hal_gpio.c ****   lines, the port must be configured in input mode. All available GPIO pins are
  40:E:/VisualStudioCode/STM32F1_HAL/Drivers/STM32F1xx_HAL_Driver/Src\stm32f1xx_hal_gpio.c ****   connected to the 16 external interrupt/event lines from EXTI0 to EXTI15.
  41:E:/VisualStudioCode/STM32F1_HAL/Drivers/STM32F1xx_HAL_Driver/Src\stm32f1xx_hal_gpio.c **** 
  42:E:/VisualStudioCode/STM32F1_HAL/Drivers/STM32F1xx_HAL_Driver/Src\stm32f1xx_hal_gpio.c ****   [..]
  43:E:/VisualStudioCode/STM32F1_HAL/Drivers/STM32F1xx_HAL_Driver/Src\stm32f1xx_hal_gpio.c ****   The external interrupt/event controller consists of up to 20 edge detectors in connectivity
  44:E:/VisualStudioCode/STM32F1_HAL/Drivers/STM32F1xx_HAL_Driver/Src\stm32f1xx_hal_gpio.c ****   line devices, or 19 edge detectors in other devices for generating event/interrupt requests.
  45:E:/VisualStudioCode/STM32F1_HAL/Drivers/STM32F1xx_HAL_Driver/Src\stm32f1xx_hal_gpio.c ****   Each input line can be independently configured to select the type (event or interrupt) and
  46:E:/VisualStudioCode/STM32F1_HAL/Drivers/STM32F1xx_HAL_Driver/Src\stm32f1xx_hal_gpio.c ****   the corresponding trigger event (rising or falling or both). Each line can also masked
  47:E:/VisualStudioCode/STM32F1_HAL/Drivers/STM32F1xx_HAL_Driver/Src\stm32f1xx_hal_gpio.c ****   independently. A pending register maintains the status line of the interrupt requests
  48:E:/VisualStudioCode/STM32F1_HAL/Drivers/STM32F1xx_HAL_Driver/Src\stm32f1xx_hal_gpio.c **** 
  49:E:/VisualStudioCode/STM32F1_HAL/Drivers/STM32F1xx_HAL_Driver/Src\stm32f1xx_hal_gpio.c ****                      ##### How to use this driver #####
  50:E:/VisualStudioCode/STM32F1_HAL/Drivers/STM32F1xx_HAL_Driver/Src\stm32f1xx_hal_gpio.c ****   ==============================================================================
  51:E:/VisualStudioCode/STM32F1_HAL/Drivers/STM32F1xx_HAL_Driver/Src\stm32f1xx_hal_gpio.c ****  [..]
  52:E:/VisualStudioCode/STM32F1_HAL/Drivers/STM32F1xx_HAL_Driver/Src\stm32f1xx_hal_gpio.c ****    (#) Enable the GPIO APB2 clock using the following function : __HAL_RCC_GPIOx_CLK_ENABLE().
  53:E:/VisualStudioCode/STM32F1_HAL/Drivers/STM32F1xx_HAL_Driver/Src\stm32f1xx_hal_gpio.c **** 
  54:E:/VisualStudioCode/STM32F1_HAL/Drivers/STM32F1xx_HAL_Driver/Src\stm32f1xx_hal_gpio.c ****    (#) Configure the GPIO pin(s) using HAL_GPIO_Init().
  55:E:/VisualStudioCode/STM32F1_HAL/Drivers/STM32F1xx_HAL_Driver/Src\stm32f1xx_hal_gpio.c ****        (++) Configure the IO mode using "Mode" member from GPIO_InitTypeDef structure
  56:E:/VisualStudioCode/STM32F1_HAL/Drivers/STM32F1xx_HAL_Driver/Src\stm32f1xx_hal_gpio.c ****        (++) Activate Pull-up, Pull-down resistor using "Pull" member from GPIO_InitTypeDef
  57:E:/VisualStudioCode/STM32F1_HAL/Drivers/STM32F1xx_HAL_Driver/Src\stm32f1xx_hal_gpio.c ****             structure.
  58:E:/VisualStudioCode/STM32F1_HAL/Drivers/STM32F1xx_HAL_Driver/Src\stm32f1xx_hal_gpio.c ****        (++) In case of Output or alternate function mode selection: the speed is
  59:E:/VisualStudioCode/STM32F1_HAL/Drivers/STM32F1xx_HAL_Driver/Src\stm32f1xx_hal_gpio.c ****             configured through "Speed" member from GPIO_InitTypeDef structure
  60:E:/VisualStudioCode/STM32F1_HAL/Drivers/STM32F1xx_HAL_Driver/Src\stm32f1xx_hal_gpio.c ****        (++) Analog mode is required when a pin is to be used as ADC channel
  61:E:/VisualStudioCode/STM32F1_HAL/Drivers/STM32F1xx_HAL_Driver/Src\stm32f1xx_hal_gpio.c ****             or DAC output.
  62:E:/VisualStudioCode/STM32F1_HAL/Drivers/STM32F1xx_HAL_Driver/Src\stm32f1xx_hal_gpio.c ****        (++) In case of external interrupt/event selection the "Mode" member from
  63:E:/VisualStudioCode/STM32F1_HAL/Drivers/STM32F1xx_HAL_Driver/Src\stm32f1xx_hal_gpio.c ****             GPIO_InitTypeDef structure select the type (interrupt or event) and
  64:E:/VisualStudioCode/STM32F1_HAL/Drivers/STM32F1xx_HAL_Driver/Src\stm32f1xx_hal_gpio.c ****             the corresponding trigger event (rising or falling or both).
  65:E:/VisualStudioCode/STM32F1_HAL/Drivers/STM32F1xx_HAL_Driver/Src\stm32f1xx_hal_gpio.c **** 
  66:E:/VisualStudioCode/STM32F1_HAL/Drivers/STM32F1xx_HAL_Driver/Src\stm32f1xx_hal_gpio.c ****    (#) In case of external interrupt/event mode selection, configure NVIC IRQ priority
  67:E:/VisualStudioCode/STM32F1_HAL/Drivers/STM32F1xx_HAL_Driver/Src\stm32f1xx_hal_gpio.c ****        mapped to the EXTI line using HAL_NVIC_SetPriority() and enable it using
  68:E:/VisualStudioCode/STM32F1_HAL/Drivers/STM32F1xx_HAL_Driver/Src\stm32f1xx_hal_gpio.c ****        HAL_NVIC_EnableIRQ().
  69:E:/VisualStudioCode/STM32F1_HAL/Drivers/STM32F1xx_HAL_Driver/Src\stm32f1xx_hal_gpio.c **** 
  70:E:/VisualStudioCode/STM32F1_HAL/Drivers/STM32F1xx_HAL_Driver/Src\stm32f1xx_hal_gpio.c ****    (#) To get the level of a pin configured in input mode use HAL_GPIO_ReadPin().
  71:E:/VisualStudioCode/STM32F1_HAL/Drivers/STM32F1xx_HAL_Driver/Src\stm32f1xx_hal_gpio.c **** 
  72:E:/VisualStudioCode/STM32F1_HAL/Drivers/STM32F1xx_HAL_Driver/Src\stm32f1xx_hal_gpio.c ****    (#) To set/reset the level of a pin configured in output mode use
  73:E:/VisualStudioCode/STM32F1_HAL/Drivers/STM32F1xx_HAL_Driver/Src\stm32f1xx_hal_gpio.c ****        HAL_GPIO_WritePin()/HAL_GPIO_TogglePin().
  74:E:/VisualStudioCode/STM32F1_HAL/Drivers/STM32F1xx_HAL_Driver/Src\stm32f1xx_hal_gpio.c **** 
  75:E:/VisualStudioCode/STM32F1_HAL/Drivers/STM32F1xx_HAL_Driver/Src\stm32f1xx_hal_gpio.c ****    (#) To lock pin configuration until next reset use HAL_GPIO_LockPin().
  76:E:/VisualStudioCode/STM32F1_HAL/Drivers/STM32F1xx_HAL_Driver/Src\stm32f1xx_hal_gpio.c **** 
  77:E:/VisualStudioCode/STM32F1_HAL/Drivers/STM32F1xx_HAL_Driver/Src\stm32f1xx_hal_gpio.c ****    (#) During and just after reset, the alternate functions are not
  78:E:/VisualStudioCode/STM32F1_HAL/Drivers/STM32F1xx_HAL_Driver/Src\stm32f1xx_hal_gpio.c ****        active and the GPIO pins are configured in input floating mode (except JTAG
  79:E:/VisualStudioCode/STM32F1_HAL/Drivers/STM32F1xx_HAL_Driver/Src\stm32f1xx_hal_gpio.c ****        pins).
  80:E:/VisualStudioCode/STM32F1_HAL/Drivers/STM32F1xx_HAL_Driver/Src\stm32f1xx_hal_gpio.c **** 
  81:E:/VisualStudioCode/STM32F1_HAL/Drivers/STM32F1xx_HAL_Driver/Src\stm32f1xx_hal_gpio.c ****    (#) The LSE oscillator pins OSC32_IN and OSC32_OUT can be used as general purpose
  82:E:/VisualStudioCode/STM32F1_HAL/Drivers/STM32F1xx_HAL_Driver/Src\stm32f1xx_hal_gpio.c ****        (PC14 and PC15, respectively) when the LSE oscillator is off. The LSE has
  83:E:/VisualStudioCode/STM32F1_HAL/Drivers/STM32F1xx_HAL_Driver/Src\stm32f1xx_hal_gpio.c ****        priority over the GPIO function.
  84:E:/VisualStudioCode/STM32F1_HAL/Drivers/STM32F1xx_HAL_Driver/Src\stm32f1xx_hal_gpio.c **** 
  85:E:/VisualStudioCode/STM32F1_HAL/Drivers/STM32F1xx_HAL_Driver/Src\stm32f1xx_hal_gpio.c ****    (#) The HSE oscillator pins OSC_IN/OSC_OUT can be used as
  86:E:/VisualStudioCode/STM32F1_HAL/Drivers/STM32F1xx_HAL_Driver/Src\stm32f1xx_hal_gpio.c ****        general purpose PD0 and PD1, respectively, when the HSE oscillator is off.
  87:E:/VisualStudioCode/STM32F1_HAL/Drivers/STM32F1xx_HAL_Driver/Src\stm32f1xx_hal_gpio.c ****        The HSE has priority over the GPIO function.
  88:E:/VisualStudioCode/STM32F1_HAL/Drivers/STM32F1xx_HAL_Driver/Src\stm32f1xx_hal_gpio.c **** 
  89:E:/VisualStudioCode/STM32F1_HAL/Drivers/STM32F1xx_HAL_Driver/Src\stm32f1xx_hal_gpio.c ****   @endverbatim
ARM GAS  C:\Users\ADMINI~1\AppData\Local\Temp\ccXng2ld.s 			page 3


  90:E:/VisualStudioCode/STM32F1_HAL/Drivers/STM32F1xx_HAL_Driver/Src\stm32f1xx_hal_gpio.c ****   ******************************************************************************
  91:E:/VisualStudioCode/STM32F1_HAL/Drivers/STM32F1xx_HAL_Driver/Src\stm32f1xx_hal_gpio.c ****   * @attention
  92:E:/VisualStudioCode/STM32F1_HAL/Drivers/STM32F1xx_HAL_Driver/Src\stm32f1xx_hal_gpio.c ****   *
  93:E:/VisualStudioCode/STM32F1_HAL/Drivers/STM32F1xx_HAL_Driver/Src\stm32f1xx_hal_gpio.c ****   * <h2><center>&copy; COPYRIGHT(c) 2016 STMicroelectronics</center></h2>
  94:E:/VisualStudioCode/STM32F1_HAL/Drivers/STM32F1xx_HAL_Driver/Src\stm32f1xx_hal_gpio.c ****   *
  95:E:/VisualStudioCode/STM32F1_HAL/Drivers/STM32F1xx_HAL_Driver/Src\stm32f1xx_hal_gpio.c ****   * Redistribution and use in source and binary forms, with or without modification,
  96:E:/VisualStudioCode/STM32F1_HAL/Drivers/STM32F1xx_HAL_Driver/Src\stm32f1xx_hal_gpio.c ****   * are permitted provided that the following conditions are met:
  97:E:/VisualStudioCode/STM32F1_HAL/Drivers/STM32F1xx_HAL_Driver/Src\stm32f1xx_hal_gpio.c ****   *   1. Redistributions of source code must retain the above copyright notice,
  98:E:/VisualStudioCode/STM32F1_HAL/Drivers/STM32F1xx_HAL_Driver/Src\stm32f1xx_hal_gpio.c ****   *      this list of conditions and the following disclaimer.
  99:E:/VisualStudioCode/STM32F1_HAL/Drivers/STM32F1xx_HAL_Driver/Src\stm32f1xx_hal_gpio.c ****   *   2. Redistributions in binary form must reproduce the above copyright notice,
 100:E:/VisualStudioCode/STM32F1_HAL/Drivers/STM32F1xx_HAL_Driver/Src\stm32f1xx_hal_gpio.c ****   *      this list of conditions and the following disclaimer in the documentation
 101:E:/VisualStudioCode/STM32F1_HAL/Drivers/STM32F1xx_HAL_Driver/Src\stm32f1xx_hal_gpio.c ****   *      and/or other materials provided with the distribution.
 102:E:/VisualStudioCode/STM32F1_HAL/Drivers/STM32F1xx_HAL_Driver/Src\stm32f1xx_hal_gpio.c ****   *   3. Neither the name of STMicroelectronics nor the names of its contributors
 103:E:/VisualStudioCode/STM32F1_HAL/Drivers/STM32F1xx_HAL_Driver/Src\stm32f1xx_hal_gpio.c ****   *      may be used to endorse or promote products derived from this software
 104:E:/VisualStudioCode/STM32F1_HAL/Drivers/STM32F1xx_HAL_Driver/Src\stm32f1xx_hal_gpio.c ****   *      without specific prior written permission.
 105:E:/VisualStudioCode/STM32F1_HAL/Drivers/STM32F1xx_HAL_Driver/Src\stm32f1xx_hal_gpio.c ****   *
 106:E:/VisualStudioCode/STM32F1_HAL/Drivers/STM32F1xx_HAL_Driver/Src\stm32f1xx_hal_gpio.c ****   * THIS SOFTWARE IS PROVIDED BY THE COPYRIGHT HOLDERS AND CONTRIBUTORS "AS IS"
 107:E:/VisualStudioCode/STM32F1_HAL/Drivers/STM32F1xx_HAL_Driver/Src\stm32f1xx_hal_gpio.c ****   * AND ANY EXPRESS OR IMPLIED WARRANTIES, INCLUDING, BUT NOT LIMITED TO, THE
 108:E:/VisualStudioCode/STM32F1_HAL/Drivers/STM32F1xx_HAL_Driver/Src\stm32f1xx_hal_gpio.c ****   * IMPLIED WARRANTIES OF MERCHANTABILITY AND FITNESS FOR A PARTICULAR PURPOSE ARE
 109:E:/VisualStudioCode/STM32F1_HAL/Drivers/STM32F1xx_HAL_Driver/Src\stm32f1xx_hal_gpio.c ****   * DISCLAIMED. IN NO EVENT SHALL THE COPYRIGHT HOLDER OR CONTRIBUTORS BE LIABLE
 110:E:/VisualStudioCode/STM32F1_HAL/Drivers/STM32F1xx_HAL_Driver/Src\stm32f1xx_hal_gpio.c ****   * FOR ANY DIRECT, INDIRECT, INCIDENTAL, SPECIAL, EXEMPLARY, OR CONSEQUENTIAL
 111:E:/VisualStudioCode/STM32F1_HAL/Drivers/STM32F1xx_HAL_Driver/Src\stm32f1xx_hal_gpio.c ****   * DAMAGES (INCLUDING, BUT NOT LIMITED TO, PROCUREMENT OF SUBSTITUTE GOODS OR
 112:E:/VisualStudioCode/STM32F1_HAL/Drivers/STM32F1xx_HAL_Driver/Src\stm32f1xx_hal_gpio.c ****   * SERVICES; LOSS OF USE, DATA, OR PROFITS; OR BUSINESS INTERRUPTION) HOWEVER
 113:E:/VisualStudioCode/STM32F1_HAL/Drivers/STM32F1xx_HAL_Driver/Src\stm32f1xx_hal_gpio.c ****   * CAUSED AND ON ANY THEORY OF LIABILITY, WHETHER IN CONTRACT, STRICT LIABILITY,
 114:E:/VisualStudioCode/STM32F1_HAL/Drivers/STM32F1xx_HAL_Driver/Src\stm32f1xx_hal_gpio.c ****   * OR TORT (INCLUDING NEGLIGENCE OR OTHERWISE) ARISING IN ANY WAY OUT OF THE USE
 115:E:/VisualStudioCode/STM32F1_HAL/Drivers/STM32F1xx_HAL_Driver/Src\stm32f1xx_hal_gpio.c ****   * OF THIS SOFTWARE, EVEN IF ADVISED OF THE POSSIBILITY OF SUCH DAMAGE.
 116:E:/VisualStudioCode/STM32F1_HAL/Drivers/STM32F1xx_HAL_Driver/Src\stm32f1xx_hal_gpio.c ****   *
 117:E:/VisualStudioCode/STM32F1_HAL/Drivers/STM32F1xx_HAL_Driver/Src\stm32f1xx_hal_gpio.c ****   ******************************************************************************
 118:E:/VisualStudioCode/STM32F1_HAL/Drivers/STM32F1xx_HAL_Driver/Src\stm32f1xx_hal_gpio.c ****   */
 119:E:/VisualStudioCode/STM32F1_HAL/Drivers/STM32F1xx_HAL_Driver/Src\stm32f1xx_hal_gpio.c **** 
 120:E:/VisualStudioCode/STM32F1_HAL/Drivers/STM32F1xx_HAL_Driver/Src\stm32f1xx_hal_gpio.c **** /* Includes ------------------------------------------------------------------*/
 121:E:/VisualStudioCode/STM32F1_HAL/Drivers/STM32F1xx_HAL_Driver/Src\stm32f1xx_hal_gpio.c **** #include "stm32f1xx_hal.h"
 122:E:/VisualStudioCode/STM32F1_HAL/Drivers/STM32F1xx_HAL_Driver/Src\stm32f1xx_hal_gpio.c **** 
 123:E:/VisualStudioCode/STM32F1_HAL/Drivers/STM32F1xx_HAL_Driver/Src\stm32f1xx_hal_gpio.c **** /** @addtogroup STM32F1xx_HAL_Driver
 124:E:/VisualStudioCode/STM32F1_HAL/Drivers/STM32F1xx_HAL_Driver/Src\stm32f1xx_hal_gpio.c ****   * @{
 125:E:/VisualStudioCode/STM32F1_HAL/Drivers/STM32F1xx_HAL_Driver/Src\stm32f1xx_hal_gpio.c ****   */
 126:E:/VisualStudioCode/STM32F1_HAL/Drivers/STM32F1xx_HAL_Driver/Src\stm32f1xx_hal_gpio.c **** 
 127:E:/VisualStudioCode/STM32F1_HAL/Drivers/STM32F1xx_HAL_Driver/Src\stm32f1xx_hal_gpio.c **** /** @defgroup GPIO GPIO
 128:E:/VisualStudioCode/STM32F1_HAL/Drivers/STM32F1xx_HAL_Driver/Src\stm32f1xx_hal_gpio.c ****   * @brief GPIO HAL module driver
 129:E:/VisualStudioCode/STM32F1_HAL/Drivers/STM32F1xx_HAL_Driver/Src\stm32f1xx_hal_gpio.c ****   * @{
 130:E:/VisualStudioCode/STM32F1_HAL/Drivers/STM32F1xx_HAL_Driver/Src\stm32f1xx_hal_gpio.c ****   */
 131:E:/VisualStudioCode/STM32F1_HAL/Drivers/STM32F1xx_HAL_Driver/Src\stm32f1xx_hal_gpio.c **** 
 132:E:/VisualStudioCode/STM32F1_HAL/Drivers/STM32F1xx_HAL_Driver/Src\stm32f1xx_hal_gpio.c **** #ifdef HAL_GPIO_MODULE_ENABLED
 133:E:/VisualStudioCode/STM32F1_HAL/Drivers/STM32F1xx_HAL_Driver/Src\stm32f1xx_hal_gpio.c **** 
 134:E:/VisualStudioCode/STM32F1_HAL/Drivers/STM32F1xx_HAL_Driver/Src\stm32f1xx_hal_gpio.c **** /* Private typedef -----------------------------------------------------------*/
 135:E:/VisualStudioCode/STM32F1_HAL/Drivers/STM32F1xx_HAL_Driver/Src\stm32f1xx_hal_gpio.c **** /* Private define ------------------------------------------------------------*/
 136:E:/VisualStudioCode/STM32F1_HAL/Drivers/STM32F1xx_HAL_Driver/Src\stm32f1xx_hal_gpio.c **** /** @addtogroup GPIO_Private_Constants GPIO Private Constants
 137:E:/VisualStudioCode/STM32F1_HAL/Drivers/STM32F1xx_HAL_Driver/Src\stm32f1xx_hal_gpio.c ****   * @{
 138:E:/VisualStudioCode/STM32F1_HAL/Drivers/STM32F1xx_HAL_Driver/Src\stm32f1xx_hal_gpio.c ****   */
 139:E:/VisualStudioCode/STM32F1_HAL/Drivers/STM32F1xx_HAL_Driver/Src\stm32f1xx_hal_gpio.c **** #define GPIO_MODE             0x00000003U
 140:E:/VisualStudioCode/STM32F1_HAL/Drivers/STM32F1xx_HAL_Driver/Src\stm32f1xx_hal_gpio.c **** #define EXTI_MODE             0x10000000U
 141:E:/VisualStudioCode/STM32F1_HAL/Drivers/STM32F1xx_HAL_Driver/Src\stm32f1xx_hal_gpio.c **** #define GPIO_MODE_IT          0x00010000U
 142:E:/VisualStudioCode/STM32F1_HAL/Drivers/STM32F1xx_HAL_Driver/Src\stm32f1xx_hal_gpio.c **** #define GPIO_MODE_EVT         0x00020000U
 143:E:/VisualStudioCode/STM32F1_HAL/Drivers/STM32F1xx_HAL_Driver/Src\stm32f1xx_hal_gpio.c **** #define RISING_EDGE           0x00100000U
 144:E:/VisualStudioCode/STM32F1_HAL/Drivers/STM32F1xx_HAL_Driver/Src\stm32f1xx_hal_gpio.c **** #define FALLING_EDGE          0x00200000U
 145:E:/VisualStudioCode/STM32F1_HAL/Drivers/STM32F1xx_HAL_Driver/Src\stm32f1xx_hal_gpio.c **** #define GPIO_OUTPUT_TYPE      0x00000010U
 146:E:/VisualStudioCode/STM32F1_HAL/Drivers/STM32F1xx_HAL_Driver/Src\stm32f1xx_hal_gpio.c **** 
ARM GAS  C:\Users\ADMINI~1\AppData\Local\Temp\ccXng2ld.s 			page 4


 147:E:/VisualStudioCode/STM32F1_HAL/Drivers/STM32F1xx_HAL_Driver/Src\stm32f1xx_hal_gpio.c **** #define GPIO_NUMBER           16U
 148:E:/VisualStudioCode/STM32F1_HAL/Drivers/STM32F1xx_HAL_Driver/Src\stm32f1xx_hal_gpio.c **** 
 149:E:/VisualStudioCode/STM32F1_HAL/Drivers/STM32F1xx_HAL_Driver/Src\stm32f1xx_hal_gpio.c **** /* Definitions for bit manipulation of CRL and CRH register */
 150:E:/VisualStudioCode/STM32F1_HAL/Drivers/STM32F1xx_HAL_Driver/Src\stm32f1xx_hal_gpio.c **** #define  GPIO_CR_MODE_INPUT         0x00000000U /*!< 00: Input mode (reset state)  */
 151:E:/VisualStudioCode/STM32F1_HAL/Drivers/STM32F1xx_HAL_Driver/Src\stm32f1xx_hal_gpio.c **** #define  GPIO_CR_CNF_ANALOG         0x00000000U /*!< 00: Analog mode  */
 152:E:/VisualStudioCode/STM32F1_HAL/Drivers/STM32F1xx_HAL_Driver/Src\stm32f1xx_hal_gpio.c **** #define  GPIO_CR_CNF_INPUT_FLOATING 0x00000004U /*!< 01: Floating input (reset state)  */
 153:E:/VisualStudioCode/STM32F1_HAL/Drivers/STM32F1xx_HAL_Driver/Src\stm32f1xx_hal_gpio.c **** #define  GPIO_CR_CNF_INPUT_PU_PD    0x00000008U /*!< 10: Input with pull-up / pull-down  */
 154:E:/VisualStudioCode/STM32F1_HAL/Drivers/STM32F1xx_HAL_Driver/Src\stm32f1xx_hal_gpio.c **** #define  GPIO_CR_CNF_GP_OUTPUT_PP   0x00000000U /*!< 00: General purpose output push-pull  */
 155:E:/VisualStudioCode/STM32F1_HAL/Drivers/STM32F1xx_HAL_Driver/Src\stm32f1xx_hal_gpio.c **** #define  GPIO_CR_CNF_GP_OUTPUT_OD   0x00000004U /*!< 01: General purpose output Open-drain  */
 156:E:/VisualStudioCode/STM32F1_HAL/Drivers/STM32F1xx_HAL_Driver/Src\stm32f1xx_hal_gpio.c **** #define  GPIO_CR_CNF_AF_OUTPUT_PP   0x00000008U /*!< 10: Alternate function output Push-pull  */
 157:E:/VisualStudioCode/STM32F1_HAL/Drivers/STM32F1xx_HAL_Driver/Src\stm32f1xx_hal_gpio.c **** #define  GPIO_CR_CNF_AF_OUTPUT_OD   0x0000000CU /*!< 11: Alternate function output Open-drain  */
 158:E:/VisualStudioCode/STM32F1_HAL/Drivers/STM32F1xx_HAL_Driver/Src\stm32f1xx_hal_gpio.c **** 
 159:E:/VisualStudioCode/STM32F1_HAL/Drivers/STM32F1xx_HAL_Driver/Src\stm32f1xx_hal_gpio.c **** /**
 160:E:/VisualStudioCode/STM32F1_HAL/Drivers/STM32F1xx_HAL_Driver/Src\stm32f1xx_hal_gpio.c ****   * @}
 161:E:/VisualStudioCode/STM32F1_HAL/Drivers/STM32F1xx_HAL_Driver/Src\stm32f1xx_hal_gpio.c ****   */
 162:E:/VisualStudioCode/STM32F1_HAL/Drivers/STM32F1xx_HAL_Driver/Src\stm32f1xx_hal_gpio.c **** /* Private macro -------------------------------------------------------------*/
 163:E:/VisualStudioCode/STM32F1_HAL/Drivers/STM32F1xx_HAL_Driver/Src\stm32f1xx_hal_gpio.c **** /* Private variables ---------------------------------------------------------*/
 164:E:/VisualStudioCode/STM32F1_HAL/Drivers/STM32F1xx_HAL_Driver/Src\stm32f1xx_hal_gpio.c **** /* Private function prototypes -----------------------------------------------*/
 165:E:/VisualStudioCode/STM32F1_HAL/Drivers/STM32F1xx_HAL_Driver/Src\stm32f1xx_hal_gpio.c **** /* Private functions ---------------------------------------------------------*/
 166:E:/VisualStudioCode/STM32F1_HAL/Drivers/STM32F1xx_HAL_Driver/Src\stm32f1xx_hal_gpio.c **** /* Exported functions --------------------------------------------------------*/
 167:E:/VisualStudioCode/STM32F1_HAL/Drivers/STM32F1xx_HAL_Driver/Src\stm32f1xx_hal_gpio.c **** /** @defgroup GPIO_Exported_Functions GPIO Exported Functions
 168:E:/VisualStudioCode/STM32F1_HAL/Drivers/STM32F1xx_HAL_Driver/Src\stm32f1xx_hal_gpio.c ****   * @{
 169:E:/VisualStudioCode/STM32F1_HAL/Drivers/STM32F1xx_HAL_Driver/Src\stm32f1xx_hal_gpio.c ****   */
 170:E:/VisualStudioCode/STM32F1_HAL/Drivers/STM32F1xx_HAL_Driver/Src\stm32f1xx_hal_gpio.c **** 
 171:E:/VisualStudioCode/STM32F1_HAL/Drivers/STM32F1xx_HAL_Driver/Src\stm32f1xx_hal_gpio.c **** /** @defgroup GPIO_Exported_Functions_Group1 Initialization and de-initialization functions
 172:E:/VisualStudioCode/STM32F1_HAL/Drivers/STM32F1xx_HAL_Driver/Src\stm32f1xx_hal_gpio.c ****  *  @brief    Initialization and Configuration functions
 173:E:/VisualStudioCode/STM32F1_HAL/Drivers/STM32F1xx_HAL_Driver/Src\stm32f1xx_hal_gpio.c ****  *
 174:E:/VisualStudioCode/STM32F1_HAL/Drivers/STM32F1xx_HAL_Driver/Src\stm32f1xx_hal_gpio.c **** @verbatim
 175:E:/VisualStudioCode/STM32F1_HAL/Drivers/STM32F1xx_HAL_Driver/Src\stm32f1xx_hal_gpio.c ****  ===============================================================================
 176:E:/VisualStudioCode/STM32F1_HAL/Drivers/STM32F1xx_HAL_Driver/Src\stm32f1xx_hal_gpio.c ****               ##### Initialization and de-initialization functions #####
 177:E:/VisualStudioCode/STM32F1_HAL/Drivers/STM32F1xx_HAL_Driver/Src\stm32f1xx_hal_gpio.c ****  ===============================================================================
 178:E:/VisualStudioCode/STM32F1_HAL/Drivers/STM32F1xx_HAL_Driver/Src\stm32f1xx_hal_gpio.c ****   [..]
 179:E:/VisualStudioCode/STM32F1_HAL/Drivers/STM32F1xx_HAL_Driver/Src\stm32f1xx_hal_gpio.c ****     This section provides functions allowing to initialize and de-initialize the GPIOs
 180:E:/VisualStudioCode/STM32F1_HAL/Drivers/STM32F1xx_HAL_Driver/Src\stm32f1xx_hal_gpio.c ****     to be ready for use.
 181:E:/VisualStudioCode/STM32F1_HAL/Drivers/STM32F1xx_HAL_Driver/Src\stm32f1xx_hal_gpio.c **** 
 182:E:/VisualStudioCode/STM32F1_HAL/Drivers/STM32F1xx_HAL_Driver/Src\stm32f1xx_hal_gpio.c **** @endverbatim
 183:E:/VisualStudioCode/STM32F1_HAL/Drivers/STM32F1xx_HAL_Driver/Src\stm32f1xx_hal_gpio.c ****   * @{
 184:E:/VisualStudioCode/STM32F1_HAL/Drivers/STM32F1xx_HAL_Driver/Src\stm32f1xx_hal_gpio.c ****   */
 185:E:/VisualStudioCode/STM32F1_HAL/Drivers/STM32F1xx_HAL_Driver/Src\stm32f1xx_hal_gpio.c **** 
 186:E:/VisualStudioCode/STM32F1_HAL/Drivers/STM32F1xx_HAL_Driver/Src\stm32f1xx_hal_gpio.c **** 
 187:E:/VisualStudioCode/STM32F1_HAL/Drivers/STM32F1xx_HAL_Driver/Src\stm32f1xx_hal_gpio.c **** /**
 188:E:/VisualStudioCode/STM32F1_HAL/Drivers/STM32F1xx_HAL_Driver/Src\stm32f1xx_hal_gpio.c ****   * @brief  Initializes the GPIOx peripheral according to the specified parameters in the GPIO_Init
 189:E:/VisualStudioCode/STM32F1_HAL/Drivers/STM32F1xx_HAL_Driver/Src\stm32f1xx_hal_gpio.c ****   * @param  GPIOx: where x can be (A..G depending on device used) to select the GPIO peripheral
 190:E:/VisualStudioCode/STM32F1_HAL/Drivers/STM32F1xx_HAL_Driver/Src\stm32f1xx_hal_gpio.c ****   * @param  GPIO_Init: pointer to a GPIO_InitTypeDef structure that contains
 191:E:/VisualStudioCode/STM32F1_HAL/Drivers/STM32F1xx_HAL_Driver/Src\stm32f1xx_hal_gpio.c ****   *         the configuration information for the specified GPIO peripheral.
 192:E:/VisualStudioCode/STM32F1_HAL/Drivers/STM32F1xx_HAL_Driver/Src\stm32f1xx_hal_gpio.c ****   * @retval None
 193:E:/VisualStudioCode/STM32F1_HAL/Drivers/STM32F1xx_HAL_Driver/Src\stm32f1xx_hal_gpio.c ****   */
 194:E:/VisualStudioCode/STM32F1_HAL/Drivers/STM32F1xx_HAL_Driver/Src\stm32f1xx_hal_gpio.c **** void HAL_GPIO_Init(GPIO_TypeDef  *GPIOx, GPIO_InitTypeDef *GPIO_Init)
 195:E:/VisualStudioCode/STM32F1_HAL/Drivers/STM32F1xx_HAL_Driver/Src\stm32f1xx_hal_gpio.c **** {
  27              		.loc 1 195 0
  28              		.cfi_startproc
  29              		@ args = 0, pretend = 0, frame = 8
  30              		@ frame_needed = 0, uses_anonymous_args = 0
  31              		@ link register save eliminated.
  32              	.LVL0:
  33 0000 F0B4     		push	{r4, r5, r6, r7}
  34              	.LCFI0:
ARM GAS  C:\Users\ADMINI~1\AppData\Local\Temp\ccXng2ld.s 			page 5


  35              		.cfi_def_cfa_offset 16
  36              		.cfi_offset 4, -16
  37              		.cfi_offset 5, -12
  38              		.cfi_offset 6, -8
  39              		.cfi_offset 7, -4
  40 0002 82B0     		sub	sp, sp, #8
  41              	.LCFI1:
  42              		.cfi_def_cfa_offset 24
  43              	.LVL1:
 196:E:/VisualStudioCode/STM32F1_HAL/Drivers/STM32F1xx_HAL_Driver/Src\stm32f1xx_hal_gpio.c ****   uint32_t position;
 197:E:/VisualStudioCode/STM32F1_HAL/Drivers/STM32F1xx_HAL_Driver/Src\stm32f1xx_hal_gpio.c ****   uint32_t ioposition = 0x00U;
 198:E:/VisualStudioCode/STM32F1_HAL/Drivers/STM32F1xx_HAL_Driver/Src\stm32f1xx_hal_gpio.c ****   uint32_t iocurrent = 0x00U;
 199:E:/VisualStudioCode/STM32F1_HAL/Drivers/STM32F1xx_HAL_Driver/Src\stm32f1xx_hal_gpio.c ****   uint32_t temp = 0x00U;
 200:E:/VisualStudioCode/STM32F1_HAL/Drivers/STM32F1xx_HAL_Driver/Src\stm32f1xx_hal_gpio.c ****   uint32_t config = 0x00U;
  44              		.loc 1 200 0
  45 0004 0026     		movs	r6, #0
  46              	.LBB2:
 201:E:/VisualStudioCode/STM32F1_HAL/Drivers/STM32F1xx_HAL_Driver/Src\stm32f1xx_hal_gpio.c ****   __IO uint32_t *configregister; /* Store the address of CRL or CRH register based on pin number */
 202:E:/VisualStudioCode/STM32F1_HAL/Drivers/STM32F1xx_HAL_Driver/Src\stm32f1xx_hal_gpio.c ****   uint32_t registeroffset = 0U; /* offset used during computation of CNF and MODE bits placement in
 203:E:/VisualStudioCode/STM32F1_HAL/Drivers/STM32F1xx_HAL_Driver/Src\stm32f1xx_hal_gpio.c **** 
 204:E:/VisualStudioCode/STM32F1_HAL/Drivers/STM32F1xx_HAL_Driver/Src\stm32f1xx_hal_gpio.c ****   /* Check the parameters */
 205:E:/VisualStudioCode/STM32F1_HAL/Drivers/STM32F1xx_HAL_Driver/Src\stm32f1xx_hal_gpio.c ****   assert_param(IS_GPIO_ALL_INSTANCE(GPIOx));
 206:E:/VisualStudioCode/STM32F1_HAL/Drivers/STM32F1xx_HAL_Driver/Src\stm32f1xx_hal_gpio.c ****   assert_param(IS_GPIO_PIN(GPIO_Init->Pin));
 207:E:/VisualStudioCode/STM32F1_HAL/Drivers/STM32F1xx_HAL_Driver/Src\stm32f1xx_hal_gpio.c ****   assert_param(IS_GPIO_MODE(GPIO_Init->Mode));
 208:E:/VisualStudioCode/STM32F1_HAL/Drivers/STM32F1xx_HAL_Driver/Src\stm32f1xx_hal_gpio.c **** 
 209:E:/VisualStudioCode/STM32F1_HAL/Drivers/STM32F1xx_HAL_Driver/Src\stm32f1xx_hal_gpio.c ****   /* Configure the port pins */
 210:E:/VisualStudioCode/STM32F1_HAL/Drivers/STM32F1xx_HAL_Driver/Src\stm32f1xx_hal_gpio.c ****   for (position = 0U; position < GPIO_NUMBER; position++)
  47              		.loc 1 210 0
  48 0006 3546     		mov	r5, r6
  49 0008 A1E0     		b	.L27
  50              	.LVL2:
  51              	.L38:
  52              	.LBB3:
  53              	.LBB4:
  54              	.LBB5:
 211:E:/VisualStudioCode/STM32F1_HAL/Drivers/STM32F1xx_HAL_Driver/Src\stm32f1xx_hal_gpio.c ****   {
 212:E:/VisualStudioCode/STM32F1_HAL/Drivers/STM32F1xx_HAL_Driver/Src\stm32f1xx_hal_gpio.c ****     /* Get the IO position */
 213:E:/VisualStudioCode/STM32F1_HAL/Drivers/STM32F1xx_HAL_Driver/Src\stm32f1xx_hal_gpio.c ****     ioposition = (0x01U << position);
 214:E:/VisualStudioCode/STM32F1_HAL/Drivers/STM32F1xx_HAL_Driver/Src\stm32f1xx_hal_gpio.c **** 
 215:E:/VisualStudioCode/STM32F1_HAL/Drivers/STM32F1xx_HAL_Driver/Src\stm32f1xx_hal_gpio.c ****     /* Get the current IO position */
 216:E:/VisualStudioCode/STM32F1_HAL/Drivers/STM32F1xx_HAL_Driver/Src\stm32f1xx_hal_gpio.c ****     iocurrent = (uint32_t)(GPIO_Init->Pin) & ioposition;
 217:E:/VisualStudioCode/STM32F1_HAL/Drivers/STM32F1xx_HAL_Driver/Src\stm32f1xx_hal_gpio.c **** 
 218:E:/VisualStudioCode/STM32F1_HAL/Drivers/STM32F1xx_HAL_Driver/Src\stm32f1xx_hal_gpio.c ****     if (iocurrent == ioposition)
 219:E:/VisualStudioCode/STM32F1_HAL/Drivers/STM32F1xx_HAL_Driver/Src\stm32f1xx_hal_gpio.c ****     {
 220:E:/VisualStudioCode/STM32F1_HAL/Drivers/STM32F1xx_HAL_Driver/Src\stm32f1xx_hal_gpio.c ****       /* Check the Alternate function parameters */
 221:E:/VisualStudioCode/STM32F1_HAL/Drivers/STM32F1xx_HAL_Driver/Src\stm32f1xx_hal_gpio.c ****       assert_param(IS_GPIO_AF_INSTANCE(GPIOx));
 222:E:/VisualStudioCode/STM32F1_HAL/Drivers/STM32F1xx_HAL_Driver/Src\stm32f1xx_hal_gpio.c **** 
 223:E:/VisualStudioCode/STM32F1_HAL/Drivers/STM32F1xx_HAL_Driver/Src\stm32f1xx_hal_gpio.c ****       /* Based on the required mode, filling config variable with MODEy[1:0] and CNFy[3:2] correspo
 224:E:/VisualStudioCode/STM32F1_HAL/Drivers/STM32F1xx_HAL_Driver/Src\stm32f1xx_hal_gpio.c ****       switch (GPIO_Init->Mode)
  55              		.loc 1 224 0
  56 000a 002C     		cmp	r4, #0
  57 000c 59D0     		beq	.L9
  58 000e 012C     		cmp	r4, #1
  59 0010 00D1     		bne	.L11
 225:E:/VisualStudioCode/STM32F1_HAL/Drivers/STM32F1xx_HAL_Driver/Src\stm32f1xx_hal_gpio.c ****       {
 226:E:/VisualStudioCode/STM32F1_HAL/Drivers/STM32F1xx_HAL_Driver/Src\stm32f1xx_hal_gpio.c ****         /* If we are configuring the pin in OUTPUT push-pull mode */
 227:E:/VisualStudioCode/STM32F1_HAL/Drivers/STM32F1xx_HAL_Driver/Src\stm32f1xx_hal_gpio.c ****         case GPIO_MODE_OUTPUT_PP:
ARM GAS  C:\Users\ADMINI~1\AppData\Local\Temp\ccXng2ld.s 			page 6


 228:E:/VisualStudioCode/STM32F1_HAL/Drivers/STM32F1xx_HAL_Driver/Src\stm32f1xx_hal_gpio.c ****           /* Check the GPIO speed parameter */
 229:E:/VisualStudioCode/STM32F1_HAL/Drivers/STM32F1xx_HAL_Driver/Src\stm32f1xx_hal_gpio.c ****           assert_param(IS_GPIO_SPEED(GPIO_Init->Speed));
 230:E:/VisualStudioCode/STM32F1_HAL/Drivers/STM32F1xx_HAL_Driver/Src\stm32f1xx_hal_gpio.c ****           config = GPIO_Init->Speed + GPIO_CR_CNF_GP_OUTPUT_PP;
  60              		.loc 1 230 0
  61 0012 CE68     		ldr	r6, [r1, #12]
  62              	.LVL3:
  63              	.L11:
 231:E:/VisualStudioCode/STM32F1_HAL/Drivers/STM32F1xx_HAL_Driver/Src\stm32f1xx_hal_gpio.c ****           break;
 232:E:/VisualStudioCode/STM32F1_HAL/Drivers/STM32F1xx_HAL_Driver/Src\stm32f1xx_hal_gpio.c **** 
 233:E:/VisualStudioCode/STM32F1_HAL/Drivers/STM32F1xx_HAL_Driver/Src\stm32f1xx_hal_gpio.c ****         /* If we are configuring the pin in OUTPUT open-drain mode */
 234:E:/VisualStudioCode/STM32F1_HAL/Drivers/STM32F1xx_HAL_Driver/Src\stm32f1xx_hal_gpio.c ****         case GPIO_MODE_OUTPUT_OD:
 235:E:/VisualStudioCode/STM32F1_HAL/Drivers/STM32F1xx_HAL_Driver/Src\stm32f1xx_hal_gpio.c ****           /* Check the GPIO speed parameter */
 236:E:/VisualStudioCode/STM32F1_HAL/Drivers/STM32F1xx_HAL_Driver/Src\stm32f1xx_hal_gpio.c ****           assert_param(IS_GPIO_SPEED(GPIO_Init->Speed));
 237:E:/VisualStudioCode/STM32F1_HAL/Drivers/STM32F1xx_HAL_Driver/Src\stm32f1xx_hal_gpio.c ****           config = GPIO_Init->Speed + GPIO_CR_CNF_GP_OUTPUT_OD;
 238:E:/VisualStudioCode/STM32F1_HAL/Drivers/STM32F1xx_HAL_Driver/Src\stm32f1xx_hal_gpio.c ****           break;
 239:E:/VisualStudioCode/STM32F1_HAL/Drivers/STM32F1xx_HAL_Driver/Src\stm32f1xx_hal_gpio.c **** 
 240:E:/VisualStudioCode/STM32F1_HAL/Drivers/STM32F1xx_HAL_Driver/Src\stm32f1xx_hal_gpio.c ****         /* If we are configuring the pin in ALTERNATE FUNCTION push-pull mode */
 241:E:/VisualStudioCode/STM32F1_HAL/Drivers/STM32F1xx_HAL_Driver/Src\stm32f1xx_hal_gpio.c ****         case GPIO_MODE_AF_PP:
 242:E:/VisualStudioCode/STM32F1_HAL/Drivers/STM32F1xx_HAL_Driver/Src\stm32f1xx_hal_gpio.c ****           /* Check the GPIO speed parameter */
 243:E:/VisualStudioCode/STM32F1_HAL/Drivers/STM32F1xx_HAL_Driver/Src\stm32f1xx_hal_gpio.c ****           assert_param(IS_GPIO_SPEED(GPIO_Init->Speed));
 244:E:/VisualStudioCode/STM32F1_HAL/Drivers/STM32F1xx_HAL_Driver/Src\stm32f1xx_hal_gpio.c ****           config = GPIO_Init->Speed + GPIO_CR_CNF_AF_OUTPUT_PP;
 245:E:/VisualStudioCode/STM32F1_HAL/Drivers/STM32F1xx_HAL_Driver/Src\stm32f1xx_hal_gpio.c ****           break;
 246:E:/VisualStudioCode/STM32F1_HAL/Drivers/STM32F1xx_HAL_Driver/Src\stm32f1xx_hal_gpio.c **** 
 247:E:/VisualStudioCode/STM32F1_HAL/Drivers/STM32F1xx_HAL_Driver/Src\stm32f1xx_hal_gpio.c ****         /* If we are configuring the pin in ALTERNATE FUNCTION open-drain mode */
 248:E:/VisualStudioCode/STM32F1_HAL/Drivers/STM32F1xx_HAL_Driver/Src\stm32f1xx_hal_gpio.c ****         case GPIO_MODE_AF_OD:
 249:E:/VisualStudioCode/STM32F1_HAL/Drivers/STM32F1xx_HAL_Driver/Src\stm32f1xx_hal_gpio.c ****           /* Check the GPIO speed parameter */
 250:E:/VisualStudioCode/STM32F1_HAL/Drivers/STM32F1xx_HAL_Driver/Src\stm32f1xx_hal_gpio.c ****           assert_param(IS_GPIO_SPEED(GPIO_Init->Speed));
 251:E:/VisualStudioCode/STM32F1_HAL/Drivers/STM32F1xx_HAL_Driver/Src\stm32f1xx_hal_gpio.c ****           config = GPIO_Init->Speed + GPIO_CR_CNF_AF_OUTPUT_OD;
 252:E:/VisualStudioCode/STM32F1_HAL/Drivers/STM32F1xx_HAL_Driver/Src\stm32f1xx_hal_gpio.c ****           break;
 253:E:/VisualStudioCode/STM32F1_HAL/Drivers/STM32F1xx_HAL_Driver/Src\stm32f1xx_hal_gpio.c **** 
 254:E:/VisualStudioCode/STM32F1_HAL/Drivers/STM32F1xx_HAL_Driver/Src\stm32f1xx_hal_gpio.c ****         /* If we are configuring the pin in INPUT (also applicable to EVENT and IT mode) */
 255:E:/VisualStudioCode/STM32F1_HAL/Drivers/STM32F1xx_HAL_Driver/Src\stm32f1xx_hal_gpio.c ****         case GPIO_MODE_INPUT:
 256:E:/VisualStudioCode/STM32F1_HAL/Drivers/STM32F1xx_HAL_Driver/Src\stm32f1xx_hal_gpio.c ****         case GPIO_MODE_IT_RISING:
 257:E:/VisualStudioCode/STM32F1_HAL/Drivers/STM32F1xx_HAL_Driver/Src\stm32f1xx_hal_gpio.c ****         case GPIO_MODE_IT_FALLING:
 258:E:/VisualStudioCode/STM32F1_HAL/Drivers/STM32F1xx_HAL_Driver/Src\stm32f1xx_hal_gpio.c ****         case GPIO_MODE_IT_RISING_FALLING:
 259:E:/VisualStudioCode/STM32F1_HAL/Drivers/STM32F1xx_HAL_Driver/Src\stm32f1xx_hal_gpio.c ****         case GPIO_MODE_EVT_RISING:
 260:E:/VisualStudioCode/STM32F1_HAL/Drivers/STM32F1xx_HAL_Driver/Src\stm32f1xx_hal_gpio.c ****         case GPIO_MODE_EVT_FALLING:
 261:E:/VisualStudioCode/STM32F1_HAL/Drivers/STM32F1xx_HAL_Driver/Src\stm32f1xx_hal_gpio.c ****         case GPIO_MODE_EVT_RISING_FALLING:
 262:E:/VisualStudioCode/STM32F1_HAL/Drivers/STM32F1xx_HAL_Driver/Src\stm32f1xx_hal_gpio.c ****           /* Check the GPIO pull parameter */
 263:E:/VisualStudioCode/STM32F1_HAL/Drivers/STM32F1xx_HAL_Driver/Src\stm32f1xx_hal_gpio.c ****           assert_param(IS_GPIO_PULL(GPIO_Init->Pull));
 264:E:/VisualStudioCode/STM32F1_HAL/Drivers/STM32F1xx_HAL_Driver/Src\stm32f1xx_hal_gpio.c ****           if (GPIO_Init->Pull == GPIO_NOPULL)
 265:E:/VisualStudioCode/STM32F1_HAL/Drivers/STM32F1xx_HAL_Driver/Src\stm32f1xx_hal_gpio.c ****           {
 266:E:/VisualStudioCode/STM32F1_HAL/Drivers/STM32F1xx_HAL_Driver/Src\stm32f1xx_hal_gpio.c ****             config = GPIO_CR_MODE_INPUT + GPIO_CR_CNF_INPUT_FLOATING;
 267:E:/VisualStudioCode/STM32F1_HAL/Drivers/STM32F1xx_HAL_Driver/Src\stm32f1xx_hal_gpio.c ****           }
 268:E:/VisualStudioCode/STM32F1_HAL/Drivers/STM32F1xx_HAL_Driver/Src\stm32f1xx_hal_gpio.c ****           else if (GPIO_Init->Pull == GPIO_PULLUP)
 269:E:/VisualStudioCode/STM32F1_HAL/Drivers/STM32F1xx_HAL_Driver/Src\stm32f1xx_hal_gpio.c ****           {
 270:E:/VisualStudioCode/STM32F1_HAL/Drivers/STM32F1xx_HAL_Driver/Src\stm32f1xx_hal_gpio.c ****             config = GPIO_CR_MODE_INPUT + GPIO_CR_CNF_INPUT_PU_PD;
 271:E:/VisualStudioCode/STM32F1_HAL/Drivers/STM32F1xx_HAL_Driver/Src\stm32f1xx_hal_gpio.c **** 
 272:E:/VisualStudioCode/STM32F1_HAL/Drivers/STM32F1xx_HAL_Driver/Src\stm32f1xx_hal_gpio.c ****             /* Set the corresponding ODR bit */
 273:E:/VisualStudioCode/STM32F1_HAL/Drivers/STM32F1xx_HAL_Driver/Src\stm32f1xx_hal_gpio.c ****             GPIOx->BSRR = ioposition;
 274:E:/VisualStudioCode/STM32F1_HAL/Drivers/STM32F1xx_HAL_Driver/Src\stm32f1xx_hal_gpio.c ****           }
 275:E:/VisualStudioCode/STM32F1_HAL/Drivers/STM32F1xx_HAL_Driver/Src\stm32f1xx_hal_gpio.c ****           else /* GPIO_PULLDOWN */
 276:E:/VisualStudioCode/STM32F1_HAL/Drivers/STM32F1xx_HAL_Driver/Src\stm32f1xx_hal_gpio.c ****           {
 277:E:/VisualStudioCode/STM32F1_HAL/Drivers/STM32F1xx_HAL_Driver/Src\stm32f1xx_hal_gpio.c ****             config = GPIO_CR_MODE_INPUT + GPIO_CR_CNF_INPUT_PU_PD;
 278:E:/VisualStudioCode/STM32F1_HAL/Drivers/STM32F1xx_HAL_Driver/Src\stm32f1xx_hal_gpio.c **** 
 279:E:/VisualStudioCode/STM32F1_HAL/Drivers/STM32F1xx_HAL_Driver/Src\stm32f1xx_hal_gpio.c ****             /* Reset the corresponding ODR bit */
 280:E:/VisualStudioCode/STM32F1_HAL/Drivers/STM32F1xx_HAL_Driver/Src\stm32f1xx_hal_gpio.c ****             GPIOx->BRR = ioposition;
ARM GAS  C:\Users\ADMINI~1\AppData\Local\Temp\ccXng2ld.s 			page 7


 281:E:/VisualStudioCode/STM32F1_HAL/Drivers/STM32F1xx_HAL_Driver/Src\stm32f1xx_hal_gpio.c ****           }
 282:E:/VisualStudioCode/STM32F1_HAL/Drivers/STM32F1xx_HAL_Driver/Src\stm32f1xx_hal_gpio.c ****           break;
 283:E:/VisualStudioCode/STM32F1_HAL/Drivers/STM32F1xx_HAL_Driver/Src\stm32f1xx_hal_gpio.c **** 
 284:E:/VisualStudioCode/STM32F1_HAL/Drivers/STM32F1xx_HAL_Driver/Src\stm32f1xx_hal_gpio.c ****         /* If we are configuring the pin in INPUT analog mode */
 285:E:/VisualStudioCode/STM32F1_HAL/Drivers/STM32F1xx_HAL_Driver/Src\stm32f1xx_hal_gpio.c ****         case GPIO_MODE_ANALOG:
 286:E:/VisualStudioCode/STM32F1_HAL/Drivers/STM32F1xx_HAL_Driver/Src\stm32f1xx_hal_gpio.c ****           config = GPIO_CR_MODE_INPUT + GPIO_CR_CNF_ANALOG;
 287:E:/VisualStudioCode/STM32F1_HAL/Drivers/STM32F1xx_HAL_Driver/Src\stm32f1xx_hal_gpio.c ****           break;
 288:E:/VisualStudioCode/STM32F1_HAL/Drivers/STM32F1xx_HAL_Driver/Src\stm32f1xx_hal_gpio.c **** 
 289:E:/VisualStudioCode/STM32F1_HAL/Drivers/STM32F1xx_HAL_Driver/Src\stm32f1xx_hal_gpio.c ****         /* Parameters are checked with assert_param */
 290:E:/VisualStudioCode/STM32F1_HAL/Drivers/STM32F1xx_HAL_Driver/Src\stm32f1xx_hal_gpio.c ****         default:
 291:E:/VisualStudioCode/STM32F1_HAL/Drivers/STM32F1xx_HAL_Driver/Src\stm32f1xx_hal_gpio.c ****           break;
 292:E:/VisualStudioCode/STM32F1_HAL/Drivers/STM32F1xx_HAL_Driver/Src\stm32f1xx_hal_gpio.c ****       }
 293:E:/VisualStudioCode/STM32F1_HAL/Drivers/STM32F1xx_HAL_Driver/Src\stm32f1xx_hal_gpio.c **** 
 294:E:/VisualStudioCode/STM32F1_HAL/Drivers/STM32F1xx_HAL_Driver/Src\stm32f1xx_hal_gpio.c ****       /* Check if the current bit belongs to first half or last half of the pin count number
 295:E:/VisualStudioCode/STM32F1_HAL/Drivers/STM32F1xx_HAL_Driver/Src\stm32f1xx_hal_gpio.c ****        in order to address CRH or CRL register*/
 296:E:/VisualStudioCode/STM32F1_HAL/Drivers/STM32F1xx_HAL_Driver/Src\stm32f1xx_hal_gpio.c ****       configregister = (iocurrent < GPIO_PIN_8) ? &GPIOx->CRL     : &GPIOx->CRH;
  64              		.loc 1 296 0
  65 0014 FF2B     		cmp	r3, #255
  66 0016 68D8     		bhi	.L15
  67              		.loc 1 296 0 is_stmt 0 discriminator 1
  68 0018 8446     		mov	ip, r0
  69              	.L16:
  70              	.LVL4:
 297:E:/VisualStudioCode/STM32F1_HAL/Drivers/STM32F1xx_HAL_Driver/Src\stm32f1xx_hal_gpio.c ****       registeroffset = (iocurrent < GPIO_PIN_8) ? (position << 2U) : ((position - 8U) << 2U);
  71              		.loc 1 297 0 is_stmt 1 discriminator 4
  72 001a FF2B     		cmp	r3, #255
  73 001c 68D8     		bhi	.L17
  74              		.loc 1 297 0 is_stmt 0 discriminator 1
  75 001e AC00     		lsls	r4, r5, #2
  76              	.L18:
  77              	.LVL5:
 298:E:/VisualStudioCode/STM32F1_HAL/Drivers/STM32F1xx_HAL_Driver/Src\stm32f1xx_hal_gpio.c **** 
 299:E:/VisualStudioCode/STM32F1_HAL/Drivers/STM32F1xx_HAL_Driver/Src\stm32f1xx_hal_gpio.c ****       /* Apply the new configuration of the pin to the register */
 300:E:/VisualStudioCode/STM32F1_HAL/Drivers/STM32F1xx_HAL_Driver/Src\stm32f1xx_hal_gpio.c ****       MODIFY_REG((*configregister), ((GPIO_CRL_MODE0 | GPIO_CRL_CNF0) << registeroffset), (config <
  78              		.loc 1 300 0 is_stmt 1 discriminator 4
  79 0020 DCF80020 		ldr	r2, [ip]
  80              	.LVL6:
  81 0024 0F27     		movs	r7, #15
  82 0026 A740     		lsls	r7, r7, r4
  83 0028 22EA0702 		bic	r2, r2, r7
  84 002c 06FA04F4 		lsl	r4, r6, r4
  85              	.LVL7:
  86 0030 2243     		orrs	r2, r2, r4
  87 0032 CCF80020 		str	r2, [ip]
  88              	.LBB6:
 301:E:/VisualStudioCode/STM32F1_HAL/Drivers/STM32F1xx_HAL_Driver/Src\stm32f1xx_hal_gpio.c **** 
 302:E:/VisualStudioCode/STM32F1_HAL/Drivers/STM32F1xx_HAL_Driver/Src\stm32f1xx_hal_gpio.c ****       /*--------------------- EXTI Mode Configuration ------------------------*/
 303:E:/VisualStudioCode/STM32F1_HAL/Drivers/STM32F1xx_HAL_Driver/Src\stm32f1xx_hal_gpio.c ****       /* Configure the External Interrupt or event for the current IO */
 304:E:/VisualStudioCode/STM32F1_HAL/Drivers/STM32F1xx_HAL_Driver/Src\stm32f1xx_hal_gpio.c ****       if ((GPIO_Init->Mode & EXTI_MODE) == EXTI_MODE)
  89              		.loc 1 304 0 discriminator 4
  90 0036 4A68     		ldr	r2, [r1, #4]
  91 0038 12F0805F 		tst	r2, #268435456
  92 003c 00F08680 		beq	.L3
  93              	.LBB7:
  94              	.LBB8:
 305:E:/VisualStudioCode/STM32F1_HAL/Drivers/STM32F1xx_HAL_Driver/Src\stm32f1xx_hal_gpio.c ****       {
 306:E:/VisualStudioCode/STM32F1_HAL/Drivers/STM32F1xx_HAL_Driver/Src\stm32f1xx_hal_gpio.c ****         /* Enable AFIO Clock */
ARM GAS  C:\Users\ADMINI~1\AppData\Local\Temp\ccXng2ld.s 			page 8


 307:E:/VisualStudioCode/STM32F1_HAL/Drivers/STM32F1xx_HAL_Driver/Src\stm32f1xx_hal_gpio.c ****         __HAL_RCC_AFIO_CLK_ENABLE();
  95              		.loc 1 307 0
  96 0040 5E4A     		ldr	r2, .L39
  97 0042 9469     		ldr	r4, [r2, #24]
  98 0044 44F00104 		orr	r4, r4, #1
  99 0048 9461     		str	r4, [r2, #24]
 100 004a 9269     		ldr	r2, [r2, #24]
 101 004c 02F00102 		and	r2, r2, #1
 102 0050 0192     		str	r2, [sp, #4]
 103 0052 019A     		ldr	r2, [sp, #4]
 104              	.LBE8:
 308:E:/VisualStudioCode/STM32F1_HAL/Drivers/STM32F1xx_HAL_Driver/Src\stm32f1xx_hal_gpio.c ****         temp = AFIO->EXTICR[position >> 2U];
 105              		.loc 1 308 0
 106 0054 AC08     		lsrs	r4, r5, #2
 107 0056 A71C     		adds	r7, r4, #2
 108 0058 594A     		ldr	r2, .L39+4
 109 005a 52F82720 		ldr	r2, [r2, r7, lsl #2]
 110              	.LVL8:
 309:E:/VisualStudioCode/STM32F1_HAL/Drivers/STM32F1xx_HAL_Driver/Src\stm32f1xx_hal_gpio.c ****         CLEAR_BIT(temp, (0x0FU) << (4U * (position & 0x03U)));
 111              		.loc 1 309 0
 112 005e 05F00307 		and	r7, r5, #3
 113 0062 BF00     		lsls	r7, r7, #2
 114 0064 4FF00F0C 		mov	ip, #15
 115              	.LVL9:
 116 0068 0CFA07FC 		lsl	ip, ip, r7
 117 006c 22EA0C0C 		bic	ip, r2, ip
 118              	.LVL10:
 310:E:/VisualStudioCode/STM32F1_HAL/Drivers/STM32F1xx_HAL_Driver/Src\stm32f1xx_hal_gpio.c ****         SET_BIT(temp, (GPIO_GET_INDEX(GPIOx)) << (4U * (position & 0x03U)));
 119              		.loc 1 310 0
 120 0070 544A     		ldr	r2, .L39+8
 121 0072 9042     		cmp	r0, r2
 122 0074 42D0     		beq	.L30
 123              		.loc 1 310 0 is_stmt 0 discriminator 1
 124 0076 02F58062 		add	r2, r2, #1024
 125 007a 9042     		cmp	r0, r2
 126 007c 7FD0     		beq	.L31
 127              		.loc 1 310 0 discriminator 3
 128 007e 02F58062 		add	r2, r2, #1024
 129 0082 9042     		cmp	r0, r2
 130 0084 7DD0     		beq	.L32
 131              		.loc 1 310 0 discriminator 5
 132 0086 02F58062 		add	r2, r2, #1024
 133 008a 9042     		cmp	r0, r2
 134 008c 34D0     		beq	.L35
 135              		.loc 1 310 0
 136 008e 0422     		movs	r2, #4
 137 0090 35E0     		b	.L19
 138              	.LVL11:
 139              	.L6:
 140              	.LBE7:
 141              	.LBE6:
 224:E:/VisualStudioCode/STM32F1_HAL/Drivers/STM32F1xx_HAL_Driver/Src\stm32f1xx_hal_gpio.c ****       {
 142              		.loc 1 224 0 is_stmt 1
 143 0092 4D4F     		ldr	r7, .L39+12
 144 0094 BC42     		cmp	r4, r7
 145 0096 14D0     		beq	.L9
 146 0098 0BD9     		bls	.L36
ARM GAS  C:\Users\ADMINI~1\AppData\Local\Temp\ccXng2ld.s 			page 9


 147 009a 4C4F     		ldr	r7, .L39+16
 148 009c BC42     		cmp	r4, r7
 149 009e 10D0     		beq	.L9
 150 00a0 07F58037 		add	r7, r7, #65536
 151 00a4 BC42     		cmp	r4, r7
 152 00a6 0CD0     		beq	.L9
 153 00a8 A7F58017 		sub	r7, r7, #1048576
 154 00ac BC42     		cmp	r4, r7
 155 00ae B1D1     		bne	.L11
 156 00b0 07E0     		b	.L9
 157              	.L36:
 158 00b2 A7F58017 		sub	r7, r7, #1048576
 159 00b6 BC42     		cmp	r4, r7
 160 00b8 03D0     		beq	.L9
 161 00ba 07F58037 		add	r7, r7, #65536
 162 00be BC42     		cmp	r4, r7
 163 00c0 A8D1     		bne	.L11
 164              	.L9:
 264:E:/VisualStudioCode/STM32F1_HAL/Drivers/STM32F1xx_HAL_Driver/Src\stm32f1xx_hal_gpio.c ****           {
 165              		.loc 1 264 0
 166 00c2 8C68     		ldr	r4, [r1, #8]
 167 00c4 7CB1     		cbz	r4, .L29
 268:E:/VisualStudioCode/STM32F1_HAL/Drivers/STM32F1xx_HAL_Driver/Src\stm32f1xx_hal_gpio.c ****           {
 168              		.loc 1 268 0
 169 00c6 012C     		cmp	r4, #1
 170 00c8 08D0     		beq	.L37
 171              	.LVL12:
 280:E:/VisualStudioCode/STM32F1_HAL/Drivers/STM32F1xx_HAL_Driver/Src\stm32f1xx_hal_gpio.c ****           }
 172              		.loc 1 280 0
 173 00ca 4261     		str	r2, [r0, #20]
 277:E:/VisualStudioCode/STM32F1_HAL/Drivers/STM32F1xx_HAL_Driver/Src\stm32f1xx_hal_gpio.c **** 
 174              		.loc 1 277 0
 175 00cc 0826     		movs	r6, #8
 176 00ce A1E7     		b	.L11
 177              	.LVL13:
 178              	.L7:
 244:E:/VisualStudioCode/STM32F1_HAL/Drivers/STM32F1xx_HAL_Driver/Src\stm32f1xx_hal_gpio.c ****           break;
 179              		.loc 1 244 0
 180 00d0 CE68     		ldr	r6, [r1, #12]
 181              	.LVL14:
 182 00d2 0836     		adds	r6, r6, #8
 183              	.LVL15:
 245:E:/VisualStudioCode/STM32F1_HAL/Drivers/STM32F1xx_HAL_Driver/Src\stm32f1xx_hal_gpio.c **** 
 184              		.loc 1 245 0
 185 00d4 9EE7     		b	.L11
 186              	.L5:
 251:E:/VisualStudioCode/STM32F1_HAL/Drivers/STM32F1xx_HAL_Driver/Src\stm32f1xx_hal_gpio.c ****           break;
 187              		.loc 1 251 0
 188 00d6 CE68     		ldr	r6, [r1, #12]
 189              	.LVL16:
 190 00d8 0C36     		adds	r6, r6, #12
 191              	.LVL17:
 252:E:/VisualStudioCode/STM32F1_HAL/Drivers/STM32F1xx_HAL_Driver/Src\stm32f1xx_hal_gpio.c **** 
 192              		.loc 1 252 0
 193 00da 9BE7     		b	.L11
 194              	.L37:
 195              	.LVL18:
ARM GAS  C:\Users\ADMINI~1\AppData\Local\Temp\ccXng2ld.s 			page 10


 273:E:/VisualStudioCode/STM32F1_HAL/Drivers/STM32F1xx_HAL_Driver/Src\stm32f1xx_hal_gpio.c ****           }
 196              		.loc 1 273 0
 197 00dc 0261     		str	r2, [r0, #16]
 270:E:/VisualStudioCode/STM32F1_HAL/Drivers/STM32F1xx_HAL_Driver/Src\stm32f1xx_hal_gpio.c **** 
 198              		.loc 1 270 0
 199 00de 0826     		movs	r6, #8
 200 00e0 98E7     		b	.L11
 201              	.LVL19:
 202              	.L28:
 286:E:/VisualStudioCode/STM32F1_HAL/Drivers/STM32F1xx_HAL_Driver/Src\stm32f1xx_hal_gpio.c ****           break;
 203              		.loc 1 286 0
 204 00e2 0026     		movs	r6, #0
 205              	.LVL20:
 206 00e4 96E7     		b	.L11
 207              	.LVL21:
 208              	.L29:
 266:E:/VisualStudioCode/STM32F1_HAL/Drivers/STM32F1xx_HAL_Driver/Src\stm32f1xx_hal_gpio.c ****           }
 209              		.loc 1 266 0
 210 00e6 0426     		movs	r6, #4
 211              	.LVL22:
 212 00e8 94E7     		b	.L11
 213              	.LVL23:
 214              	.L15:
 296:E:/VisualStudioCode/STM32F1_HAL/Drivers/STM32F1xx_HAL_Driver/Src\stm32f1xx_hal_gpio.c ****       registeroffset = (iocurrent < GPIO_PIN_8) ? (position << 2U) : ((position - 8U) << 2U);
 215              		.loc 1 296 0 discriminator 2
 216 00ea 00F1040C 		add	ip, r0, #4
 217 00ee 94E7     		b	.L16
 218              	.LVL24:
 219              	.L17:
 297:E:/VisualStudioCode/STM32F1_HAL/Drivers/STM32F1xx_HAL_Driver/Src\stm32f1xx_hal_gpio.c **** 
 220              		.loc 1 297 0 discriminator 2
 221 00f0 A5F10804 		sub	r4, r5, #8
 222 00f4 A400     		lsls	r4, r4, #2
 223 00f6 93E7     		b	.L18
 224              	.LVL25:
 225              	.L35:
 226              	.LBB11:
 227              	.LBB9:
 228              		.loc 1 310 0
 229 00f8 0322     		movs	r2, #3
 230 00fa 00E0     		b	.L19
 231              	.L30:
 232 00fc 0022     		movs	r2, #0
 233              	.L19:
 234              		.loc 1 310 0 is_stmt 0 discriminator 16
 235 00fe BA40     		lsls	r2, r2, r7
 236 0100 42EA0C02 		orr	r2, r2, ip
 237              	.LVL26:
 311:E:/VisualStudioCode/STM32F1_HAL/Drivers/STM32F1xx_HAL_Driver/Src\stm32f1xx_hal_gpio.c ****         AFIO->EXTICR[position >> 2U] = temp;
 238              		.loc 1 311 0 is_stmt 1 discriminator 16
 239 0104 0234     		adds	r4, r4, #2
 240 0106 2E4F     		ldr	r7, .L39+4
 241 0108 47F82420 		str	r2, [r7, r4, lsl #2]
 312:E:/VisualStudioCode/STM32F1_HAL/Drivers/STM32F1xx_HAL_Driver/Src\stm32f1xx_hal_gpio.c **** 
 313:E:/VisualStudioCode/STM32F1_HAL/Drivers/STM32F1xx_HAL_Driver/Src\stm32f1xx_hal_gpio.c **** 
 314:E:/VisualStudioCode/STM32F1_HAL/Drivers/STM32F1xx_HAL_Driver/Src\stm32f1xx_hal_gpio.c ****         /* Configure the interrupt mask */
 315:E:/VisualStudioCode/STM32F1_HAL/Drivers/STM32F1xx_HAL_Driver/Src\stm32f1xx_hal_gpio.c ****         if ((GPIO_Init->Mode & GPIO_MODE_IT) == GPIO_MODE_IT)
ARM GAS  C:\Users\ADMINI~1\AppData\Local\Temp\ccXng2ld.s 			page 11


 242              		.loc 1 315 0 discriminator 16
 243 010c 4A68     		ldr	r2, [r1, #4]
 244              	.LVL27:
 245 010e 12F4803F 		tst	r2, #65536
 246 0112 38D0     		beq	.L20
 316:E:/VisualStudioCode/STM32F1_HAL/Drivers/STM32F1xx_HAL_Driver/Src\stm32f1xx_hal_gpio.c ****         {
 317:E:/VisualStudioCode/STM32F1_HAL/Drivers/STM32F1xx_HAL_Driver/Src\stm32f1xx_hal_gpio.c ****           SET_BIT(EXTI->IMR, iocurrent);
 247              		.loc 1 317 0
 248 0114 2E4C     		ldr	r4, .L39+20
 249              	.LVL28:
 250 0116 2268     		ldr	r2, [r4]
 251 0118 1A43     		orrs	r2, r2, r3
 252 011a 2260     		str	r2, [r4]
 253              	.LVL29:
 254              	.L21:
 318:E:/VisualStudioCode/STM32F1_HAL/Drivers/STM32F1xx_HAL_Driver/Src\stm32f1xx_hal_gpio.c ****         }
 319:E:/VisualStudioCode/STM32F1_HAL/Drivers/STM32F1xx_HAL_Driver/Src\stm32f1xx_hal_gpio.c ****         else
 320:E:/VisualStudioCode/STM32F1_HAL/Drivers/STM32F1xx_HAL_Driver/Src\stm32f1xx_hal_gpio.c ****         {
 321:E:/VisualStudioCode/STM32F1_HAL/Drivers/STM32F1xx_HAL_Driver/Src\stm32f1xx_hal_gpio.c ****           CLEAR_BIT(EXTI->IMR, iocurrent);
 322:E:/VisualStudioCode/STM32F1_HAL/Drivers/STM32F1xx_HAL_Driver/Src\stm32f1xx_hal_gpio.c ****         }
 323:E:/VisualStudioCode/STM32F1_HAL/Drivers/STM32F1xx_HAL_Driver/Src\stm32f1xx_hal_gpio.c **** 
 324:E:/VisualStudioCode/STM32F1_HAL/Drivers/STM32F1xx_HAL_Driver/Src\stm32f1xx_hal_gpio.c ****         /* Configure the event mask */
 325:E:/VisualStudioCode/STM32F1_HAL/Drivers/STM32F1xx_HAL_Driver/Src\stm32f1xx_hal_gpio.c ****         if ((GPIO_Init->Mode & GPIO_MODE_EVT) == GPIO_MODE_EVT)
 255              		.loc 1 325 0
 256 011c 4A68     		ldr	r2, [r1, #4]
 257 011e 12F4003F 		tst	r2, #131072
 258 0122 36D0     		beq	.L22
 326:E:/VisualStudioCode/STM32F1_HAL/Drivers/STM32F1xx_HAL_Driver/Src\stm32f1xx_hal_gpio.c ****         {
 327:E:/VisualStudioCode/STM32F1_HAL/Drivers/STM32F1xx_HAL_Driver/Src\stm32f1xx_hal_gpio.c ****           SET_BIT(EXTI->EMR, iocurrent);
 259              		.loc 1 327 0
 260 0124 2A4C     		ldr	r4, .L39+20
 261 0126 6268     		ldr	r2, [r4, #4]
 262 0128 1A43     		orrs	r2, r2, r3
 263 012a 6260     		str	r2, [r4, #4]
 264              	.L23:
 328:E:/VisualStudioCode/STM32F1_HAL/Drivers/STM32F1xx_HAL_Driver/Src\stm32f1xx_hal_gpio.c ****         }
 329:E:/VisualStudioCode/STM32F1_HAL/Drivers/STM32F1xx_HAL_Driver/Src\stm32f1xx_hal_gpio.c ****         else
 330:E:/VisualStudioCode/STM32F1_HAL/Drivers/STM32F1xx_HAL_Driver/Src\stm32f1xx_hal_gpio.c ****         {
 331:E:/VisualStudioCode/STM32F1_HAL/Drivers/STM32F1xx_HAL_Driver/Src\stm32f1xx_hal_gpio.c ****           CLEAR_BIT(EXTI->EMR, iocurrent);
 332:E:/VisualStudioCode/STM32F1_HAL/Drivers/STM32F1xx_HAL_Driver/Src\stm32f1xx_hal_gpio.c ****         }
 333:E:/VisualStudioCode/STM32F1_HAL/Drivers/STM32F1xx_HAL_Driver/Src\stm32f1xx_hal_gpio.c **** 
 334:E:/VisualStudioCode/STM32F1_HAL/Drivers/STM32F1xx_HAL_Driver/Src\stm32f1xx_hal_gpio.c ****         /* Enable or disable the rising trigger */
 335:E:/VisualStudioCode/STM32F1_HAL/Drivers/STM32F1xx_HAL_Driver/Src\stm32f1xx_hal_gpio.c ****         if ((GPIO_Init->Mode & RISING_EDGE) == RISING_EDGE)
 265              		.loc 1 335 0
 266 012c 4A68     		ldr	r2, [r1, #4]
 267 012e 12F4801F 		tst	r2, #1048576
 268 0132 34D0     		beq	.L24
 336:E:/VisualStudioCode/STM32F1_HAL/Drivers/STM32F1xx_HAL_Driver/Src\stm32f1xx_hal_gpio.c ****         {
 337:E:/VisualStudioCode/STM32F1_HAL/Drivers/STM32F1xx_HAL_Driver/Src\stm32f1xx_hal_gpio.c ****           SET_BIT(EXTI->RTSR, iocurrent);
 269              		.loc 1 337 0
 270 0134 264C     		ldr	r4, .L39+20
 271 0136 A268     		ldr	r2, [r4, #8]
 272 0138 1A43     		orrs	r2, r2, r3
 273 013a A260     		str	r2, [r4, #8]
 274              	.L25:
 338:E:/VisualStudioCode/STM32F1_HAL/Drivers/STM32F1xx_HAL_Driver/Src\stm32f1xx_hal_gpio.c ****         }
 339:E:/VisualStudioCode/STM32F1_HAL/Drivers/STM32F1xx_HAL_Driver/Src\stm32f1xx_hal_gpio.c ****         else
ARM GAS  C:\Users\ADMINI~1\AppData\Local\Temp\ccXng2ld.s 			page 12


 340:E:/VisualStudioCode/STM32F1_HAL/Drivers/STM32F1xx_HAL_Driver/Src\stm32f1xx_hal_gpio.c ****         {
 341:E:/VisualStudioCode/STM32F1_HAL/Drivers/STM32F1xx_HAL_Driver/Src\stm32f1xx_hal_gpio.c ****           CLEAR_BIT(EXTI->RTSR, iocurrent);
 342:E:/VisualStudioCode/STM32F1_HAL/Drivers/STM32F1xx_HAL_Driver/Src\stm32f1xx_hal_gpio.c ****         }
 343:E:/VisualStudioCode/STM32F1_HAL/Drivers/STM32F1xx_HAL_Driver/Src\stm32f1xx_hal_gpio.c **** 
 344:E:/VisualStudioCode/STM32F1_HAL/Drivers/STM32F1xx_HAL_Driver/Src\stm32f1xx_hal_gpio.c ****         /* Enable or disable the falling trigger */
 345:E:/VisualStudioCode/STM32F1_HAL/Drivers/STM32F1xx_HAL_Driver/Src\stm32f1xx_hal_gpio.c ****         if ((GPIO_Init->Mode & FALLING_EDGE) == FALLING_EDGE)
 275              		.loc 1 345 0
 276 013c 4A68     		ldr	r2, [r1, #4]
 277 013e 12F4001F 		tst	r2, #2097152
 278 0142 32D0     		beq	.L26
 346:E:/VisualStudioCode/STM32F1_HAL/Drivers/STM32F1xx_HAL_Driver/Src\stm32f1xx_hal_gpio.c ****         {
 347:E:/VisualStudioCode/STM32F1_HAL/Drivers/STM32F1xx_HAL_Driver/Src\stm32f1xx_hal_gpio.c ****           SET_BIT(EXTI->FTSR, iocurrent);
 279              		.loc 1 347 0
 280 0144 224C     		ldr	r4, .L39+20
 281 0146 E268     		ldr	r2, [r4, #12]
 282 0148 1343     		orrs	r3, r3, r2
 283              	.LVL30:
 284 014a E360     		str	r3, [r4, #12]
 285              	.L3:
 286              	.LBE9:
 287              	.LBE11:
 288              	.LBE5:
 289              	.LBE4:
 290              	.LBE3:
 210:E:/VisualStudioCode/STM32F1_HAL/Drivers/STM32F1xx_HAL_Driver/Src\stm32f1xx_hal_gpio.c ****   {
 291              		.loc 1 210 0 discriminator 2
 292 014c 0135     		adds	r5, r5, #1
 293              	.LVL31:
 294              	.L27:
 210:E:/VisualStudioCode/STM32F1_HAL/Drivers/STM32F1xx_HAL_Driver/Src\stm32f1xx_hal_gpio.c ****   {
 295              		.loc 1 210 0 is_stmt 0 discriminator 1
 296 014e 0F2D     		cmp	r5, #15
 297 0150 31D8     		bhi	.L1
 298              	.LBB15:
 213:E:/VisualStudioCode/STM32F1_HAL/Drivers/STM32F1xx_HAL_Driver/Src\stm32f1xx_hal_gpio.c **** 
 299              		.loc 1 213 0 is_stmt 1
 300 0152 0122     		movs	r2, #1
 301 0154 AA40     		lsls	r2, r2, r5
 302              	.LVL32:
 216:E:/VisualStudioCode/STM32F1_HAL/Drivers/STM32F1xx_HAL_Driver/Src\stm32f1xx_hal_gpio.c **** 
 303              		.loc 1 216 0
 304 0156 0B68     		ldr	r3, [r1]
 305 0158 1340     		ands	r3, r3, r2
 306              	.LVL33:
 307              	.LBB14:
 218:E:/VisualStudioCode/STM32F1_HAL/Drivers/STM32F1xx_HAL_Driver/Src\stm32f1xx_hal_gpio.c ****     {
 308              		.loc 1 218 0
 309 015a 9A42     		cmp	r2, r3
 310 015c F6D1     		bne	.L3
 311              	.LBB13:
 224:E:/VisualStudioCode/STM32F1_HAL/Drivers/STM32F1xx_HAL_Driver/Src\stm32f1xx_hal_gpio.c ****       {
 312              		.loc 1 224 0
 313 015e 4C68     		ldr	r4, [r1, #4]
 314 0160 122C     		cmp	r4, #18
 315 0162 B8D0     		beq	.L5
 316 0164 95D8     		bhi	.L6
 317 0166 022C     		cmp	r4, #2
ARM GAS  C:\Users\ADMINI~1\AppData\Local\Temp\ccXng2ld.s 			page 13


 318 0168 B2D0     		beq	.L7
 319 016a 7FF64EAF 		bls	.L38
 320 016e 032C     		cmp	r4, #3
 321 0170 B7D0     		beq	.L28
 322 0172 112C     		cmp	r4, #17
 323 0174 7FF44EAF 		bne	.L11
 237:E:/VisualStudioCode/STM32F1_HAL/Drivers/STM32F1xx_HAL_Driver/Src\stm32f1xx_hal_gpio.c ****           break;
 324              		.loc 1 237 0
 325 0178 CE68     		ldr	r6, [r1, #12]
 326              	.LVL34:
 327 017a 0436     		adds	r6, r6, #4
 328              	.LVL35:
 238:E:/VisualStudioCode/STM32F1_HAL/Drivers/STM32F1xx_HAL_Driver/Src\stm32f1xx_hal_gpio.c **** 
 329              		.loc 1 238 0
 330 017c 4AE7     		b	.L11
 331              	.LVL36:
 332              	.L31:
 333              	.LBB12:
 334              	.LBB10:
 310:E:/VisualStudioCode/STM32F1_HAL/Drivers/STM32F1xx_HAL_Driver/Src\stm32f1xx_hal_gpio.c ****         AFIO->EXTICR[position >> 2U] = temp;
 335              		.loc 1 310 0
 336 017e 0122     		movs	r2, #1
 337              	.LVL37:
 338 0180 BDE7     		b	.L19
 339              	.LVL38:
 340              	.L32:
 341 0182 0222     		movs	r2, #2
 342 0184 BBE7     		b	.L19
 343              	.LVL39:
 344              	.L20:
 321:E:/VisualStudioCode/STM32F1_HAL/Drivers/STM32F1xx_HAL_Driver/Src\stm32f1xx_hal_gpio.c ****         }
 345              		.loc 1 321 0
 346 0186 124C     		ldr	r4, .L39+20
 347              	.LVL40:
 348 0188 2268     		ldr	r2, [r4]
 349 018a 22EA0302 		bic	r2, r2, r3
 350 018e 2260     		str	r2, [r4]
 351              	.LVL41:
 352 0190 C4E7     		b	.L21
 353              	.L22:
 331:E:/VisualStudioCode/STM32F1_HAL/Drivers/STM32F1xx_HAL_Driver/Src\stm32f1xx_hal_gpio.c ****         }
 354              		.loc 1 331 0
 355 0192 0F4C     		ldr	r4, .L39+20
 356 0194 6268     		ldr	r2, [r4, #4]
 357 0196 22EA0302 		bic	r2, r2, r3
 358 019a 6260     		str	r2, [r4, #4]
 359 019c C6E7     		b	.L23
 360              	.L24:
 341:E:/VisualStudioCode/STM32F1_HAL/Drivers/STM32F1xx_HAL_Driver/Src\stm32f1xx_hal_gpio.c ****         }
 361              		.loc 1 341 0
 362 019e 0C4C     		ldr	r4, .L39+20
 363 01a0 A268     		ldr	r2, [r4, #8]
 364 01a2 22EA0302 		bic	r2, r2, r3
 365 01a6 A260     		str	r2, [r4, #8]
 366 01a8 C8E7     		b	.L25
 367              	.L26:
 348:E:/VisualStudioCode/STM32F1_HAL/Drivers/STM32F1xx_HAL_Driver/Src\stm32f1xx_hal_gpio.c ****         }
ARM GAS  C:\Users\ADMINI~1\AppData\Local\Temp\ccXng2ld.s 			page 14


 349:E:/VisualStudioCode/STM32F1_HAL/Drivers/STM32F1xx_HAL_Driver/Src\stm32f1xx_hal_gpio.c ****         else
 350:E:/VisualStudioCode/STM32F1_HAL/Drivers/STM32F1xx_HAL_Driver/Src\stm32f1xx_hal_gpio.c ****         {
 351:E:/VisualStudioCode/STM32F1_HAL/Drivers/STM32F1xx_HAL_Driver/Src\stm32f1xx_hal_gpio.c ****           CLEAR_BIT(EXTI->FTSR, iocurrent);
 368              		.loc 1 351 0
 369 01aa 094C     		ldr	r4, .L39+20
 370 01ac E268     		ldr	r2, [r4, #12]
 371 01ae 22EA0303 		bic	r3, r2, r3
 372              	.LVL42:
 373 01b2 E360     		str	r3, [r4, #12]
 374 01b4 CAE7     		b	.L3
 375              	.LVL43:
 376              	.L1:
 377              	.LBE10:
 378              	.LBE12:
 379              	.LBE13:
 380              	.LBE14:
 381              	.LBE15:
 382              	.LBE2:
 352:E:/VisualStudioCode/STM32F1_HAL/Drivers/STM32F1xx_HAL_Driver/Src\stm32f1xx_hal_gpio.c ****         }
 353:E:/VisualStudioCode/STM32F1_HAL/Drivers/STM32F1xx_HAL_Driver/Src\stm32f1xx_hal_gpio.c ****       }
 354:E:/VisualStudioCode/STM32F1_HAL/Drivers/STM32F1xx_HAL_Driver/Src\stm32f1xx_hal_gpio.c ****     }
 355:E:/VisualStudioCode/STM32F1_HAL/Drivers/STM32F1xx_HAL_Driver/Src\stm32f1xx_hal_gpio.c ****   }
 356:E:/VisualStudioCode/STM32F1_HAL/Drivers/STM32F1xx_HAL_Driver/Src\stm32f1xx_hal_gpio.c **** }
 383              		.loc 1 356 0
 384 01b6 02B0     		add	sp, sp, #8
 385              	.LCFI2:
 386              		.cfi_def_cfa_offset 16
 387              		@ sp needed
 388 01b8 F0BC     		pop	{r4, r5, r6, r7}
 389              	.LCFI3:
 390              		.cfi_restore 7
 391              		.cfi_restore 6
 392              		.cfi_restore 5
 393              		.cfi_restore 4
 394              		.cfi_def_cfa_offset 0
 395              	.LVL44:
 396 01ba 7047     		bx	lr
 397              	.L40:
 398              		.align	2
 399              	.L39:
 400 01bc 00100240 		.word	1073876992
 401 01c0 00000140 		.word	1073807360
 402 01c4 00080140 		.word	1073809408
 403 01c8 00002110 		.word	270598144
 404 01cc 00003110 		.word	271646720
 405 01d0 00040140 		.word	1073808384
 406              		.cfi_endproc
 407              	.LFE64:
 408              		.cantunwind
 409              		.fnend
 411              		.section	.text.HAL_GPIO_DeInit,"ax",%progbits
 412              		.align	1
 413              		.global	HAL_GPIO_DeInit
 414              		.syntax unified
 415              		.thumb
 416              		.thumb_func
 417              		.fpu softvfp
ARM GAS  C:\Users\ADMINI~1\AppData\Local\Temp\ccXng2ld.s 			page 15


 419              	HAL_GPIO_DeInit:
 420              		.fnstart
 421              	.LFB65:
 357:E:/VisualStudioCode/STM32F1_HAL/Drivers/STM32F1xx_HAL_Driver/Src\stm32f1xx_hal_gpio.c **** 
 358:E:/VisualStudioCode/STM32F1_HAL/Drivers/STM32F1xx_HAL_Driver/Src\stm32f1xx_hal_gpio.c **** /**
 359:E:/VisualStudioCode/STM32F1_HAL/Drivers/STM32F1xx_HAL_Driver/Src\stm32f1xx_hal_gpio.c ****   * @brief  De-initializes the GPIOx peripheral registers to their default reset values.
 360:E:/VisualStudioCode/STM32F1_HAL/Drivers/STM32F1xx_HAL_Driver/Src\stm32f1xx_hal_gpio.c ****   * @param  GPIOx: where x can be (A..G depending on device used) to select the GPIO peripheral
 361:E:/VisualStudioCode/STM32F1_HAL/Drivers/STM32F1xx_HAL_Driver/Src\stm32f1xx_hal_gpio.c ****   * @param  GPIO_Pin: specifies the port bit to be written.
 362:E:/VisualStudioCode/STM32F1_HAL/Drivers/STM32F1xx_HAL_Driver/Src\stm32f1xx_hal_gpio.c ****   *         This parameter can be one of GPIO_PIN_x where x can be (0..15).
 363:E:/VisualStudioCode/STM32F1_HAL/Drivers/STM32F1xx_HAL_Driver/Src\stm32f1xx_hal_gpio.c ****   * @retval None
 364:E:/VisualStudioCode/STM32F1_HAL/Drivers/STM32F1xx_HAL_Driver/Src\stm32f1xx_hal_gpio.c ****   */
 365:E:/VisualStudioCode/STM32F1_HAL/Drivers/STM32F1xx_HAL_Driver/Src\stm32f1xx_hal_gpio.c **** void HAL_GPIO_DeInit(GPIO_TypeDef  *GPIOx, uint32_t GPIO_Pin)
 366:E:/VisualStudioCode/STM32F1_HAL/Drivers/STM32F1xx_HAL_Driver/Src\stm32f1xx_hal_gpio.c **** {
 422              		.loc 1 366 0
 423              		.cfi_startproc
 424              		@ args = 0, pretend = 0, frame = 0
 425              		@ frame_needed = 0, uses_anonymous_args = 0
 426              		@ link register save eliminated.
 427              	.LVL45:
 428 0000 F0B4     		push	{r4, r5, r6, r7}
 429              	.LCFI4:
 430              		.cfi_def_cfa_offset 16
 431              		.cfi_offset 4, -16
 432              		.cfi_offset 5, -12
 433              		.cfi_offset 6, -8
 434              		.cfi_offset 7, -4
 435              	.LVL46:
 367:E:/VisualStudioCode/STM32F1_HAL/Drivers/STM32F1xx_HAL_Driver/Src\stm32f1xx_hal_gpio.c ****   uint32_t position = 0x00U;
 436              		.loc 1 367 0
 437 0002 0024     		movs	r4, #0
 438 0004 0EE0     		b	.L49
 439              	.LVL47:
 440              	.L44:
 368:E:/VisualStudioCode/STM32F1_HAL/Drivers/STM32F1xx_HAL_Driver/Src\stm32f1xx_hal_gpio.c ****   uint32_t iocurrent = 0x00U;
 369:E:/VisualStudioCode/STM32F1_HAL/Drivers/STM32F1xx_HAL_Driver/Src\stm32f1xx_hal_gpio.c ****   uint32_t tmp = 0x00U;
 370:E:/VisualStudioCode/STM32F1_HAL/Drivers/STM32F1xx_HAL_Driver/Src\stm32f1xx_hal_gpio.c ****   __IO uint32_t *configregister; /* Store the address of CRL or CRH register based on pin number */
 371:E:/VisualStudioCode/STM32F1_HAL/Drivers/STM32F1xx_HAL_Driver/Src\stm32f1xx_hal_gpio.c ****   uint32_t registeroffset = 0U;
 372:E:/VisualStudioCode/STM32F1_HAL/Drivers/STM32F1xx_HAL_Driver/Src\stm32f1xx_hal_gpio.c **** 
 373:E:/VisualStudioCode/STM32F1_HAL/Drivers/STM32F1xx_HAL_Driver/Src\stm32f1xx_hal_gpio.c ****   /* Check the parameters */
 374:E:/VisualStudioCode/STM32F1_HAL/Drivers/STM32F1xx_HAL_Driver/Src\stm32f1xx_hal_gpio.c ****   assert_param(IS_GPIO_ALL_INSTANCE(GPIOx));
 375:E:/VisualStudioCode/STM32F1_HAL/Drivers/STM32F1xx_HAL_Driver/Src\stm32f1xx_hal_gpio.c ****   assert_param(IS_GPIO_PIN(GPIO_Pin));
 376:E:/VisualStudioCode/STM32F1_HAL/Drivers/STM32F1xx_HAL_Driver/Src\stm32f1xx_hal_gpio.c **** 
 377:E:/VisualStudioCode/STM32F1_HAL/Drivers/STM32F1xx_HAL_Driver/Src\stm32f1xx_hal_gpio.c ****   /* Configure the port pins */
 378:E:/VisualStudioCode/STM32F1_HAL/Drivers/STM32F1xx_HAL_Driver/Src\stm32f1xx_hal_gpio.c ****   while ((GPIO_Pin >> position) != 0U)
 379:E:/VisualStudioCode/STM32F1_HAL/Drivers/STM32F1xx_HAL_Driver/Src\stm32f1xx_hal_gpio.c ****   {
 380:E:/VisualStudioCode/STM32F1_HAL/Drivers/STM32F1xx_HAL_Driver/Src\stm32f1xx_hal_gpio.c ****     /* Get current io position */
 381:E:/VisualStudioCode/STM32F1_HAL/Drivers/STM32F1xx_HAL_Driver/Src\stm32f1xx_hal_gpio.c ****     iocurrent = (GPIO_Pin) & (1U << position);
 382:E:/VisualStudioCode/STM32F1_HAL/Drivers/STM32F1xx_HAL_Driver/Src\stm32f1xx_hal_gpio.c **** 
 383:E:/VisualStudioCode/STM32F1_HAL/Drivers/STM32F1xx_HAL_Driver/Src\stm32f1xx_hal_gpio.c ****     if (iocurrent)
 384:E:/VisualStudioCode/STM32F1_HAL/Drivers/STM32F1xx_HAL_Driver/Src\stm32f1xx_hal_gpio.c ****     {
 385:E:/VisualStudioCode/STM32F1_HAL/Drivers/STM32F1xx_HAL_Driver/Src\stm32f1xx_hal_gpio.c ****       /*------------------------- GPIO Mode Configuration --------------------*/
 386:E:/VisualStudioCode/STM32F1_HAL/Drivers/STM32F1xx_HAL_Driver/Src\stm32f1xx_hal_gpio.c ****       /* Check if the current bit belongs to first half or last half of the pin count number
 387:E:/VisualStudioCode/STM32F1_HAL/Drivers/STM32F1xx_HAL_Driver/Src\stm32f1xx_hal_gpio.c ****        in order to address CRH or CRL register */
 388:E:/VisualStudioCode/STM32F1_HAL/Drivers/STM32F1xx_HAL_Driver/Src\stm32f1xx_hal_gpio.c ****       configregister = (iocurrent < GPIO_PIN_8) ? &GPIOx->CRL     : &GPIOx->CRH;
 441              		.loc 1 388 0 discriminator 2
 442 0006 00F1040C 		add	ip, r0, #4
 443 000a 15E0     		b	.L45
ARM GAS  C:\Users\ADMINI~1\AppData\Local\Temp\ccXng2ld.s 			page 16


 444              	.LVL48:
 445              	.L46:
 389:E:/VisualStudioCode/STM32F1_HAL/Drivers/STM32F1xx_HAL_Driver/Src\stm32f1xx_hal_gpio.c ****       registeroffset = (iocurrent < GPIO_PIN_8) ? (position << 2U) : ((position - 8U) << 2U);
 446              		.loc 1 389 0 discriminator 2
 447 000c A4F10806 		sub	r6, r4, #8
 448 0010 B700     		lsls	r7, r6, #2
 449 0012 14E0     		b	.L47
 450              	.LVL49:
 451              	.L56:
 390:E:/VisualStudioCode/STM32F1_HAL/Drivers/STM32F1xx_HAL_Driver/Src\stm32f1xx_hal_gpio.c **** 
 391:E:/VisualStudioCode/STM32F1_HAL/Drivers/STM32F1xx_HAL_Driver/Src\stm32f1xx_hal_gpio.c ****       /* CRL/CRH default value is floating input(0x04) shifted to correct position */
 392:E:/VisualStudioCode/STM32F1_HAL/Drivers/STM32F1xx_HAL_Driver/Src\stm32f1xx_hal_gpio.c ****       MODIFY_REG(*configregister, ((GPIO_CRL_MODE0 | GPIO_CRL_CNF0) << registeroffset), GPIO_CRL_CN
 393:E:/VisualStudioCode/STM32F1_HAL/Drivers/STM32F1xx_HAL_Driver/Src\stm32f1xx_hal_gpio.c **** 
 394:E:/VisualStudioCode/STM32F1_HAL/Drivers/STM32F1xx_HAL_Driver/Src\stm32f1xx_hal_gpio.c ****       /* ODR default value is 0 */
 395:E:/VisualStudioCode/STM32F1_HAL/Drivers/STM32F1xx_HAL_Driver/Src\stm32f1xx_hal_gpio.c ****       CLEAR_BIT(GPIOx->ODR, iocurrent);
 396:E:/VisualStudioCode/STM32F1_HAL/Drivers/STM32F1xx_HAL_Driver/Src\stm32f1xx_hal_gpio.c **** 
 397:E:/VisualStudioCode/STM32F1_HAL/Drivers/STM32F1xx_HAL_Driver/Src\stm32f1xx_hal_gpio.c ****       /*------------------------- EXTI Mode Configuration --------------------*/
 398:E:/VisualStudioCode/STM32F1_HAL/Drivers/STM32F1xx_HAL_Driver/Src\stm32f1xx_hal_gpio.c ****       /* Clear the External Interrupt or Event for the current IO */
 399:E:/VisualStudioCode/STM32F1_HAL/Drivers/STM32F1xx_HAL_Driver/Src\stm32f1xx_hal_gpio.c **** 
 400:E:/VisualStudioCode/STM32F1_HAL/Drivers/STM32F1xx_HAL_Driver/Src\stm32f1xx_hal_gpio.c ****       tmp = AFIO->EXTICR[position >> 2U];
 401:E:/VisualStudioCode/STM32F1_HAL/Drivers/STM32F1xx_HAL_Driver/Src\stm32f1xx_hal_gpio.c ****       tmp &= 0x0FU << (4U * (position & 0x03U));
 402:E:/VisualStudioCode/STM32F1_HAL/Drivers/STM32F1xx_HAL_Driver/Src\stm32f1xx_hal_gpio.c ****       if (tmp == (GPIO_GET_INDEX(GPIOx) << (4U * (position & 0x03U))))
 452              		.loc 1 402 0
 453 0014 0327     		movs	r7, #3
 454 0016 00E0     		b	.L48
 455              	.L50:
 456 0018 0027     		movs	r7, #0
 457              	.L48:
 458              		.loc 1 402 0 is_stmt 0 discriminator 16
 459 001a 07FA02F2 		lsl	r2, r7, r2
 460 001e B242     		cmp	r2, r6
 461 0020 3ED0     		beq	.L55
 462              	.LVL50:
 463              	.L43:
 403:E:/VisualStudioCode/STM32F1_HAL/Drivers/STM32F1xx_HAL_Driver/Src\stm32f1xx_hal_gpio.c ****       {
 404:E:/VisualStudioCode/STM32F1_HAL/Drivers/STM32F1xx_HAL_Driver/Src\stm32f1xx_hal_gpio.c ****         tmp = 0x0FU << (4U * (position & 0x03U));
 405:E:/VisualStudioCode/STM32F1_HAL/Drivers/STM32F1xx_HAL_Driver/Src\stm32f1xx_hal_gpio.c ****         CLEAR_BIT(AFIO->EXTICR[position >> 2U], tmp);
 406:E:/VisualStudioCode/STM32F1_HAL/Drivers/STM32F1xx_HAL_Driver/Src\stm32f1xx_hal_gpio.c **** 
 407:E:/VisualStudioCode/STM32F1_HAL/Drivers/STM32F1xx_HAL_Driver/Src\stm32f1xx_hal_gpio.c ****         /* Clear EXTI line configuration */
 408:E:/VisualStudioCode/STM32F1_HAL/Drivers/STM32F1xx_HAL_Driver/Src\stm32f1xx_hal_gpio.c ****         CLEAR_BIT(EXTI->IMR, (uint32_t)iocurrent);
 409:E:/VisualStudioCode/STM32F1_HAL/Drivers/STM32F1xx_HAL_Driver/Src\stm32f1xx_hal_gpio.c ****         CLEAR_BIT(EXTI->EMR, (uint32_t)iocurrent);
 410:E:/VisualStudioCode/STM32F1_HAL/Drivers/STM32F1xx_HAL_Driver/Src\stm32f1xx_hal_gpio.c **** 
 411:E:/VisualStudioCode/STM32F1_HAL/Drivers/STM32F1xx_HAL_Driver/Src\stm32f1xx_hal_gpio.c ****         /* Clear Rising Falling edge configuration */
 412:E:/VisualStudioCode/STM32F1_HAL/Drivers/STM32F1xx_HAL_Driver/Src\stm32f1xx_hal_gpio.c ****         CLEAR_BIT(EXTI->RTSR, (uint32_t)iocurrent);
 413:E:/VisualStudioCode/STM32F1_HAL/Drivers/STM32F1xx_HAL_Driver/Src\stm32f1xx_hal_gpio.c ****         CLEAR_BIT(EXTI->FTSR, (uint32_t)iocurrent);
 414:E:/VisualStudioCode/STM32F1_HAL/Drivers/STM32F1xx_HAL_Driver/Src\stm32f1xx_hal_gpio.c ****       }
 415:E:/VisualStudioCode/STM32F1_HAL/Drivers/STM32F1xx_HAL_Driver/Src\stm32f1xx_hal_gpio.c ****     }
 416:E:/VisualStudioCode/STM32F1_HAL/Drivers/STM32F1xx_HAL_Driver/Src\stm32f1xx_hal_gpio.c **** 
 417:E:/VisualStudioCode/STM32F1_HAL/Drivers/STM32F1xx_HAL_Driver/Src\stm32f1xx_hal_gpio.c ****     position++;
 464              		.loc 1 417 0 is_stmt 1
 465 0022 0134     		adds	r4, r4, #1
 466              	.LVL51:
 467              	.L49:
 378:E:/VisualStudioCode/STM32F1_HAL/Drivers/STM32F1xx_HAL_Driver/Src\stm32f1xx_hal_gpio.c ****   {
 468              		.loc 1 378 0
 469 0024 31FA04F3 		lsrs	r3, r1, r4
 470 0028 51D0     		beq	.L41
ARM GAS  C:\Users\ADMINI~1\AppData\Local\Temp\ccXng2ld.s 			page 17


 381:E:/VisualStudioCode/STM32F1_HAL/Drivers/STM32F1xx_HAL_Driver/Src\stm32f1xx_hal_gpio.c **** 
 471              		.loc 1 381 0
 472 002a 0123     		movs	r3, #1
 473 002c A340     		lsls	r3, r3, r4
 474              	.LVL52:
 383:E:/VisualStudioCode/STM32F1_HAL/Drivers/STM32F1xx_HAL_Driver/Src\stm32f1xx_hal_gpio.c ****     {
 475              		.loc 1 383 0
 476 002e 0B40     		ands	r3, r3, r1
 477              	.LVL53:
 478 0030 F7D0     		beq	.L43
 388:E:/VisualStudioCode/STM32F1_HAL/Drivers/STM32F1xx_HAL_Driver/Src\stm32f1xx_hal_gpio.c ****       registeroffset = (iocurrent < GPIO_PIN_8) ? (position << 2U) : ((position - 8U) << 2U);
 479              		.loc 1 388 0
 480 0032 FF2B     		cmp	r3, #255
 481 0034 E7D8     		bhi	.L44
 388:E:/VisualStudioCode/STM32F1_HAL/Drivers/STM32F1xx_HAL_Driver/Src\stm32f1xx_hal_gpio.c ****       registeroffset = (iocurrent < GPIO_PIN_8) ? (position << 2U) : ((position - 8U) << 2U);
 482              		.loc 1 388 0 is_stmt 0 discriminator 1
 483 0036 8446     		mov	ip, r0
 484              	.L45:
 485              	.LVL54:
 389:E:/VisualStudioCode/STM32F1_HAL/Drivers/STM32F1xx_HAL_Driver/Src\stm32f1xx_hal_gpio.c **** 
 486              		.loc 1 389 0 is_stmt 1 discriminator 4
 487 0038 FF2B     		cmp	r3, #255
 488 003a E7D8     		bhi	.L46
 389:E:/VisualStudioCode/STM32F1_HAL/Drivers/STM32F1xx_HAL_Driver/Src\stm32f1xx_hal_gpio.c **** 
 489              		.loc 1 389 0 is_stmt 0 discriminator 1
 490 003c A700     		lsls	r7, r4, #2
 491              	.L47:
 492              	.LVL55:
 392:E:/VisualStudioCode/STM32F1_HAL/Drivers/STM32F1xx_HAL_Driver/Src\stm32f1xx_hal_gpio.c **** 
 493              		.loc 1 392 0 is_stmt 1 discriminator 4
 494 003e DCF80020 		ldr	r2, [ip]
 495 0042 0F25     		movs	r5, #15
 496 0044 05FA07F6 		lsl	r6, r5, r7
 497 0048 22EA0602 		bic	r2, r2, r6
 498 004c 0426     		movs	r6, #4
 499 004e BE40     		lsls	r6, r6, r7
 500 0050 3243     		orrs	r2, r2, r6
 501 0052 CCF80020 		str	r2, [ip]
 395:E:/VisualStudioCode/STM32F1_HAL/Drivers/STM32F1xx_HAL_Driver/Src\stm32f1xx_hal_gpio.c **** 
 502              		.loc 1 395 0 discriminator 4
 503 0056 C268     		ldr	r2, [r0, #12]
 504 0058 DB43     		mvns	r3, r3
 505              	.LVL56:
 506 005a 1A40     		ands	r2, r2, r3
 507 005c C260     		str	r2, [r0, #12]
 400:E:/VisualStudioCode/STM32F1_HAL/Drivers/STM32F1xx_HAL_Driver/Src\stm32f1xx_hal_gpio.c ****       tmp &= 0x0FU << (4U * (position & 0x03U));
 508              		.loc 1 400 0 discriminator 4
 509 005e 4FEA940C 		lsr	ip, r4, #2
 510              	.LVL57:
 511 0062 0CF10206 		add	r6, ip, #2
 512 0066 1B4A     		ldr	r2, .L57
 513 0068 52F82660 		ldr	r6, [r2, r6, lsl #2]
 514              	.LVL58:
 401:E:/VisualStudioCode/STM32F1_HAL/Drivers/STM32F1xx_HAL_Driver/Src\stm32f1xx_hal_gpio.c ****       if (tmp == (GPIO_GET_INDEX(GPIOx) << (4U * (position & 0x03U))))
 515              		.loc 1 401 0 discriminator 4
 516 006c 04F00302 		and	r2, r4, #3
 517 0070 9200     		lsls	r2, r2, #2
ARM GAS  C:\Users\ADMINI~1\AppData\Local\Temp\ccXng2ld.s 			page 18


 518 0072 9540     		lsls	r5, r5, r2
 519 0074 2E40     		ands	r6, r6, r5
 520              	.LVL59:
 402:E:/VisualStudioCode/STM32F1_HAL/Drivers/STM32F1xx_HAL_Driver/Src\stm32f1xx_hal_gpio.c ****       {
 521              		.loc 1 402 0 discriminator 4
 522 0076 184F     		ldr	r7, .L57+4
 523              	.LVL60:
 524 0078 B842     		cmp	r0, r7
 525 007a CDD0     		beq	.L50
 402:E:/VisualStudioCode/STM32F1_HAL/Drivers/STM32F1xx_HAL_Driver/Src\stm32f1xx_hal_gpio.c ****       {
 526              		.loc 1 402 0 is_stmt 0 discriminator 1
 527 007c 07F58067 		add	r7, r7, #1024
 528 0080 B842     		cmp	r0, r7
 529 0082 09D0     		beq	.L51
 402:E:/VisualStudioCode/STM32F1_HAL/Drivers/STM32F1xx_HAL_Driver/Src\stm32f1xx_hal_gpio.c ****       {
 530              		.loc 1 402 0 discriminator 3
 531 0084 07F58067 		add	r7, r7, #1024
 532 0088 B842     		cmp	r0, r7
 533 008a 07D0     		beq	.L52
 402:E:/VisualStudioCode/STM32F1_HAL/Drivers/STM32F1xx_HAL_Driver/Src\stm32f1xx_hal_gpio.c ****       {
 534              		.loc 1 402 0 discriminator 5
 535 008c 07F58067 		add	r7, r7, #1024
 536 0090 B842     		cmp	r0, r7
 537 0092 BFD0     		beq	.L56
 402:E:/VisualStudioCode/STM32F1_HAL/Drivers/STM32F1xx_HAL_Driver/Src\stm32f1xx_hal_gpio.c ****       {
 538              		.loc 1 402 0
 539 0094 0427     		movs	r7, #4
 540 0096 C0E7     		b	.L48
 541              	.L51:
 542 0098 0127     		movs	r7, #1
 543 009a BEE7     		b	.L48
 544              	.L52:
 545 009c 0227     		movs	r7, #2
 546 009e BCE7     		b	.L48
 547              	.L55:
 548              	.LVL61:
 405:E:/VisualStudioCode/STM32F1_HAL/Drivers/STM32F1xx_HAL_Driver/Src\stm32f1xx_hal_gpio.c **** 
 549              		.loc 1 405 0 is_stmt 1
 550 00a0 0C4F     		ldr	r7, .L57
 551 00a2 0CF10202 		add	r2, ip, #2
 552 00a6 57F82260 		ldr	r6, [r7, r2, lsl #2]
 553 00aa 26EA0505 		bic	r5, r6, r5
 554              	.LVL62:
 555 00ae 47F82250 		str	r5, [r7, r2, lsl #2]
 408:E:/VisualStudioCode/STM32F1_HAL/Drivers/STM32F1xx_HAL_Driver/Src\stm32f1xx_hal_gpio.c ****         CLEAR_BIT(EXTI->EMR, (uint32_t)iocurrent);
 556              		.loc 1 408 0
 557 00b2 0A4A     		ldr	r2, .L57+8
 558 00b4 1568     		ldr	r5, [r2]
 559 00b6 1D40     		ands	r5, r5, r3
 560 00b8 1560     		str	r5, [r2]
 409:E:/VisualStudioCode/STM32F1_HAL/Drivers/STM32F1xx_HAL_Driver/Src\stm32f1xx_hal_gpio.c **** 
 561              		.loc 1 409 0
 562 00ba 5568     		ldr	r5, [r2, #4]
 563 00bc 1D40     		ands	r5, r5, r3
 564 00be 5560     		str	r5, [r2, #4]
 412:E:/VisualStudioCode/STM32F1_HAL/Drivers/STM32F1xx_HAL_Driver/Src\stm32f1xx_hal_gpio.c ****         CLEAR_BIT(EXTI->FTSR, (uint32_t)iocurrent);
 565              		.loc 1 412 0
ARM GAS  C:\Users\ADMINI~1\AppData\Local\Temp\ccXng2ld.s 			page 19


 566 00c0 9568     		ldr	r5, [r2, #8]
 567 00c2 1D40     		ands	r5, r5, r3
 568 00c4 9560     		str	r5, [r2, #8]
 413:E:/VisualStudioCode/STM32F1_HAL/Drivers/STM32F1xx_HAL_Driver/Src\stm32f1xx_hal_gpio.c ****       }
 569              		.loc 1 413 0
 570 00c6 D568     		ldr	r5, [r2, #12]
 571 00c8 2B40     		ands	r3, r3, r5
 572              	.LVL63:
 573 00ca D360     		str	r3, [r2, #12]
 574 00cc A9E7     		b	.L43
 575              	.LVL64:
 576              	.L41:
 418:E:/VisualStudioCode/STM32F1_HAL/Drivers/STM32F1xx_HAL_Driver/Src\stm32f1xx_hal_gpio.c ****   }
 419:E:/VisualStudioCode/STM32F1_HAL/Drivers/STM32F1xx_HAL_Driver/Src\stm32f1xx_hal_gpio.c **** }
 577              		.loc 1 419 0
 578 00ce F0BC     		pop	{r4, r5, r6, r7}
 579              	.LCFI5:
 580              		.cfi_restore 7
 581              		.cfi_restore 6
 582              		.cfi_restore 5
 583              		.cfi_restore 4
 584              		.cfi_def_cfa_offset 0
 585              	.LVL65:
 586 00d0 7047     		bx	lr
 587              	.L58:
 588 00d2 00BF     		.align	2
 589              	.L57:
 590 00d4 00000140 		.word	1073807360
 591 00d8 00080140 		.word	1073809408
 592 00dc 00040140 		.word	1073808384
 593              		.cfi_endproc
 594              	.LFE65:
 595              		.cantunwind
 596              		.fnend
 598              		.section	.text.HAL_GPIO_ReadPin,"ax",%progbits
 599              		.align	1
 600              		.global	HAL_GPIO_ReadPin
 601              		.syntax unified
 602              		.thumb
 603              		.thumb_func
 604              		.fpu softvfp
 606              	HAL_GPIO_ReadPin:
 607              		.fnstart
 608              	.LFB66:
 420:E:/VisualStudioCode/STM32F1_HAL/Drivers/STM32F1xx_HAL_Driver/Src\stm32f1xx_hal_gpio.c **** 
 421:E:/VisualStudioCode/STM32F1_HAL/Drivers/STM32F1xx_HAL_Driver/Src\stm32f1xx_hal_gpio.c **** /**
 422:E:/VisualStudioCode/STM32F1_HAL/Drivers/STM32F1xx_HAL_Driver/Src\stm32f1xx_hal_gpio.c ****   * @}
 423:E:/VisualStudioCode/STM32F1_HAL/Drivers/STM32F1xx_HAL_Driver/Src\stm32f1xx_hal_gpio.c ****   */
 424:E:/VisualStudioCode/STM32F1_HAL/Drivers/STM32F1xx_HAL_Driver/Src\stm32f1xx_hal_gpio.c **** 
 425:E:/VisualStudioCode/STM32F1_HAL/Drivers/STM32F1xx_HAL_Driver/Src\stm32f1xx_hal_gpio.c **** /** @defgroup GPIO_Exported_Functions_Group2 IO operation functions
 426:E:/VisualStudioCode/STM32F1_HAL/Drivers/STM32F1xx_HAL_Driver/Src\stm32f1xx_hal_gpio.c ****  *  @brief   GPIO Read and Write
 427:E:/VisualStudioCode/STM32F1_HAL/Drivers/STM32F1xx_HAL_Driver/Src\stm32f1xx_hal_gpio.c ****  *
 428:E:/VisualStudioCode/STM32F1_HAL/Drivers/STM32F1xx_HAL_Driver/Src\stm32f1xx_hal_gpio.c **** @verbatim
 429:E:/VisualStudioCode/STM32F1_HAL/Drivers/STM32F1xx_HAL_Driver/Src\stm32f1xx_hal_gpio.c ****  ===============================================================================
 430:E:/VisualStudioCode/STM32F1_HAL/Drivers/STM32F1xx_HAL_Driver/Src\stm32f1xx_hal_gpio.c ****                        ##### IO operation functions #####
 431:E:/VisualStudioCode/STM32F1_HAL/Drivers/STM32F1xx_HAL_Driver/Src\stm32f1xx_hal_gpio.c ****  ===============================================================================
 432:E:/VisualStudioCode/STM32F1_HAL/Drivers/STM32F1xx_HAL_Driver/Src\stm32f1xx_hal_gpio.c ****   [..]
ARM GAS  C:\Users\ADMINI~1\AppData\Local\Temp\ccXng2ld.s 			page 20


 433:E:/VisualStudioCode/STM32F1_HAL/Drivers/STM32F1xx_HAL_Driver/Src\stm32f1xx_hal_gpio.c ****     This subsection provides a set of functions allowing to manage the GPIOs.
 434:E:/VisualStudioCode/STM32F1_HAL/Drivers/STM32F1xx_HAL_Driver/Src\stm32f1xx_hal_gpio.c **** 
 435:E:/VisualStudioCode/STM32F1_HAL/Drivers/STM32F1xx_HAL_Driver/Src\stm32f1xx_hal_gpio.c **** @endverbatim
 436:E:/VisualStudioCode/STM32F1_HAL/Drivers/STM32F1xx_HAL_Driver/Src\stm32f1xx_hal_gpio.c ****   * @{
 437:E:/VisualStudioCode/STM32F1_HAL/Drivers/STM32F1xx_HAL_Driver/Src\stm32f1xx_hal_gpio.c ****   */
 438:E:/VisualStudioCode/STM32F1_HAL/Drivers/STM32F1xx_HAL_Driver/Src\stm32f1xx_hal_gpio.c **** 
 439:E:/VisualStudioCode/STM32F1_HAL/Drivers/STM32F1xx_HAL_Driver/Src\stm32f1xx_hal_gpio.c **** /**
 440:E:/VisualStudioCode/STM32F1_HAL/Drivers/STM32F1xx_HAL_Driver/Src\stm32f1xx_hal_gpio.c ****   * @brief  Reads the specified input port pin.
 441:E:/VisualStudioCode/STM32F1_HAL/Drivers/STM32F1xx_HAL_Driver/Src\stm32f1xx_hal_gpio.c ****   * @param  GPIOx: where x can be (A..G depending on device used) to select the GPIO peripheral
 442:E:/VisualStudioCode/STM32F1_HAL/Drivers/STM32F1xx_HAL_Driver/Src\stm32f1xx_hal_gpio.c ****   * @param  GPIO_Pin: specifies the port bit to read.
 443:E:/VisualStudioCode/STM32F1_HAL/Drivers/STM32F1xx_HAL_Driver/Src\stm32f1xx_hal_gpio.c ****   *         This parameter can be GPIO_PIN_x where x can be (0..15).
 444:E:/VisualStudioCode/STM32F1_HAL/Drivers/STM32F1xx_HAL_Driver/Src\stm32f1xx_hal_gpio.c ****   * @retval The input port pin value.
 445:E:/VisualStudioCode/STM32F1_HAL/Drivers/STM32F1xx_HAL_Driver/Src\stm32f1xx_hal_gpio.c ****   */
 446:E:/VisualStudioCode/STM32F1_HAL/Drivers/STM32F1xx_HAL_Driver/Src\stm32f1xx_hal_gpio.c **** GPIO_PinState HAL_GPIO_ReadPin(GPIO_TypeDef *GPIOx, uint16_t GPIO_Pin)
 447:E:/VisualStudioCode/STM32F1_HAL/Drivers/STM32F1xx_HAL_Driver/Src\stm32f1xx_hal_gpio.c **** {
 609              		.loc 1 447 0
 610              		.cfi_startproc
 611              		@ args = 0, pretend = 0, frame = 0
 612              		@ frame_needed = 0, uses_anonymous_args = 0
 613              		@ link register save eliminated.
 614              	.LVL66:
 448:E:/VisualStudioCode/STM32F1_HAL/Drivers/STM32F1xx_HAL_Driver/Src\stm32f1xx_hal_gpio.c ****   GPIO_PinState bitstatus;
 449:E:/VisualStudioCode/STM32F1_HAL/Drivers/STM32F1xx_HAL_Driver/Src\stm32f1xx_hal_gpio.c **** 
 450:E:/VisualStudioCode/STM32F1_HAL/Drivers/STM32F1xx_HAL_Driver/Src\stm32f1xx_hal_gpio.c ****   /* Check the parameters */
 451:E:/VisualStudioCode/STM32F1_HAL/Drivers/STM32F1xx_HAL_Driver/Src\stm32f1xx_hal_gpio.c ****   assert_param(IS_GPIO_PIN(GPIO_Pin));
 452:E:/VisualStudioCode/STM32F1_HAL/Drivers/STM32F1xx_HAL_Driver/Src\stm32f1xx_hal_gpio.c **** 
 453:E:/VisualStudioCode/STM32F1_HAL/Drivers/STM32F1xx_HAL_Driver/Src\stm32f1xx_hal_gpio.c ****   if ((GPIOx->IDR & GPIO_Pin) != (uint32_t)GPIO_PIN_RESET)
 615              		.loc 1 453 0
 616 0000 8368     		ldr	r3, [r0, #8]
 617 0002 1942     		tst	r1, r3
 618 0004 01D1     		bne	.L62
 454:E:/VisualStudioCode/STM32F1_HAL/Drivers/STM32F1xx_HAL_Driver/Src\stm32f1xx_hal_gpio.c ****   {
 455:E:/VisualStudioCode/STM32F1_HAL/Drivers/STM32F1xx_HAL_Driver/Src\stm32f1xx_hal_gpio.c ****     bitstatus = GPIO_PIN_SET;
 456:E:/VisualStudioCode/STM32F1_HAL/Drivers/STM32F1xx_HAL_Driver/Src\stm32f1xx_hal_gpio.c ****   }
 457:E:/VisualStudioCode/STM32F1_HAL/Drivers/STM32F1xx_HAL_Driver/Src\stm32f1xx_hal_gpio.c ****   else
 458:E:/VisualStudioCode/STM32F1_HAL/Drivers/STM32F1xx_HAL_Driver/Src\stm32f1xx_hal_gpio.c ****   {
 459:E:/VisualStudioCode/STM32F1_HAL/Drivers/STM32F1xx_HAL_Driver/Src\stm32f1xx_hal_gpio.c ****     bitstatus = GPIO_PIN_RESET;
 619              		.loc 1 459 0
 620 0006 0020     		movs	r0, #0
 621              	.LVL67:
 460:E:/VisualStudioCode/STM32F1_HAL/Drivers/STM32F1xx_HAL_Driver/Src\stm32f1xx_hal_gpio.c ****   }
 461:E:/VisualStudioCode/STM32F1_HAL/Drivers/STM32F1xx_HAL_Driver/Src\stm32f1xx_hal_gpio.c ****   return bitstatus;
 462:E:/VisualStudioCode/STM32F1_HAL/Drivers/STM32F1xx_HAL_Driver/Src\stm32f1xx_hal_gpio.c **** }
 622              		.loc 1 462 0
 623 0008 7047     		bx	lr
 624              	.LVL68:
 625              	.L62:
 455:E:/VisualStudioCode/STM32F1_HAL/Drivers/STM32F1xx_HAL_Driver/Src\stm32f1xx_hal_gpio.c ****   }
 626              		.loc 1 455 0
 627 000a 0120     		movs	r0, #1
 628              	.LVL69:
 629 000c 7047     		bx	lr
 630              		.cfi_endproc
 631              	.LFE66:
 632              		.cantunwind
 633              		.fnend
 635              		.section	.text.HAL_GPIO_WritePin,"ax",%progbits
ARM GAS  C:\Users\ADMINI~1\AppData\Local\Temp\ccXng2ld.s 			page 21


 636              		.align	1
 637              		.global	HAL_GPIO_WritePin
 638              		.syntax unified
 639              		.thumb
 640              		.thumb_func
 641              		.fpu softvfp
 643              	HAL_GPIO_WritePin:
 644              		.fnstart
 645              	.LFB67:
 463:E:/VisualStudioCode/STM32F1_HAL/Drivers/STM32F1xx_HAL_Driver/Src\stm32f1xx_hal_gpio.c **** 
 464:E:/VisualStudioCode/STM32F1_HAL/Drivers/STM32F1xx_HAL_Driver/Src\stm32f1xx_hal_gpio.c **** /**
 465:E:/VisualStudioCode/STM32F1_HAL/Drivers/STM32F1xx_HAL_Driver/Src\stm32f1xx_hal_gpio.c ****   * @brief  Sets or clears the selected data port bit.
 466:E:/VisualStudioCode/STM32F1_HAL/Drivers/STM32F1xx_HAL_Driver/Src\stm32f1xx_hal_gpio.c ****   *
 467:E:/VisualStudioCode/STM32F1_HAL/Drivers/STM32F1xx_HAL_Driver/Src\stm32f1xx_hal_gpio.c ****   * @note   This function uses GPIOx_BSRR register to allow atomic read/modify
 468:E:/VisualStudioCode/STM32F1_HAL/Drivers/STM32F1xx_HAL_Driver/Src\stm32f1xx_hal_gpio.c ****   *         accesses. In this way, there is no risk of an IRQ occurring between
 469:E:/VisualStudioCode/STM32F1_HAL/Drivers/STM32F1xx_HAL_Driver/Src\stm32f1xx_hal_gpio.c ****   *         the read and the modify access.
 470:E:/VisualStudioCode/STM32F1_HAL/Drivers/STM32F1xx_HAL_Driver/Src\stm32f1xx_hal_gpio.c ****   *
 471:E:/VisualStudioCode/STM32F1_HAL/Drivers/STM32F1xx_HAL_Driver/Src\stm32f1xx_hal_gpio.c ****   * @param  GPIOx: where x can be (A..G depending on device used) to select the GPIO peripheral
 472:E:/VisualStudioCode/STM32F1_HAL/Drivers/STM32F1xx_HAL_Driver/Src\stm32f1xx_hal_gpio.c ****   * @param  GPIO_Pin: specifies the port bit to be written.
 473:E:/VisualStudioCode/STM32F1_HAL/Drivers/STM32F1xx_HAL_Driver/Src\stm32f1xx_hal_gpio.c ****   *          This parameter can be one of GPIO_PIN_x where x can be (0..15).
 474:E:/VisualStudioCode/STM32F1_HAL/Drivers/STM32F1xx_HAL_Driver/Src\stm32f1xx_hal_gpio.c ****   * @param  PinState: specifies the value to be written to the selected bit.
 475:E:/VisualStudioCode/STM32F1_HAL/Drivers/STM32F1xx_HAL_Driver/Src\stm32f1xx_hal_gpio.c ****   *          This parameter can be one of the GPIO_PinState enum values:
 476:E:/VisualStudioCode/STM32F1_HAL/Drivers/STM32F1xx_HAL_Driver/Src\stm32f1xx_hal_gpio.c ****   *            @arg GPIO_PIN_RESET: to clear the port pin
 477:E:/VisualStudioCode/STM32F1_HAL/Drivers/STM32F1xx_HAL_Driver/Src\stm32f1xx_hal_gpio.c ****   *            @arg GPIO_PIN_SET: to set the port pin
 478:E:/VisualStudioCode/STM32F1_HAL/Drivers/STM32F1xx_HAL_Driver/Src\stm32f1xx_hal_gpio.c ****   * @retval None
 479:E:/VisualStudioCode/STM32F1_HAL/Drivers/STM32F1xx_HAL_Driver/Src\stm32f1xx_hal_gpio.c ****   */
 480:E:/VisualStudioCode/STM32F1_HAL/Drivers/STM32F1xx_HAL_Driver/Src\stm32f1xx_hal_gpio.c **** void HAL_GPIO_WritePin(GPIO_TypeDef *GPIOx, uint16_t GPIO_Pin, GPIO_PinState PinState)
 481:E:/VisualStudioCode/STM32F1_HAL/Drivers/STM32F1xx_HAL_Driver/Src\stm32f1xx_hal_gpio.c **** {
 646              		.loc 1 481 0
 647              		.cfi_startproc
 648              		@ args = 0, pretend = 0, frame = 0
 649              		@ frame_needed = 0, uses_anonymous_args = 0
 650              		@ link register save eliminated.
 651              	.LVL70:
 482:E:/VisualStudioCode/STM32F1_HAL/Drivers/STM32F1xx_HAL_Driver/Src\stm32f1xx_hal_gpio.c ****   /* Check the parameters */
 483:E:/VisualStudioCode/STM32F1_HAL/Drivers/STM32F1xx_HAL_Driver/Src\stm32f1xx_hal_gpio.c ****   assert_param(IS_GPIO_PIN(GPIO_Pin));
 484:E:/VisualStudioCode/STM32F1_HAL/Drivers/STM32F1xx_HAL_Driver/Src\stm32f1xx_hal_gpio.c ****   assert_param(IS_GPIO_PIN_ACTION(PinState));
 485:E:/VisualStudioCode/STM32F1_HAL/Drivers/STM32F1xx_HAL_Driver/Src\stm32f1xx_hal_gpio.c **** 
 486:E:/VisualStudioCode/STM32F1_HAL/Drivers/STM32F1xx_HAL_Driver/Src\stm32f1xx_hal_gpio.c ****   if (PinState != GPIO_PIN_RESET)
 652              		.loc 1 486 0
 653 0000 12B9     		cbnz	r2, .L66
 487:E:/VisualStudioCode/STM32F1_HAL/Drivers/STM32F1xx_HAL_Driver/Src\stm32f1xx_hal_gpio.c ****   {
 488:E:/VisualStudioCode/STM32F1_HAL/Drivers/STM32F1xx_HAL_Driver/Src\stm32f1xx_hal_gpio.c ****     GPIOx->BSRR = GPIO_Pin;
 489:E:/VisualStudioCode/STM32F1_HAL/Drivers/STM32F1xx_HAL_Driver/Src\stm32f1xx_hal_gpio.c ****   }
 490:E:/VisualStudioCode/STM32F1_HAL/Drivers/STM32F1xx_HAL_Driver/Src\stm32f1xx_hal_gpio.c ****   else
 491:E:/VisualStudioCode/STM32F1_HAL/Drivers/STM32F1xx_HAL_Driver/Src\stm32f1xx_hal_gpio.c ****   {
 492:E:/VisualStudioCode/STM32F1_HAL/Drivers/STM32F1xx_HAL_Driver/Src\stm32f1xx_hal_gpio.c ****     GPIOx->BSRR = (uint32_t)GPIO_Pin << 16U;
 654              		.loc 1 492 0
 655 0002 0904     		lsls	r1, r1, #16
 656              	.LVL71:
 657 0004 0161     		str	r1, [r0, #16]
 493:E:/VisualStudioCode/STM32F1_HAL/Drivers/STM32F1xx_HAL_Driver/Src\stm32f1xx_hal_gpio.c ****   }
 494:E:/VisualStudioCode/STM32F1_HAL/Drivers/STM32F1xx_HAL_Driver/Src\stm32f1xx_hal_gpio.c **** }
 658              		.loc 1 494 0
 659 0006 7047     		bx	lr
 660              	.LVL72:
 661              	.L66:
ARM GAS  C:\Users\ADMINI~1\AppData\Local\Temp\ccXng2ld.s 			page 22


 488:E:/VisualStudioCode/STM32F1_HAL/Drivers/STM32F1xx_HAL_Driver/Src\stm32f1xx_hal_gpio.c ****   }
 662              		.loc 1 488 0
 663 0008 0161     		str	r1, [r0, #16]
 664 000a 7047     		bx	lr
 665              		.cfi_endproc
 666              	.LFE67:
 667              		.cantunwind
 668              		.fnend
 670              		.section	.text.HAL_GPIO_TogglePin,"ax",%progbits
 671              		.align	1
 672              		.global	HAL_GPIO_TogglePin
 673              		.syntax unified
 674              		.thumb
 675              		.thumb_func
 676              		.fpu softvfp
 678              	HAL_GPIO_TogglePin:
 679              		.fnstart
 680              	.LFB68:
 495:E:/VisualStudioCode/STM32F1_HAL/Drivers/STM32F1xx_HAL_Driver/Src\stm32f1xx_hal_gpio.c **** 
 496:E:/VisualStudioCode/STM32F1_HAL/Drivers/STM32F1xx_HAL_Driver/Src\stm32f1xx_hal_gpio.c **** /**
 497:E:/VisualStudioCode/STM32F1_HAL/Drivers/STM32F1xx_HAL_Driver/Src\stm32f1xx_hal_gpio.c ****   * @brief  Toggles the specified GPIO pin
 498:E:/VisualStudioCode/STM32F1_HAL/Drivers/STM32F1xx_HAL_Driver/Src\stm32f1xx_hal_gpio.c ****   * @param  GPIOx: where x can be (A..G depending on device used) to select the GPIO peripheral
 499:E:/VisualStudioCode/STM32F1_HAL/Drivers/STM32F1xx_HAL_Driver/Src\stm32f1xx_hal_gpio.c ****   * @param  GPIO_Pin: Specifies the pins to be toggled.
 500:E:/VisualStudioCode/STM32F1_HAL/Drivers/STM32F1xx_HAL_Driver/Src\stm32f1xx_hal_gpio.c ****   * @retval None
 501:E:/VisualStudioCode/STM32F1_HAL/Drivers/STM32F1xx_HAL_Driver/Src\stm32f1xx_hal_gpio.c ****   */
 502:E:/VisualStudioCode/STM32F1_HAL/Drivers/STM32F1xx_HAL_Driver/Src\stm32f1xx_hal_gpio.c **** void HAL_GPIO_TogglePin(GPIO_TypeDef *GPIOx, uint16_t GPIO_Pin)
 503:E:/VisualStudioCode/STM32F1_HAL/Drivers/STM32F1xx_HAL_Driver/Src\stm32f1xx_hal_gpio.c **** {
 681              		.loc 1 503 0
 682              		.cfi_startproc
 683              		@ args = 0, pretend = 0, frame = 0
 684              		@ frame_needed = 0, uses_anonymous_args = 0
 685              		@ link register save eliminated.
 686              	.LVL73:
 504:E:/VisualStudioCode/STM32F1_HAL/Drivers/STM32F1xx_HAL_Driver/Src\stm32f1xx_hal_gpio.c ****   /* Check the parameters */
 505:E:/VisualStudioCode/STM32F1_HAL/Drivers/STM32F1xx_HAL_Driver/Src\stm32f1xx_hal_gpio.c ****   assert_param(IS_GPIO_PIN(GPIO_Pin));
 506:E:/VisualStudioCode/STM32F1_HAL/Drivers/STM32F1xx_HAL_Driver/Src\stm32f1xx_hal_gpio.c **** 
 507:E:/VisualStudioCode/STM32F1_HAL/Drivers/STM32F1xx_HAL_Driver/Src\stm32f1xx_hal_gpio.c ****   GPIOx->ODR ^= GPIO_Pin;
 687              		.loc 1 507 0
 688 0000 C368     		ldr	r3, [r0, #12]
 689 0002 5940     		eors	r1, r1, r3
 690              	.LVL74:
 691 0004 C160     		str	r1, [r0, #12]
 508:E:/VisualStudioCode/STM32F1_HAL/Drivers/STM32F1xx_HAL_Driver/Src\stm32f1xx_hal_gpio.c **** }
 692              		.loc 1 508 0
 693 0006 7047     		bx	lr
 694              		.cfi_endproc
 695              	.LFE68:
 696              		.cantunwind
 697              		.fnend
 699              		.section	.text.HAL_GPIO_LockPin,"ax",%progbits
 700              		.align	1
 701              		.global	HAL_GPIO_LockPin
 702              		.syntax unified
 703              		.thumb
 704              		.thumb_func
 705              		.fpu softvfp
 707              	HAL_GPIO_LockPin:
ARM GAS  C:\Users\ADMINI~1\AppData\Local\Temp\ccXng2ld.s 			page 23


 708              		.fnstart
 709              	.LFB69:
 509:E:/VisualStudioCode/STM32F1_HAL/Drivers/STM32F1xx_HAL_Driver/Src\stm32f1xx_hal_gpio.c **** 
 510:E:/VisualStudioCode/STM32F1_HAL/Drivers/STM32F1xx_HAL_Driver/Src\stm32f1xx_hal_gpio.c **** /**
 511:E:/VisualStudioCode/STM32F1_HAL/Drivers/STM32F1xx_HAL_Driver/Src\stm32f1xx_hal_gpio.c **** * @brief  Locks GPIO Pins configuration registers.
 512:E:/VisualStudioCode/STM32F1_HAL/Drivers/STM32F1xx_HAL_Driver/Src\stm32f1xx_hal_gpio.c **** * @note   The locking mechanism allows the IO configuration to be frozen. When the LOCK sequence
 513:E:/VisualStudioCode/STM32F1_HAL/Drivers/STM32F1xx_HAL_Driver/Src\stm32f1xx_hal_gpio.c **** *         has been applied on a port bit, it is no longer possible to modify the value of the port 
 514:E:/VisualStudioCode/STM32F1_HAL/Drivers/STM32F1xx_HAL_Driver/Src\stm32f1xx_hal_gpio.c **** *         the next reset.
 515:E:/VisualStudioCode/STM32F1_HAL/Drivers/STM32F1xx_HAL_Driver/Src\stm32f1xx_hal_gpio.c **** * @param  GPIOx: where x can be (A..G depending on device used) to select the GPIO peripheral
 516:E:/VisualStudioCode/STM32F1_HAL/Drivers/STM32F1xx_HAL_Driver/Src\stm32f1xx_hal_gpio.c **** * @param  GPIO_Pin: specifies the port bit to be locked.
 517:E:/VisualStudioCode/STM32F1_HAL/Drivers/STM32F1xx_HAL_Driver/Src\stm32f1xx_hal_gpio.c **** *         This parameter can be any combination of GPIO_Pin_x where x can be (0..15).
 518:E:/VisualStudioCode/STM32F1_HAL/Drivers/STM32F1xx_HAL_Driver/Src\stm32f1xx_hal_gpio.c **** * @retval None
 519:E:/VisualStudioCode/STM32F1_HAL/Drivers/STM32F1xx_HAL_Driver/Src\stm32f1xx_hal_gpio.c **** */
 520:E:/VisualStudioCode/STM32F1_HAL/Drivers/STM32F1xx_HAL_Driver/Src\stm32f1xx_hal_gpio.c **** HAL_StatusTypeDef HAL_GPIO_LockPin(GPIO_TypeDef *GPIOx, uint16_t GPIO_Pin)
 521:E:/VisualStudioCode/STM32F1_HAL/Drivers/STM32F1xx_HAL_Driver/Src\stm32f1xx_hal_gpio.c **** {
 710              		.loc 1 521 0
 711              		.cfi_startproc
 712              		@ args = 0, pretend = 0, frame = 8
 713              		@ frame_needed = 0, uses_anonymous_args = 0
 714              		@ link register save eliminated.
 715              	.LVL75:
 716 0000 82B0     		sub	sp, sp, #8
 717              	.LCFI6:
 718              		.cfi_def_cfa_offset 8
 522:E:/VisualStudioCode/STM32F1_HAL/Drivers/STM32F1xx_HAL_Driver/Src\stm32f1xx_hal_gpio.c ****   __IO uint32_t tmp = GPIO_LCKR_LCKK;
 719              		.loc 1 522 0
 720 0002 4FF48033 		mov	r3, #65536
 721 0006 0193     		str	r3, [sp, #4]
 523:E:/VisualStudioCode/STM32F1_HAL/Drivers/STM32F1xx_HAL_Driver/Src\stm32f1xx_hal_gpio.c **** 
 524:E:/VisualStudioCode/STM32F1_HAL/Drivers/STM32F1xx_HAL_Driver/Src\stm32f1xx_hal_gpio.c ****   /* Check the parameters */
 525:E:/VisualStudioCode/STM32F1_HAL/Drivers/STM32F1xx_HAL_Driver/Src\stm32f1xx_hal_gpio.c ****   assert_param(IS_GPIO_LOCK_INSTANCE(GPIOx));
 526:E:/VisualStudioCode/STM32F1_HAL/Drivers/STM32F1xx_HAL_Driver/Src\stm32f1xx_hal_gpio.c ****   assert_param(IS_GPIO_PIN(GPIO_Pin));
 527:E:/VisualStudioCode/STM32F1_HAL/Drivers/STM32F1xx_HAL_Driver/Src\stm32f1xx_hal_gpio.c **** 
 528:E:/VisualStudioCode/STM32F1_HAL/Drivers/STM32F1xx_HAL_Driver/Src\stm32f1xx_hal_gpio.c ****   /* Apply lock key write sequence */
 529:E:/VisualStudioCode/STM32F1_HAL/Drivers/STM32F1xx_HAL_Driver/Src\stm32f1xx_hal_gpio.c ****   SET_BIT(tmp, GPIO_Pin);
 722              		.loc 1 529 0
 723 0008 019B     		ldr	r3, [sp, #4]
 724 000a 0B43     		orrs	r3, r3, r1
 725 000c 0193     		str	r3, [sp, #4]
 530:E:/VisualStudioCode/STM32F1_HAL/Drivers/STM32F1xx_HAL_Driver/Src\stm32f1xx_hal_gpio.c ****   /* Set LCKx bit(s): LCKK='1' + LCK[15-0] */
 531:E:/VisualStudioCode/STM32F1_HAL/Drivers/STM32F1xx_HAL_Driver/Src\stm32f1xx_hal_gpio.c ****   GPIOx->LCKR = tmp;
 726              		.loc 1 531 0
 727 000e 019B     		ldr	r3, [sp, #4]
 728 0010 8361     		str	r3, [r0, #24]
 532:E:/VisualStudioCode/STM32F1_HAL/Drivers/STM32F1xx_HAL_Driver/Src\stm32f1xx_hal_gpio.c ****   /* Reset LCKx bit(s): LCKK='0' + LCK[15-0] */
 533:E:/VisualStudioCode/STM32F1_HAL/Drivers/STM32F1xx_HAL_Driver/Src\stm32f1xx_hal_gpio.c ****   GPIOx->LCKR = GPIO_Pin;
 729              		.loc 1 533 0
 730 0012 8161     		str	r1, [r0, #24]
 534:E:/VisualStudioCode/STM32F1_HAL/Drivers/STM32F1xx_HAL_Driver/Src\stm32f1xx_hal_gpio.c ****   /* Set LCKx bit(s): LCKK='1' + LCK[15-0] */
 535:E:/VisualStudioCode/STM32F1_HAL/Drivers/STM32F1xx_HAL_Driver/Src\stm32f1xx_hal_gpio.c ****   GPIOx->LCKR = tmp;
 731              		.loc 1 535 0
 732 0014 019B     		ldr	r3, [sp, #4]
 733 0016 8361     		str	r3, [r0, #24]
 536:E:/VisualStudioCode/STM32F1_HAL/Drivers/STM32F1xx_HAL_Driver/Src\stm32f1xx_hal_gpio.c ****   /* Read LCKK bit*/
 537:E:/VisualStudioCode/STM32F1_HAL/Drivers/STM32F1xx_HAL_Driver/Src\stm32f1xx_hal_gpio.c ****   tmp = GPIOx->LCKR;
 734              		.loc 1 537 0
 735 0018 8369     		ldr	r3, [r0, #24]
ARM GAS  C:\Users\ADMINI~1\AppData\Local\Temp\ccXng2ld.s 			page 24


 736 001a 0193     		str	r3, [sp, #4]
 538:E:/VisualStudioCode/STM32F1_HAL/Drivers/STM32F1xx_HAL_Driver/Src\stm32f1xx_hal_gpio.c **** 
 539:E:/VisualStudioCode/STM32F1_HAL/Drivers/STM32F1xx_HAL_Driver/Src\stm32f1xx_hal_gpio.c ****   if ((uint32_t)(GPIOx->LCKR & GPIO_LCKR_LCKK))
 737              		.loc 1 539 0
 738 001c 8369     		ldr	r3, [r0, #24]
 739 001e 13F4803F 		tst	r3, #65536
 740 0022 02D1     		bne	.L72
 540:E:/VisualStudioCode/STM32F1_HAL/Drivers/STM32F1xx_HAL_Driver/Src\stm32f1xx_hal_gpio.c ****   {
 541:E:/VisualStudioCode/STM32F1_HAL/Drivers/STM32F1xx_HAL_Driver/Src\stm32f1xx_hal_gpio.c ****     return HAL_OK;
 542:E:/VisualStudioCode/STM32F1_HAL/Drivers/STM32F1xx_HAL_Driver/Src\stm32f1xx_hal_gpio.c ****   }
 543:E:/VisualStudioCode/STM32F1_HAL/Drivers/STM32F1xx_HAL_Driver/Src\stm32f1xx_hal_gpio.c ****   else
 544:E:/VisualStudioCode/STM32F1_HAL/Drivers/STM32F1xx_HAL_Driver/Src\stm32f1xx_hal_gpio.c ****   {
 545:E:/VisualStudioCode/STM32F1_HAL/Drivers/STM32F1xx_HAL_Driver/Src\stm32f1xx_hal_gpio.c ****     return HAL_ERROR;
 741              		.loc 1 545 0
 742 0024 0120     		movs	r0, #1
 743              	.LVL76:
 744              	.L69:
 546:E:/VisualStudioCode/STM32F1_HAL/Drivers/STM32F1xx_HAL_Driver/Src\stm32f1xx_hal_gpio.c ****   }
 547:E:/VisualStudioCode/STM32F1_HAL/Drivers/STM32F1xx_HAL_Driver/Src\stm32f1xx_hal_gpio.c **** }
 745              		.loc 1 547 0
 746 0026 02B0     		add	sp, sp, #8
 747              	.LCFI7:
 748              		.cfi_remember_state
 749              		.cfi_def_cfa_offset 0
 750              		@ sp needed
 751 0028 7047     		bx	lr
 752              	.LVL77:
 753              	.L72:
 754              	.LCFI8:
 755              		.cfi_restore_state
 541:E:/VisualStudioCode/STM32F1_HAL/Drivers/STM32F1xx_HAL_Driver/Src\stm32f1xx_hal_gpio.c ****   }
 756              		.loc 1 541 0
 757 002a 0020     		movs	r0, #0
 758              	.LVL78:
 759 002c FBE7     		b	.L69
 760              		.cfi_endproc
 761              	.LFE69:
 762              		.cantunwind
 763              		.fnend
 765              		.section	.text.HAL_GPIO_EXTI_Callback,"ax",%progbits
 766              		.align	1
 767              		.weak	HAL_GPIO_EXTI_Callback
 768              		.syntax unified
 769              		.thumb
 770              		.thumb_func
 771              		.fpu softvfp
 773              	HAL_GPIO_EXTI_Callback:
 774              		.fnstart
 775              	.LFB71:
 548:E:/VisualStudioCode/STM32F1_HAL/Drivers/STM32F1xx_HAL_Driver/Src\stm32f1xx_hal_gpio.c **** 
 549:E:/VisualStudioCode/STM32F1_HAL/Drivers/STM32F1xx_HAL_Driver/Src\stm32f1xx_hal_gpio.c **** /**
 550:E:/VisualStudioCode/STM32F1_HAL/Drivers/STM32F1xx_HAL_Driver/Src\stm32f1xx_hal_gpio.c ****   * @brief  This function handles EXTI interrupt request.
 551:E:/VisualStudioCode/STM32F1_HAL/Drivers/STM32F1xx_HAL_Driver/Src\stm32f1xx_hal_gpio.c ****   * @param  GPIO_Pin: Specifies the pins connected EXTI line
 552:E:/VisualStudioCode/STM32F1_HAL/Drivers/STM32F1xx_HAL_Driver/Src\stm32f1xx_hal_gpio.c ****   * @retval None
 553:E:/VisualStudioCode/STM32F1_HAL/Drivers/STM32F1xx_HAL_Driver/Src\stm32f1xx_hal_gpio.c ****   */
 554:E:/VisualStudioCode/STM32F1_HAL/Drivers/STM32F1xx_HAL_Driver/Src\stm32f1xx_hal_gpio.c **** void HAL_GPIO_EXTI_IRQHandler(uint16_t GPIO_Pin)
 555:E:/VisualStudioCode/STM32F1_HAL/Drivers/STM32F1xx_HAL_Driver/Src\stm32f1xx_hal_gpio.c **** {
ARM GAS  C:\Users\ADMINI~1\AppData\Local\Temp\ccXng2ld.s 			page 25


 556:E:/VisualStudioCode/STM32F1_HAL/Drivers/STM32F1xx_HAL_Driver/Src\stm32f1xx_hal_gpio.c ****   /* EXTI line interrupt detected */
 557:E:/VisualStudioCode/STM32F1_HAL/Drivers/STM32F1xx_HAL_Driver/Src\stm32f1xx_hal_gpio.c ****   if (__HAL_GPIO_EXTI_GET_IT(GPIO_Pin) != RESET)
 558:E:/VisualStudioCode/STM32F1_HAL/Drivers/STM32F1xx_HAL_Driver/Src\stm32f1xx_hal_gpio.c ****   {
 559:E:/VisualStudioCode/STM32F1_HAL/Drivers/STM32F1xx_HAL_Driver/Src\stm32f1xx_hal_gpio.c ****     __HAL_GPIO_EXTI_CLEAR_IT(GPIO_Pin);
 560:E:/VisualStudioCode/STM32F1_HAL/Drivers/STM32F1xx_HAL_Driver/Src\stm32f1xx_hal_gpio.c ****     HAL_GPIO_EXTI_Callback(GPIO_Pin);
 561:E:/VisualStudioCode/STM32F1_HAL/Drivers/STM32F1xx_HAL_Driver/Src\stm32f1xx_hal_gpio.c ****   }
 562:E:/VisualStudioCode/STM32F1_HAL/Drivers/STM32F1xx_HAL_Driver/Src\stm32f1xx_hal_gpio.c **** }
 563:E:/VisualStudioCode/STM32F1_HAL/Drivers/STM32F1xx_HAL_Driver/Src\stm32f1xx_hal_gpio.c **** 
 564:E:/VisualStudioCode/STM32F1_HAL/Drivers/STM32F1xx_HAL_Driver/Src\stm32f1xx_hal_gpio.c **** /**
 565:E:/VisualStudioCode/STM32F1_HAL/Drivers/STM32F1xx_HAL_Driver/Src\stm32f1xx_hal_gpio.c ****   * @brief  EXTI line detection callbacks.
 566:E:/VisualStudioCode/STM32F1_HAL/Drivers/STM32F1xx_HAL_Driver/Src\stm32f1xx_hal_gpio.c ****   * @param  GPIO_Pin: Specifies the pins connected EXTI line
 567:E:/VisualStudioCode/STM32F1_HAL/Drivers/STM32F1xx_HAL_Driver/Src\stm32f1xx_hal_gpio.c ****   * @retval None
 568:E:/VisualStudioCode/STM32F1_HAL/Drivers/STM32F1xx_HAL_Driver/Src\stm32f1xx_hal_gpio.c ****   */
 569:E:/VisualStudioCode/STM32F1_HAL/Drivers/STM32F1xx_HAL_Driver/Src\stm32f1xx_hal_gpio.c **** __weak void HAL_GPIO_EXTI_Callback(uint16_t GPIO_Pin)
 570:E:/VisualStudioCode/STM32F1_HAL/Drivers/STM32F1xx_HAL_Driver/Src\stm32f1xx_hal_gpio.c **** {
 776              		.loc 1 570 0
 777              		.cfi_startproc
 778              		@ args = 0, pretend = 0, frame = 0
 779              		@ frame_needed = 0, uses_anonymous_args = 0
 780              		@ link register save eliminated.
 781              	.LVL79:
 571:E:/VisualStudioCode/STM32F1_HAL/Drivers/STM32F1xx_HAL_Driver/Src\stm32f1xx_hal_gpio.c ****   /* Prevent unused argument(s) compilation warning */
 572:E:/VisualStudioCode/STM32F1_HAL/Drivers/STM32F1xx_HAL_Driver/Src\stm32f1xx_hal_gpio.c ****   UNUSED(GPIO_Pin);
 573:E:/VisualStudioCode/STM32F1_HAL/Drivers/STM32F1xx_HAL_Driver/Src\stm32f1xx_hal_gpio.c ****   /* NOTE: This function Should not be modified, when the callback is needed,
 574:E:/VisualStudioCode/STM32F1_HAL/Drivers/STM32F1xx_HAL_Driver/Src\stm32f1xx_hal_gpio.c ****            the HAL_GPIO_EXTI_Callback could be implemented in the user file
 575:E:/VisualStudioCode/STM32F1_HAL/Drivers/STM32F1xx_HAL_Driver/Src\stm32f1xx_hal_gpio.c ****    */
 576:E:/VisualStudioCode/STM32F1_HAL/Drivers/STM32F1xx_HAL_Driver/Src\stm32f1xx_hal_gpio.c **** }
 782              		.loc 1 576 0
 783 0000 7047     		bx	lr
 784              		.cfi_endproc
 785              	.LFE71:
 786              		.cantunwind
 787              		.fnend
 789              		.section	.text.HAL_GPIO_EXTI_IRQHandler,"ax",%progbits
 790              		.align	1
 791              		.global	HAL_GPIO_EXTI_IRQHandler
 792              		.syntax unified
 793              		.thumb
 794              		.thumb_func
 795              		.fpu softvfp
 797              	HAL_GPIO_EXTI_IRQHandler:
 798              		.fnstart
 799              	.LFB70:
 555:E:/VisualStudioCode/STM32F1_HAL/Drivers/STM32F1xx_HAL_Driver/Src\stm32f1xx_hal_gpio.c ****   /* EXTI line interrupt detected */
 800              		.loc 1 555 0
 801              		.cfi_startproc
 802              		@ args = 0, pretend = 0, frame = 0
 803              		@ frame_needed = 0, uses_anonymous_args = 0
 804              	.LVL80:
 805 0000 08B5     		push	{r3, lr}
 806              		.save {r3, lr}
 807              	.LCFI9:
 808              		.cfi_def_cfa_offset 8
 809              		.cfi_offset 3, -8
 810              		.cfi_offset 14, -4
 557:E:/VisualStudioCode/STM32F1_HAL/Drivers/STM32F1xx_HAL_Driver/Src\stm32f1xx_hal_gpio.c ****   {
 811              		.loc 1 557 0
ARM GAS  C:\Users\ADMINI~1\AppData\Local\Temp\ccXng2ld.s 			page 26


 812 0002 054B     		ldr	r3, .L78
 813 0004 5B69     		ldr	r3, [r3, #20]
 814 0006 0342     		tst	r3, r0
 815 0008 00D1     		bne	.L77
 816              	.LVL81:
 817              	.L74:
 562:E:/VisualStudioCode/STM32F1_HAL/Drivers/STM32F1xx_HAL_Driver/Src\stm32f1xx_hal_gpio.c **** 
 818              		.loc 1 562 0
 819 000a 08BD     		pop	{r3, pc}
 820              	.LVL82:
 821              	.L77:
 559:E:/VisualStudioCode/STM32F1_HAL/Drivers/STM32F1xx_HAL_Driver/Src\stm32f1xx_hal_gpio.c ****     HAL_GPIO_EXTI_Callback(GPIO_Pin);
 822              		.loc 1 559 0
 823 000c 024B     		ldr	r3, .L78
 824 000e 5861     		str	r0, [r3, #20]
 560:E:/VisualStudioCode/STM32F1_HAL/Drivers/STM32F1xx_HAL_Driver/Src\stm32f1xx_hal_gpio.c ****   }
 825              		.loc 1 560 0
 826 0010 FFF7FEFF 		bl	HAL_GPIO_EXTI_Callback
 827              	.LVL83:
 562:E:/VisualStudioCode/STM32F1_HAL/Drivers/STM32F1xx_HAL_Driver/Src\stm32f1xx_hal_gpio.c **** 
 828              		.loc 1 562 0
 829 0014 F9E7     		b	.L74
 830              	.L79:
 831 0016 00BF     		.align	2
 832              	.L78:
 833 0018 00040140 		.word	1073808384
 834              		.cfi_endproc
 835              	.LFE70:
 836              		.fnend
 838              		.text
 839              	.Letext0:
 840              		.file 2 "e:\\visualstudiocode\\gcc-arm-none-eabi\\arm-none-eabi\\include\\machine\\_default_types.
 841              		.file 3 "e:\\visualstudiocode\\gcc-arm-none-eabi\\arm-none-eabi\\include\\sys\\_stdint.h"
 842              		.file 4 "E:/VisualStudioCode/STM32F1_HAL/Drivers/CMSIS/Include/core_cm3.h"
 843              		.file 5 "E:/VisualStudioCode/STM32F1_HAL/Drivers/CMSIS/Device/ST/STM32F1xx/Include/system_stm32f1x
 844              		.file 6 "E:/VisualStudioCode/STM32F1_HAL/Drivers/CMSIS/Device/ST/STM32F1xx/Include/stm32f103xb.h"
 845              		.file 7 "E:/VisualStudioCode/STM32F1_HAL/Drivers/CMSIS/Device/ST/STM32F1xx/Include/stm32f1xx.h"
 846              		.file 8 "e:\\visualstudiocode\\gcc-arm-none-eabi\\arm-none-eabi\\include\\sys\\lock.h"
 847              		.file 9 "e:\\visualstudiocode\\gcc-arm-none-eabi\\arm-none-eabi\\include\\sys\\_types.h"
 848              		.file 10 "e:\\visualstudiocode\\gcc-arm-none-eabi\\lib\\gcc\\arm-none-eabi\\7.2.1\\include\\stddef
 849              		.file 11 "e:\\visualstudiocode\\gcc-arm-none-eabi\\arm-none-eabi\\include\\sys\\reent.h"
 850              		.file 12 "E:/VisualStudioCode/STM32F1_HAL/Drivers/STM32F1xx_HAL_Driver/Inc/stm32f1xx_hal_def.h"
 851              		.file 13 "E:/VisualStudioCode/STM32F1_HAL/Drivers/STM32F1xx_HAL_Driver/Inc/stm32f1xx_hal_gpio.h"
ARM GAS  C:\Users\ADMINI~1\AppData\Local\Temp\ccXng2ld.s 			page 27

