ARM GAS  C:\Users\ADMINI~1\AppData\Local\Temp\ccocyyvH.s 			page 1


   1              		.cpu cortex-m3
   2              		.eabi_attribute 20, 1
   3              		.eabi_attribute 21, 1
   4              		.eabi_attribute 23, 3
   5              		.eabi_attribute 24, 1
   6              		.eabi_attribute 25, 1
   7              		.eabi_attribute 26, 1
   8              		.eabi_attribute 30, 1
   9              		.eabi_attribute 34, 1
  10              		.eabi_attribute 18, 4
  11              		.file	"stm32f1xx_it.c"
  12              		.text
  13              	.Ltext0:
  14              		.cfi_sections	.debug_frame
  15              		.section	.text.NMI_Handler,"ax",%progbits
  16              		.align	1
  17              		.global	NMI_Handler
  18              		.syntax unified
  19              		.thumb
  20              		.thumb_func
  21              		.fpu softvfp
  23              	NMI_Handler:
  24              		.fnstart
  25              	.LFB64:
  26              		.file 1 "E:/VisualStudioCode/STM32F1_HAL/Src/stm32f1xx_it.c"
   1:E:/VisualStudioCode/STM32F1_HAL/Src\stm32f1xx_it.c **** /**
   2:E:/VisualStudioCode/STM32F1_HAL/Src\stm32f1xx_it.c ****   ******************************************************************************
   3:E:/VisualStudioCode/STM32F1_HAL/Src\stm32f1xx_it.c ****   * @file    stm32f1xx_it.c
   4:E:/VisualStudioCode/STM32F1_HAL/Src\stm32f1xx_it.c ****   * @brief   Interrupt Service Routines.
   5:E:/VisualStudioCode/STM32F1_HAL/Src\stm32f1xx_it.c ****   ******************************************************************************
   6:E:/VisualStudioCode/STM32F1_HAL/Src\stm32f1xx_it.c ****   *
   7:E:/VisualStudioCode/STM32F1_HAL/Src\stm32f1xx_it.c ****   * COPYRIGHT(c) 2018 STMicroelectronics
   8:E:/VisualStudioCode/STM32F1_HAL/Src\stm32f1xx_it.c ****   *
   9:E:/VisualStudioCode/STM32F1_HAL/Src\stm32f1xx_it.c ****   * Redistribution and use in source and binary forms, with or without modification,
  10:E:/VisualStudioCode/STM32F1_HAL/Src\stm32f1xx_it.c ****   * are permitted provided that the following conditions are met:
  11:E:/VisualStudioCode/STM32F1_HAL/Src\stm32f1xx_it.c ****   *   1. Redistributions of source code must retain the above copyright notice,
  12:E:/VisualStudioCode/STM32F1_HAL/Src\stm32f1xx_it.c ****   *      this list of conditions and the following disclaimer.
  13:E:/VisualStudioCode/STM32F1_HAL/Src\stm32f1xx_it.c ****   *   2. Redistributions in binary form must reproduce the above copyright notice,
  14:E:/VisualStudioCode/STM32F1_HAL/Src\stm32f1xx_it.c ****   *      this list of conditions and the following disclaimer in the documentation
  15:E:/VisualStudioCode/STM32F1_HAL/Src\stm32f1xx_it.c ****   *      and/or other materials provided with the distribution.
  16:E:/VisualStudioCode/STM32F1_HAL/Src\stm32f1xx_it.c ****   *   3. Neither the name of STMicroelectronics nor the names of its contributors
  17:E:/VisualStudioCode/STM32F1_HAL/Src\stm32f1xx_it.c ****   *      may be used to endorse or promote products derived from this software
  18:E:/VisualStudioCode/STM32F1_HAL/Src\stm32f1xx_it.c ****   *      without specific prior written permission.
  19:E:/VisualStudioCode/STM32F1_HAL/Src\stm32f1xx_it.c ****   *
  20:E:/VisualStudioCode/STM32F1_HAL/Src\stm32f1xx_it.c ****   * THIS SOFTWARE IS PROVIDED BY THE COPYRIGHT HOLDERS AND CONTRIBUTORS "AS IS"
  21:E:/VisualStudioCode/STM32F1_HAL/Src\stm32f1xx_it.c ****   * AND ANY EXPRESS OR IMPLIED WARRANTIES, INCLUDING, BUT NOT LIMITED TO, THE
  22:E:/VisualStudioCode/STM32F1_HAL/Src\stm32f1xx_it.c ****   * IMPLIED WARRANTIES OF MERCHANTABILITY AND FITNESS FOR A PARTICULAR PURPOSE ARE
  23:E:/VisualStudioCode/STM32F1_HAL/Src\stm32f1xx_it.c ****   * DISCLAIMED. IN NO EVENT SHALL THE COPYRIGHT HOLDER OR CONTRIBUTORS BE LIABLE
  24:E:/VisualStudioCode/STM32F1_HAL/Src\stm32f1xx_it.c ****   * FOR ANY DIRECT, INDIRECT, INCIDENTAL, SPECIAL, EXEMPLARY, OR CONSEQUENTIAL
  25:E:/VisualStudioCode/STM32F1_HAL/Src\stm32f1xx_it.c ****   * DAMAGES (INCLUDING, BUT NOT LIMITED TO, PROCUREMENT OF SUBSTITUTE GOODS OR
  26:E:/VisualStudioCode/STM32F1_HAL/Src\stm32f1xx_it.c ****   * SERVICES; LOSS OF USE, DATA, OR PROFITS; OR BUSINESS INTERRUPTION) HOWEVER
  27:E:/VisualStudioCode/STM32F1_HAL/Src\stm32f1xx_it.c ****   * CAUSED AND ON ANY THEORY OF LIABILITY, WHETHER IN CONTRACT, STRICT LIABILITY,
  28:E:/VisualStudioCode/STM32F1_HAL/Src\stm32f1xx_it.c ****   * OR TORT (INCLUDING NEGLIGENCE OR OTHERWISE) ARISING IN ANY WAY OUT OF THE USE
  29:E:/VisualStudioCode/STM32F1_HAL/Src\stm32f1xx_it.c ****   * OF THIS SOFTWARE, EVEN IF ADVISED OF THE POSSIBILITY OF SUCH DAMAGE.
  30:E:/VisualStudioCode/STM32F1_HAL/Src\stm32f1xx_it.c ****   *
  31:E:/VisualStudioCode/STM32F1_HAL/Src\stm32f1xx_it.c ****   ******************************************************************************
  32:E:/VisualStudioCode/STM32F1_HAL/Src\stm32f1xx_it.c ****   */
ARM GAS  C:\Users\ADMINI~1\AppData\Local\Temp\ccocyyvH.s 			page 2


  33:E:/VisualStudioCode/STM32F1_HAL/Src\stm32f1xx_it.c **** /* Includes ------------------------------------------------------------------*/
  34:E:/VisualStudioCode/STM32F1_HAL/Src\stm32f1xx_it.c **** #include "stm32f1xx_hal.h"
  35:E:/VisualStudioCode/STM32F1_HAL/Src\stm32f1xx_it.c **** #include "stm32f1xx.h"
  36:E:/VisualStudioCode/STM32F1_HAL/Src\stm32f1xx_it.c **** #include "stm32f1xx_it.h"
  37:E:/VisualStudioCode/STM32F1_HAL/Src\stm32f1xx_it.c **** 
  38:E:/VisualStudioCode/STM32F1_HAL/Src\stm32f1xx_it.c **** /* USER CODE BEGIN 0 */
  39:E:/VisualStudioCode/STM32F1_HAL/Src\stm32f1xx_it.c **** 
  40:E:/VisualStudioCode/STM32F1_HAL/Src\stm32f1xx_it.c **** /* USER CODE END 0 */
  41:E:/VisualStudioCode/STM32F1_HAL/Src\stm32f1xx_it.c **** 
  42:E:/VisualStudioCode/STM32F1_HAL/Src\stm32f1xx_it.c **** /* External variables --------------------------------------------------------*/
  43:E:/VisualStudioCode/STM32F1_HAL/Src\stm32f1xx_it.c **** extern DMA_HandleTypeDef hdma_usart1_rx;
  44:E:/VisualStudioCode/STM32F1_HAL/Src\stm32f1xx_it.c **** 
  45:E:/VisualStudioCode/STM32F1_HAL/Src\stm32f1xx_it.c **** /******************************************************************************/
  46:E:/VisualStudioCode/STM32F1_HAL/Src\stm32f1xx_it.c **** /*            Cortex-M3 Processor Interruption and Exception Handlers         */ 
  47:E:/VisualStudioCode/STM32F1_HAL/Src\stm32f1xx_it.c **** /******************************************************************************/
  48:E:/VisualStudioCode/STM32F1_HAL/Src\stm32f1xx_it.c **** 
  49:E:/VisualStudioCode/STM32F1_HAL/Src\stm32f1xx_it.c **** /**
  50:E:/VisualStudioCode/STM32F1_HAL/Src\stm32f1xx_it.c **** * @brief This function handles Non maskable interrupt.
  51:E:/VisualStudioCode/STM32F1_HAL/Src\stm32f1xx_it.c **** */
  52:E:/VisualStudioCode/STM32F1_HAL/Src\stm32f1xx_it.c **** void NMI_Handler(void)
  53:E:/VisualStudioCode/STM32F1_HAL/Src\stm32f1xx_it.c **** {
  27              		.loc 1 53 0
  28              		.cfi_startproc
  29              		@ args = 0, pretend = 0, frame = 0
  30              		@ frame_needed = 0, uses_anonymous_args = 0
  31              		@ link register save eliminated.
  54:E:/VisualStudioCode/STM32F1_HAL/Src\stm32f1xx_it.c ****   /* USER CODE BEGIN NonMaskableInt_IRQn 0 */
  55:E:/VisualStudioCode/STM32F1_HAL/Src\stm32f1xx_it.c **** 
  56:E:/VisualStudioCode/STM32F1_HAL/Src\stm32f1xx_it.c ****   /* USER CODE END NonMaskableInt_IRQn 0 */
  57:E:/VisualStudioCode/STM32F1_HAL/Src\stm32f1xx_it.c ****   /* USER CODE BEGIN NonMaskableInt_IRQn 1 */
  58:E:/VisualStudioCode/STM32F1_HAL/Src\stm32f1xx_it.c **** 
  59:E:/VisualStudioCode/STM32F1_HAL/Src\stm32f1xx_it.c ****   /* USER CODE END NonMaskableInt_IRQn 1 */
  60:E:/VisualStudioCode/STM32F1_HAL/Src\stm32f1xx_it.c **** }
  32              		.loc 1 60 0
  33 0000 7047     		bx	lr
  34              		.cfi_endproc
  35              	.LFE64:
  36              		.cantunwind
  37              		.fnend
  39              		.section	.text.HardFault_Handler,"ax",%progbits
  40              		.align	1
  41              		.global	HardFault_Handler
  42              		.syntax unified
  43              		.thumb
  44              		.thumb_func
  45              		.fpu softvfp
  47              	HardFault_Handler:
  48              		.fnstart
  49              	.LFB65:
  61:E:/VisualStudioCode/STM32F1_HAL/Src\stm32f1xx_it.c **** 
  62:E:/VisualStudioCode/STM32F1_HAL/Src\stm32f1xx_it.c **** /**
  63:E:/VisualStudioCode/STM32F1_HAL/Src\stm32f1xx_it.c **** * @brief This function handles Hard fault interrupt.
  64:E:/VisualStudioCode/STM32F1_HAL/Src\stm32f1xx_it.c **** */
  65:E:/VisualStudioCode/STM32F1_HAL/Src\stm32f1xx_it.c **** void HardFault_Handler(void)
  66:E:/VisualStudioCode/STM32F1_HAL/Src\stm32f1xx_it.c **** {
  50              		.loc 1 66 0
  51              		.cfi_startproc
ARM GAS  C:\Users\ADMINI~1\AppData\Local\Temp\ccocyyvH.s 			page 3


  52              		@ Volatile: function does not return.
  53              		@ args = 0, pretend = 0, frame = 0
  54              		@ frame_needed = 0, uses_anonymous_args = 0
  55              		@ link register save eliminated.
  56              	.L3:
  57 0000 FEE7     		b	.L3
  58              		.cfi_endproc
  59              	.LFE65:
  60              		.cantunwind
  61              		.fnend
  63              		.section	.text.MemManage_Handler,"ax",%progbits
  64              		.align	1
  65              		.global	MemManage_Handler
  66              		.syntax unified
  67              		.thumb
  68              		.thumb_func
  69              		.fpu softvfp
  71              	MemManage_Handler:
  72              		.fnstart
  73              	.LFB66:
  67:E:/VisualStudioCode/STM32F1_HAL/Src\stm32f1xx_it.c ****   /* USER CODE BEGIN HardFault_IRQn 0 */
  68:E:/VisualStudioCode/STM32F1_HAL/Src\stm32f1xx_it.c **** 
  69:E:/VisualStudioCode/STM32F1_HAL/Src\stm32f1xx_it.c ****   /* USER CODE END HardFault_IRQn 0 */
  70:E:/VisualStudioCode/STM32F1_HAL/Src\stm32f1xx_it.c ****   while (1)
  71:E:/VisualStudioCode/STM32F1_HAL/Src\stm32f1xx_it.c ****   {
  72:E:/VisualStudioCode/STM32F1_HAL/Src\stm32f1xx_it.c ****     /* USER CODE BEGIN W1_HardFault_IRQn 0 */
  73:E:/VisualStudioCode/STM32F1_HAL/Src\stm32f1xx_it.c ****     /* USER CODE END W1_HardFault_IRQn 0 */
  74:E:/VisualStudioCode/STM32F1_HAL/Src\stm32f1xx_it.c ****   }
  75:E:/VisualStudioCode/STM32F1_HAL/Src\stm32f1xx_it.c ****   /* USER CODE BEGIN HardFault_IRQn 1 */
  76:E:/VisualStudioCode/STM32F1_HAL/Src\stm32f1xx_it.c **** 
  77:E:/VisualStudioCode/STM32F1_HAL/Src\stm32f1xx_it.c ****   /* USER CODE END HardFault_IRQn 1 */
  78:E:/VisualStudioCode/STM32F1_HAL/Src\stm32f1xx_it.c **** }
  79:E:/VisualStudioCode/STM32F1_HAL/Src\stm32f1xx_it.c **** 
  80:E:/VisualStudioCode/STM32F1_HAL/Src\stm32f1xx_it.c **** /**
  81:E:/VisualStudioCode/STM32F1_HAL/Src\stm32f1xx_it.c **** * @brief This function handles Memory management fault.
  82:E:/VisualStudioCode/STM32F1_HAL/Src\stm32f1xx_it.c **** */
  83:E:/VisualStudioCode/STM32F1_HAL/Src\stm32f1xx_it.c **** void MemManage_Handler(void)
  84:E:/VisualStudioCode/STM32F1_HAL/Src\stm32f1xx_it.c **** {
  74              		.loc 1 84 0
  75              		.cfi_startproc
  76              		@ Volatile: function does not return.
  77              		@ args = 0, pretend = 0, frame = 0
  78              		@ frame_needed = 0, uses_anonymous_args = 0
  79              		@ link register save eliminated.
  80              	.L5:
  81 0000 FEE7     		b	.L5
  82              		.cfi_endproc
  83              	.LFE66:
  84              		.cantunwind
  85              		.fnend
  87              		.section	.text.BusFault_Handler,"ax",%progbits
  88              		.align	1
  89              		.global	BusFault_Handler
  90              		.syntax unified
  91              		.thumb
  92              		.thumb_func
  93              		.fpu softvfp
ARM GAS  C:\Users\ADMINI~1\AppData\Local\Temp\ccocyyvH.s 			page 4


  95              	BusFault_Handler:
  96              		.fnstart
  97              	.LFB67:
  85:E:/VisualStudioCode/STM32F1_HAL/Src\stm32f1xx_it.c ****   /* USER CODE BEGIN MemoryManagement_IRQn 0 */
  86:E:/VisualStudioCode/STM32F1_HAL/Src\stm32f1xx_it.c **** 
  87:E:/VisualStudioCode/STM32F1_HAL/Src\stm32f1xx_it.c ****   /* USER CODE END MemoryManagement_IRQn 0 */
  88:E:/VisualStudioCode/STM32F1_HAL/Src\stm32f1xx_it.c ****   while (1)
  89:E:/VisualStudioCode/STM32F1_HAL/Src\stm32f1xx_it.c ****   {
  90:E:/VisualStudioCode/STM32F1_HAL/Src\stm32f1xx_it.c ****     /* USER CODE BEGIN W1_MemoryManagement_IRQn 0 */
  91:E:/VisualStudioCode/STM32F1_HAL/Src\stm32f1xx_it.c ****     /* USER CODE END W1_MemoryManagement_IRQn 0 */
  92:E:/VisualStudioCode/STM32F1_HAL/Src\stm32f1xx_it.c ****   }
  93:E:/VisualStudioCode/STM32F1_HAL/Src\stm32f1xx_it.c ****   /* USER CODE BEGIN MemoryManagement_IRQn 1 */
  94:E:/VisualStudioCode/STM32F1_HAL/Src\stm32f1xx_it.c **** 
  95:E:/VisualStudioCode/STM32F1_HAL/Src\stm32f1xx_it.c ****   /* USER CODE END MemoryManagement_IRQn 1 */
  96:E:/VisualStudioCode/STM32F1_HAL/Src\stm32f1xx_it.c **** }
  97:E:/VisualStudioCode/STM32F1_HAL/Src\stm32f1xx_it.c **** 
  98:E:/VisualStudioCode/STM32F1_HAL/Src\stm32f1xx_it.c **** /**
  99:E:/VisualStudioCode/STM32F1_HAL/Src\stm32f1xx_it.c **** * @brief This function handles Prefetch fault, memory access fault.
 100:E:/VisualStudioCode/STM32F1_HAL/Src\stm32f1xx_it.c **** */
 101:E:/VisualStudioCode/STM32F1_HAL/Src\stm32f1xx_it.c **** void BusFault_Handler(void)
 102:E:/VisualStudioCode/STM32F1_HAL/Src\stm32f1xx_it.c **** {
  98              		.loc 1 102 0
  99              		.cfi_startproc
 100              		@ Volatile: function does not return.
 101              		@ args = 0, pretend = 0, frame = 0
 102              		@ frame_needed = 0, uses_anonymous_args = 0
 103              		@ link register save eliminated.
 104              	.L7:
 105 0000 FEE7     		b	.L7
 106              		.cfi_endproc
 107              	.LFE67:
 108              		.cantunwind
 109              		.fnend
 111              		.section	.text.UsageFault_Handler,"ax",%progbits
 112              		.align	1
 113              		.global	UsageFault_Handler
 114              		.syntax unified
 115              		.thumb
 116              		.thumb_func
 117              		.fpu softvfp
 119              	UsageFault_Handler:
 120              		.fnstart
 121              	.LFB68:
 103:E:/VisualStudioCode/STM32F1_HAL/Src\stm32f1xx_it.c ****   /* USER CODE BEGIN BusFault_IRQn 0 */
 104:E:/VisualStudioCode/STM32F1_HAL/Src\stm32f1xx_it.c **** 
 105:E:/VisualStudioCode/STM32F1_HAL/Src\stm32f1xx_it.c ****   /* USER CODE END BusFault_IRQn 0 */
 106:E:/VisualStudioCode/STM32F1_HAL/Src\stm32f1xx_it.c ****   while (1)
 107:E:/VisualStudioCode/STM32F1_HAL/Src\stm32f1xx_it.c ****   {
 108:E:/VisualStudioCode/STM32F1_HAL/Src\stm32f1xx_it.c ****     /* USER CODE BEGIN W1_BusFault_IRQn 0 */
 109:E:/VisualStudioCode/STM32F1_HAL/Src\stm32f1xx_it.c ****     /* USER CODE END W1_BusFault_IRQn 0 */
 110:E:/VisualStudioCode/STM32F1_HAL/Src\stm32f1xx_it.c ****   }
 111:E:/VisualStudioCode/STM32F1_HAL/Src\stm32f1xx_it.c ****   /* USER CODE BEGIN BusFault_IRQn 1 */
 112:E:/VisualStudioCode/STM32F1_HAL/Src\stm32f1xx_it.c **** 
 113:E:/VisualStudioCode/STM32F1_HAL/Src\stm32f1xx_it.c ****   /* USER CODE END BusFault_IRQn 1 */
 114:E:/VisualStudioCode/STM32F1_HAL/Src\stm32f1xx_it.c **** }
 115:E:/VisualStudioCode/STM32F1_HAL/Src\stm32f1xx_it.c **** 
 116:E:/VisualStudioCode/STM32F1_HAL/Src\stm32f1xx_it.c **** /**
ARM GAS  C:\Users\ADMINI~1\AppData\Local\Temp\ccocyyvH.s 			page 5


 117:E:/VisualStudioCode/STM32F1_HAL/Src\stm32f1xx_it.c **** * @brief This function handles Undefined instruction or illegal state.
 118:E:/VisualStudioCode/STM32F1_HAL/Src\stm32f1xx_it.c **** */
 119:E:/VisualStudioCode/STM32F1_HAL/Src\stm32f1xx_it.c **** void UsageFault_Handler(void)
 120:E:/VisualStudioCode/STM32F1_HAL/Src\stm32f1xx_it.c **** {
 122              		.loc 1 120 0
 123              		.cfi_startproc
 124              		@ Volatile: function does not return.
 125              		@ args = 0, pretend = 0, frame = 0
 126              		@ frame_needed = 0, uses_anonymous_args = 0
 127              		@ link register save eliminated.
 128              	.L9:
 129 0000 FEE7     		b	.L9
 130              		.cfi_endproc
 131              	.LFE68:
 132              		.cantunwind
 133              		.fnend
 135              		.section	.text.SVC_Handler,"ax",%progbits
 136              		.align	1
 137              		.global	SVC_Handler
 138              		.syntax unified
 139              		.thumb
 140              		.thumb_func
 141              		.fpu softvfp
 143              	SVC_Handler:
 144              		.fnstart
 145              	.LFB69:
 121:E:/VisualStudioCode/STM32F1_HAL/Src\stm32f1xx_it.c ****   /* USER CODE BEGIN UsageFault_IRQn 0 */
 122:E:/VisualStudioCode/STM32F1_HAL/Src\stm32f1xx_it.c **** 
 123:E:/VisualStudioCode/STM32F1_HAL/Src\stm32f1xx_it.c ****   /* USER CODE END UsageFault_IRQn 0 */
 124:E:/VisualStudioCode/STM32F1_HAL/Src\stm32f1xx_it.c ****   while (1)
 125:E:/VisualStudioCode/STM32F1_HAL/Src\stm32f1xx_it.c ****   {
 126:E:/VisualStudioCode/STM32F1_HAL/Src\stm32f1xx_it.c ****     /* USER CODE BEGIN W1_UsageFault_IRQn 0 */
 127:E:/VisualStudioCode/STM32F1_HAL/Src\stm32f1xx_it.c ****     /* USER CODE END W1_UsageFault_IRQn 0 */
 128:E:/VisualStudioCode/STM32F1_HAL/Src\stm32f1xx_it.c ****   }
 129:E:/VisualStudioCode/STM32F1_HAL/Src\stm32f1xx_it.c ****   /* USER CODE BEGIN UsageFault_IRQn 1 */
 130:E:/VisualStudioCode/STM32F1_HAL/Src\stm32f1xx_it.c **** 
 131:E:/VisualStudioCode/STM32F1_HAL/Src\stm32f1xx_it.c ****   /* USER CODE END UsageFault_IRQn 1 */
 132:E:/VisualStudioCode/STM32F1_HAL/Src\stm32f1xx_it.c **** }
 133:E:/VisualStudioCode/STM32F1_HAL/Src\stm32f1xx_it.c **** 
 134:E:/VisualStudioCode/STM32F1_HAL/Src\stm32f1xx_it.c **** /**
 135:E:/VisualStudioCode/STM32F1_HAL/Src\stm32f1xx_it.c **** * @brief This function handles System service call via SWI instruction.
 136:E:/VisualStudioCode/STM32F1_HAL/Src\stm32f1xx_it.c **** */
 137:E:/VisualStudioCode/STM32F1_HAL/Src\stm32f1xx_it.c **** void SVC_Handler(void)
 138:E:/VisualStudioCode/STM32F1_HAL/Src\stm32f1xx_it.c **** {
 146              		.loc 1 138 0
 147              		.cfi_startproc
 148              		@ args = 0, pretend = 0, frame = 0
 149              		@ frame_needed = 0, uses_anonymous_args = 0
 150              		@ link register save eliminated.
 139:E:/VisualStudioCode/STM32F1_HAL/Src\stm32f1xx_it.c ****   /* USER CODE BEGIN SVCall_IRQn 0 */
 140:E:/VisualStudioCode/STM32F1_HAL/Src\stm32f1xx_it.c **** 
 141:E:/VisualStudioCode/STM32F1_HAL/Src\stm32f1xx_it.c ****   /* USER CODE END SVCall_IRQn 0 */
 142:E:/VisualStudioCode/STM32F1_HAL/Src\stm32f1xx_it.c ****   /* USER CODE BEGIN SVCall_IRQn 1 */
 143:E:/VisualStudioCode/STM32F1_HAL/Src\stm32f1xx_it.c **** 
 144:E:/VisualStudioCode/STM32F1_HAL/Src\stm32f1xx_it.c ****   /* USER CODE END SVCall_IRQn 1 */
 145:E:/VisualStudioCode/STM32F1_HAL/Src\stm32f1xx_it.c **** }
 151              		.loc 1 145 0
ARM GAS  C:\Users\ADMINI~1\AppData\Local\Temp\ccocyyvH.s 			page 6


 152 0000 7047     		bx	lr
 153              		.cfi_endproc
 154              	.LFE69:
 155              		.cantunwind
 156              		.fnend
 158              		.section	.text.DebugMon_Handler,"ax",%progbits
 159              		.align	1
 160              		.global	DebugMon_Handler
 161              		.syntax unified
 162              		.thumb
 163              		.thumb_func
 164              		.fpu softvfp
 166              	DebugMon_Handler:
 167              		.fnstart
 168              	.LFB70:
 146:E:/VisualStudioCode/STM32F1_HAL/Src\stm32f1xx_it.c **** 
 147:E:/VisualStudioCode/STM32F1_HAL/Src\stm32f1xx_it.c **** /**
 148:E:/VisualStudioCode/STM32F1_HAL/Src\stm32f1xx_it.c **** * @brief This function handles Debug monitor.
 149:E:/VisualStudioCode/STM32F1_HAL/Src\stm32f1xx_it.c **** */
 150:E:/VisualStudioCode/STM32F1_HAL/Src\stm32f1xx_it.c **** void DebugMon_Handler(void)
 151:E:/VisualStudioCode/STM32F1_HAL/Src\stm32f1xx_it.c **** {
 169              		.loc 1 151 0
 170              		.cfi_startproc
 171              		@ args = 0, pretend = 0, frame = 0
 172              		@ frame_needed = 0, uses_anonymous_args = 0
 173              		@ link register save eliminated.
 152:E:/VisualStudioCode/STM32F1_HAL/Src\stm32f1xx_it.c ****   /* USER CODE BEGIN DebugMonitor_IRQn 0 */
 153:E:/VisualStudioCode/STM32F1_HAL/Src\stm32f1xx_it.c **** 
 154:E:/VisualStudioCode/STM32F1_HAL/Src\stm32f1xx_it.c ****   /* USER CODE END DebugMonitor_IRQn 0 */
 155:E:/VisualStudioCode/STM32F1_HAL/Src\stm32f1xx_it.c ****   /* USER CODE BEGIN DebugMonitor_IRQn 1 */
 156:E:/VisualStudioCode/STM32F1_HAL/Src\stm32f1xx_it.c **** 
 157:E:/VisualStudioCode/STM32F1_HAL/Src\stm32f1xx_it.c ****   /* USER CODE END DebugMonitor_IRQn 1 */
 158:E:/VisualStudioCode/STM32F1_HAL/Src\stm32f1xx_it.c **** }
 174              		.loc 1 158 0
 175 0000 7047     		bx	lr
 176              		.cfi_endproc
 177              	.LFE70:
 178              		.cantunwind
 179              		.fnend
 181              		.section	.text.PendSV_Handler,"ax",%progbits
 182              		.align	1
 183              		.global	PendSV_Handler
 184              		.syntax unified
 185              		.thumb
 186              		.thumb_func
 187              		.fpu softvfp
 189              	PendSV_Handler:
 190              		.fnstart
 191              	.LFB71:
 159:E:/VisualStudioCode/STM32F1_HAL/Src\stm32f1xx_it.c **** 
 160:E:/VisualStudioCode/STM32F1_HAL/Src\stm32f1xx_it.c **** /**
 161:E:/VisualStudioCode/STM32F1_HAL/Src\stm32f1xx_it.c **** * @brief This function handles Pendable request for system service.
 162:E:/VisualStudioCode/STM32F1_HAL/Src\stm32f1xx_it.c **** */
 163:E:/VisualStudioCode/STM32F1_HAL/Src\stm32f1xx_it.c **** void PendSV_Handler(void)
 164:E:/VisualStudioCode/STM32F1_HAL/Src\stm32f1xx_it.c **** {
 192              		.loc 1 164 0
 193              		.cfi_startproc
ARM GAS  C:\Users\ADMINI~1\AppData\Local\Temp\ccocyyvH.s 			page 7


 194              		@ args = 0, pretend = 0, frame = 0
 195              		@ frame_needed = 0, uses_anonymous_args = 0
 196              		@ link register save eliminated.
 165:E:/VisualStudioCode/STM32F1_HAL/Src\stm32f1xx_it.c ****   /* USER CODE BEGIN PendSV_IRQn 0 */
 166:E:/VisualStudioCode/STM32F1_HAL/Src\stm32f1xx_it.c **** 
 167:E:/VisualStudioCode/STM32F1_HAL/Src\stm32f1xx_it.c ****   /* USER CODE END PendSV_IRQn 0 */
 168:E:/VisualStudioCode/STM32F1_HAL/Src\stm32f1xx_it.c ****   /* USER CODE BEGIN PendSV_IRQn 1 */
 169:E:/VisualStudioCode/STM32F1_HAL/Src\stm32f1xx_it.c **** 
 170:E:/VisualStudioCode/STM32F1_HAL/Src\stm32f1xx_it.c ****   /* USER CODE END PendSV_IRQn 1 */
 171:E:/VisualStudioCode/STM32F1_HAL/Src\stm32f1xx_it.c **** }
 197              		.loc 1 171 0
 198 0000 7047     		bx	lr
 199              		.cfi_endproc
 200              	.LFE71:
 201              		.cantunwind
 202              		.fnend
 204              		.section	.text.SysTick_Handler,"ax",%progbits
 205              		.align	1
 206              		.global	SysTick_Handler
 207              		.syntax unified
 208              		.thumb
 209              		.thumb_func
 210              		.fpu softvfp
 212              	SysTick_Handler:
 213              		.fnstart
 214              	.LFB72:
 172:E:/VisualStudioCode/STM32F1_HAL/Src\stm32f1xx_it.c **** 
 173:E:/VisualStudioCode/STM32F1_HAL/Src\stm32f1xx_it.c **** /**
 174:E:/VisualStudioCode/STM32F1_HAL/Src\stm32f1xx_it.c **** * @brief This function handles System tick timer.
 175:E:/VisualStudioCode/STM32F1_HAL/Src\stm32f1xx_it.c **** */
 176:E:/VisualStudioCode/STM32F1_HAL/Src\stm32f1xx_it.c **** void SysTick_Handler(void)
 177:E:/VisualStudioCode/STM32F1_HAL/Src\stm32f1xx_it.c **** {
 215              		.loc 1 177 0
 216              		.cfi_startproc
 217              		@ args = 0, pretend = 0, frame = 0
 218              		@ frame_needed = 0, uses_anonymous_args = 0
 219 0000 08B5     		push	{r3, lr}
 220              		.save {r3, lr}
 221              	.LCFI0:
 222              		.cfi_def_cfa_offset 8
 223              		.cfi_offset 3, -8
 224              		.cfi_offset 14, -4
 178:E:/VisualStudioCode/STM32F1_HAL/Src\stm32f1xx_it.c ****   /* USER CODE BEGIN SysTick_IRQn 0 */
 179:E:/VisualStudioCode/STM32F1_HAL/Src\stm32f1xx_it.c **** 
 180:E:/VisualStudioCode/STM32F1_HAL/Src\stm32f1xx_it.c ****   /* USER CODE END SysTick_IRQn 0 */
 181:E:/VisualStudioCode/STM32F1_HAL/Src\stm32f1xx_it.c ****   HAL_IncTick();
 225              		.loc 1 181 0
 226 0002 FFF7FEFF 		bl	HAL_IncTick
 227              	.LVL0:
 182:E:/VisualStudioCode/STM32F1_HAL/Src\stm32f1xx_it.c ****   HAL_SYSTICK_IRQHandler();
 228              		.loc 1 182 0
 229 0006 FFF7FEFF 		bl	HAL_SYSTICK_IRQHandler
 230              	.LVL1:
 183:E:/VisualStudioCode/STM32F1_HAL/Src\stm32f1xx_it.c ****   /* USER CODE BEGIN SysTick_IRQn 1 */
 184:E:/VisualStudioCode/STM32F1_HAL/Src\stm32f1xx_it.c **** 
 185:E:/VisualStudioCode/STM32F1_HAL/Src\stm32f1xx_it.c ****   /* USER CODE END SysTick_IRQn 1 */
 186:E:/VisualStudioCode/STM32F1_HAL/Src\stm32f1xx_it.c **** }
ARM GAS  C:\Users\ADMINI~1\AppData\Local\Temp\ccocyyvH.s 			page 8


 231              		.loc 1 186 0
 232 000a 08BD     		pop	{r3, pc}
 233              		.cfi_endproc
 234              	.LFE72:
 235              		.fnend
 237              		.section	.text.DMA1_Channel5_IRQHandler,"ax",%progbits
 238              		.align	1
 239              		.global	DMA1_Channel5_IRQHandler
 240              		.syntax unified
 241              		.thumb
 242              		.thumb_func
 243              		.fpu softvfp
 245              	DMA1_Channel5_IRQHandler:
 246              		.fnstart
 247              	.LFB73:
 187:E:/VisualStudioCode/STM32F1_HAL/Src\stm32f1xx_it.c **** 
 188:E:/VisualStudioCode/STM32F1_HAL/Src\stm32f1xx_it.c **** /******************************************************************************/
 189:E:/VisualStudioCode/STM32F1_HAL/Src\stm32f1xx_it.c **** /* STM32F1xx Peripheral Interrupt Handlers                                    */
 190:E:/VisualStudioCode/STM32F1_HAL/Src\stm32f1xx_it.c **** /* Add here the Interrupt Handlers for the used peripherals.                  */
 191:E:/VisualStudioCode/STM32F1_HAL/Src\stm32f1xx_it.c **** /* For the available peripheral interrupt handler names,                      */
 192:E:/VisualStudioCode/STM32F1_HAL/Src\stm32f1xx_it.c **** /* please refer to the startup file (startup_stm32f1xx.s).                    */
 193:E:/VisualStudioCode/STM32F1_HAL/Src\stm32f1xx_it.c **** /******************************************************************************/
 194:E:/VisualStudioCode/STM32F1_HAL/Src\stm32f1xx_it.c **** 
 195:E:/VisualStudioCode/STM32F1_HAL/Src\stm32f1xx_it.c **** /**
 196:E:/VisualStudioCode/STM32F1_HAL/Src\stm32f1xx_it.c **** * @brief This function handles DMA1 channel5 global interrupt.
 197:E:/VisualStudioCode/STM32F1_HAL/Src\stm32f1xx_it.c **** */
 198:E:/VisualStudioCode/STM32F1_HAL/Src\stm32f1xx_it.c **** void DMA1_Channel5_IRQHandler(void)
 199:E:/VisualStudioCode/STM32F1_HAL/Src\stm32f1xx_it.c **** {
 248              		.loc 1 199 0
 249              		.cfi_startproc
 250              		@ args = 0, pretend = 0, frame = 0
 251              		@ frame_needed = 0, uses_anonymous_args = 0
 252 0000 08B5     		push	{r3, lr}
 253              		.save {r3, lr}
 254              	.LCFI1:
 255              		.cfi_def_cfa_offset 8
 256              		.cfi_offset 3, -8
 257              		.cfi_offset 14, -4
 200:E:/VisualStudioCode/STM32F1_HAL/Src\stm32f1xx_it.c ****   /* USER CODE BEGIN DMA1_Channel5_IRQn 0 */
 201:E:/VisualStudioCode/STM32F1_HAL/Src\stm32f1xx_it.c **** 
 202:E:/VisualStudioCode/STM32F1_HAL/Src\stm32f1xx_it.c ****   /* USER CODE END DMA1_Channel5_IRQn 0 */
 203:E:/VisualStudioCode/STM32F1_HAL/Src\stm32f1xx_it.c ****   HAL_DMA_IRQHandler(&hdma_usart1_rx);
 258              		.loc 1 203 0
 259 0002 0248     		ldr	r0, .L17
 260 0004 FFF7FEFF 		bl	HAL_DMA_IRQHandler
 261              	.LVL2:
 204:E:/VisualStudioCode/STM32F1_HAL/Src\stm32f1xx_it.c ****   /* USER CODE BEGIN DMA1_Channel5_IRQn 1 */
 205:E:/VisualStudioCode/STM32F1_HAL/Src\stm32f1xx_it.c **** 
 206:E:/VisualStudioCode/STM32F1_HAL/Src\stm32f1xx_it.c ****   /* USER CODE END DMA1_Channel5_IRQn 1 */
 207:E:/VisualStudioCode/STM32F1_HAL/Src\stm32f1xx_it.c **** }
 262              		.loc 1 207 0
 263 0008 08BD     		pop	{r3, pc}
 264              	.L18:
 265 000a 00BF     		.align	2
 266              	.L17:
 267 000c 00000000 		.word	hdma_usart1_rx
 268              		.cfi_endproc
ARM GAS  C:\Users\ADMINI~1\AppData\Local\Temp\ccocyyvH.s 			page 9


 269              	.LFE73:
 270              		.fnend
 272              		.text
 273              	.Letext0:
 274              		.file 2 "e:\\visualstudiocode\\gcc-arm-none-eabi\\arm-none-eabi\\include\\machine\\_default_types.
 275              		.file 3 "e:\\visualstudiocode\\gcc-arm-none-eabi\\arm-none-eabi\\include\\sys\\_stdint.h"
 276              		.file 4 "E:/VisualStudioCode/STM32F1_HAL/Drivers/CMSIS/Include/core_cm3.h"
 277              		.file 5 "E:/VisualStudioCode/STM32F1_HAL/Drivers/CMSIS/Device/ST/STM32F1xx/Include/system_stm32f1x
 278              		.file 6 "E:/VisualStudioCode/STM32F1_HAL/Drivers/CMSIS/Device/ST/STM32F1xx/Include/stm32f103xb.h"
 279              		.file 7 "e:\\visualstudiocode\\gcc-arm-none-eabi\\arm-none-eabi\\include\\sys\\lock.h"
 280              		.file 8 "e:\\visualstudiocode\\gcc-arm-none-eabi\\arm-none-eabi\\include\\sys\\_types.h"
 281              		.file 9 "e:\\visualstudiocode\\gcc-arm-none-eabi\\lib\\gcc\\arm-none-eabi\\7.2.1\\include\\stddef.
 282              		.file 10 "e:\\visualstudiocode\\gcc-arm-none-eabi\\arm-none-eabi\\include\\sys\\reent.h"
 283              		.file 11 "E:/VisualStudioCode/STM32F1_HAL/Drivers/STM32F1xx_HAL_Driver/Inc/stm32f1xx_hal_def.h"
 284              		.file 12 "E:/VisualStudioCode/STM32F1_HAL/Drivers/STM32F1xx_HAL_Driver/Inc/stm32f1xx_hal_dma.h"
 285              		.file 13 "E:/VisualStudioCode/STM32F1_HAL/Drivers/STM32F1xx_HAL_Driver/Inc/stm32f1xx_hal.h"
 286              		.file 14 "E:/VisualStudioCode/STM32F1_HAL/Drivers/STM32F1xx_HAL_Driver/Inc/stm32f1xx_hal_cortex.h"
ARM GAS  C:\Users\ADMINI~1\AppData\Local\Temp\ccocyyvH.s 			page 10

