ARM GAS  C:\Users\ADMINI~1\AppData\Local\Temp\cc9wtNxc.s 			page 1


   1              		.cpu cortex-m3
   2              		.eabi_attribute 20, 1
   3              		.eabi_attribute 21, 1
   4              		.eabi_attribute 23, 3
   5              		.eabi_attribute 24, 1
   6              		.eabi_attribute 25, 1
   7              		.eabi_attribute 26, 1
   8              		.eabi_attribute 30, 1
   9              		.eabi_attribute 34, 1
  10              		.eabi_attribute 18, 4
  11              		.file	"usart.c"
  12              		.text
  13              	.Ltext0:
  14              		.cfi_sections	.debug_frame
  15              		.section	.text._write,"ax",%progbits
  16              		.align	1
  17              		.global	_write
  18              		.syntax unified
  19              		.thumb
  20              		.thumb_func
  21              		.fpu softvfp
  23              	_write:
  24              		.fnstart
  25              	.LFB64:
  26              		.file 1 "E:/VisualStudioCode/STM32F1_HAL/Src/usart.c"
   1:E:/VisualStudioCode/STM32F1_HAL/Src\usart.c **** /**
   2:E:/VisualStudioCode/STM32F1_HAL/Src\usart.c ****   ******************************************************************************
   3:E:/VisualStudioCode/STM32F1_HAL/Src\usart.c ****   * File Name          : USART.c
   4:E:/VisualStudioCode/STM32F1_HAL/Src\usart.c ****   * Description        : This file provides code for the configuration
   5:E:/VisualStudioCode/STM32F1_HAL/Src\usart.c ****   *                      of the USART instances.
   6:E:/VisualStudioCode/STM32F1_HAL/Src\usart.c ****   ******************************************************************************
   7:E:/VisualStudioCode/STM32F1_HAL/Src\usart.c ****   ** This notice applies to any and all portions of this file
   8:E:/VisualStudioCode/STM32F1_HAL/Src\usart.c ****   * that are not between comment pairs USER CODE BEGIN and
   9:E:/VisualStudioCode/STM32F1_HAL/Src\usart.c ****   * USER CODE END. Other portions of this file, whether 
  10:E:/VisualStudioCode/STM32F1_HAL/Src\usart.c ****   * inserted by the user or by software development tools
  11:E:/VisualStudioCode/STM32F1_HAL/Src\usart.c ****   * are owned by their respective copyright owners.
  12:E:/VisualStudioCode/STM32F1_HAL/Src\usart.c ****   *
  13:E:/VisualStudioCode/STM32F1_HAL/Src\usart.c ****   * COPYRIGHT(c) 2018 STMicroelectronics
  14:E:/VisualStudioCode/STM32F1_HAL/Src\usart.c ****   *
  15:E:/VisualStudioCode/STM32F1_HAL/Src\usart.c ****   * Redistribution and use in source and binary forms, with or without modification,
  16:E:/VisualStudioCode/STM32F1_HAL/Src\usart.c ****   * are permitted provided that the following conditions are met:
  17:E:/VisualStudioCode/STM32F1_HAL/Src\usart.c ****   *   1. Redistributions of source code must retain the above copyright notice,
  18:E:/VisualStudioCode/STM32F1_HAL/Src\usart.c ****   *      this list of conditions and the following disclaimer.
  19:E:/VisualStudioCode/STM32F1_HAL/Src\usart.c ****   *   2. Redistributions in binary form must reproduce the above copyright notice,
  20:E:/VisualStudioCode/STM32F1_HAL/Src\usart.c ****   *      this list of conditions and the following disclaimer in the documentation
  21:E:/VisualStudioCode/STM32F1_HAL/Src\usart.c ****   *      and/or other materials provided with the distribution.
  22:E:/VisualStudioCode/STM32F1_HAL/Src\usart.c ****   *   3. Neither the name of STMicroelectronics nor the names of its contributors
  23:E:/VisualStudioCode/STM32F1_HAL/Src\usart.c ****   *      may be used to endorse or promote products derived from this software
  24:E:/VisualStudioCode/STM32F1_HAL/Src\usart.c ****   *      without specific prior written permission.
  25:E:/VisualStudioCode/STM32F1_HAL/Src\usart.c ****   *
  26:E:/VisualStudioCode/STM32F1_HAL/Src\usart.c ****   * THIS SOFTWARE IS PROVIDED BY THE COPYRIGHT HOLDERS AND CONTRIBUTORS "AS IS"
  27:E:/VisualStudioCode/STM32F1_HAL/Src\usart.c ****   * AND ANY EXPRESS OR IMPLIED WARRANTIES, INCLUDING, BUT NOT LIMITED TO, THE
  28:E:/VisualStudioCode/STM32F1_HAL/Src\usart.c ****   * IMPLIED WARRANTIES OF MERCHANTABILITY AND FITNESS FOR A PARTICULAR PURPOSE ARE
  29:E:/VisualStudioCode/STM32F1_HAL/Src\usart.c ****   * DISCLAIMED. IN NO EVENT SHALL THE COPYRIGHT HOLDER OR CONTRIBUTORS BE LIABLE
  30:E:/VisualStudioCode/STM32F1_HAL/Src\usart.c ****   * FOR ANY DIRECT, INDIRECT, INCIDENTAL, SPECIAL, EXEMPLARY, OR CONSEQUENTIAL
  31:E:/VisualStudioCode/STM32F1_HAL/Src\usart.c ****   * DAMAGES (INCLUDING, BUT NOT LIMITED TO, PROCUREMENT OF SUBSTITUTE GOODS OR
  32:E:/VisualStudioCode/STM32F1_HAL/Src\usart.c ****   * SERVICES; LOSS OF USE, DATA, OR PROFITS; OR BUSINESS INTERRUPTION) HOWEVER
ARM GAS  C:\Users\ADMINI~1\AppData\Local\Temp\cc9wtNxc.s 			page 2


  33:E:/VisualStudioCode/STM32F1_HAL/Src\usart.c ****   * CAUSED AND ON ANY THEORY OF LIABILITY, WHETHER IN CONTRACT, STRICT LIABILITY,
  34:E:/VisualStudioCode/STM32F1_HAL/Src\usart.c ****   * OR TORT (INCLUDING NEGLIGENCE OR OTHERWISE) ARISING IN ANY WAY OUT OF THE USE
  35:E:/VisualStudioCode/STM32F1_HAL/Src\usart.c ****   * OF THIS SOFTWARE, EVEN IF ADVISED OF THE POSSIBILITY OF SUCH DAMAGE.
  36:E:/VisualStudioCode/STM32F1_HAL/Src\usart.c ****   *
  37:E:/VisualStudioCode/STM32F1_HAL/Src\usart.c ****   ******************************************************************************
  38:E:/VisualStudioCode/STM32F1_HAL/Src\usart.c ****   */
  39:E:/VisualStudioCode/STM32F1_HAL/Src\usart.c **** 
  40:E:/VisualStudioCode/STM32F1_HAL/Src\usart.c **** /* Includes ------------------------------------------------------------------*/
  41:E:/VisualStudioCode/STM32F1_HAL/Src\usart.c **** #include "usart.h"
  42:E:/VisualStudioCode/STM32F1_HAL/Src\usart.c **** 
  43:E:/VisualStudioCode/STM32F1_HAL/Src\usart.c **** /* USER CODE BEGIN 0 */
  44:E:/VisualStudioCode/STM32F1_HAL/Src\usart.c **** 
  45:E:/VisualStudioCode/STM32F1_HAL/Src\usart.c **** #include "stdio.h"
  46:E:/VisualStudioCode/STM32F1_HAL/Src\usart.c **** #include "usart.h"
  47:E:/VisualStudioCode/STM32F1_HAL/Src\usart.c **** 
  48:E:/VisualStudioCode/STM32F1_HAL/Src\usart.c **** #ifdef __cplusplus
  49:E:/VisualStudioCode/STM32F1_HAL/Src\usart.c **** extern "C"
  50:E:/VisualStudioCode/STM32F1_HAL/Src\usart.c **** {
  51:E:/VisualStudioCode/STM32F1_HAL/Src\usart.c **** #endif
  52:E:/VisualStudioCode/STM32F1_HAL/Src\usart.c **** 
  53:E:/VisualStudioCode/STM32F1_HAL/Src\usart.c **** //Using printf Send data through serial port
  54:E:/VisualStudioCode/STM32F1_HAL/Src\usart.c **** #ifdef __GNUC__
  55:E:/VisualStudioCode/STM32F1_HAL/Src\usart.c ****   //With GCC, small printf (option LD Linker->Libraries->Small printf
  56:E:/VisualStudioCode/STM32F1_HAL/Src\usart.c ****   //   set to 'Yes') calls __io_putchar()
  57:E:/VisualStudioCode/STM32F1_HAL/Src\usart.c **** 
  58:E:/VisualStudioCode/STM32F1_HAL/Src\usart.c ****   int _write(int file, char *data, int len)
  59:E:/VisualStudioCode/STM32F1_HAL/Src\usart.c ****   {
  27              		.loc 1 59 0
  28              		.cfi_startproc
  29              		@ args = 0, pretend = 0, frame = 0
  30              		@ frame_needed = 0, uses_anonymous_args = 0
  31              	.LVL0:
  32 0000 08B5     		push	{r3, lr}
  33              		.save {r3, lr}
  34              	.LCFI0:
  35              		.cfi_def_cfa_offset 8
  36              		.cfi_offset 3, -8
  37              		.cfi_offset 14, -4
  60:E:/VisualStudioCode/STM32F1_HAL/Src\usart.c ****     //Place your implementation of fputc here
  61:E:/VisualStudioCode/STM32F1_HAL/Src\usart.c ****     //e.g. write a character to the USART1 and Loop until the end of transmission
  62:E:/VisualStudioCode/STM32F1_HAL/Src\usart.c ****     //HAL_UART_Transmit(&huart1, (uint8_t *)&ch, 1, 0xFFFF);
  63:E:/VisualStudioCode/STM32F1_HAL/Src\usart.c ****     uint8_t state = HAL_UART_Transmit(&huart1, (uint8_t *)data, len, 1000);
  38              		.loc 1 63 0
  39 0002 4FF47A73 		mov	r3, #1000
  40 0006 92B2     		uxth	r2, r2
  41              	.LVL1:
  42 0008 0148     		ldr	r0, .L3
  43              	.LVL2:
  44 000a FFF7FEFF 		bl	HAL_UART_Transmit
  45              	.LVL3:
  64:E:/VisualStudioCode/STM32F1_HAL/Src\usart.c ****     return state;
  65:E:/VisualStudioCode/STM32F1_HAL/Src\usart.c ****   }
  46              		.loc 1 65 0
  47 000e 08BD     		pop	{r3, pc}
  48              	.L4:
  49              		.align	2
  50              	.L3:
ARM GAS  C:\Users\ADMINI~1\AppData\Local\Temp\cc9wtNxc.s 			page 3


  51 0010 00000000 		.word	.LANCHOR0
  52              		.cfi_endproc
  53              	.LFE64:
  54              		.fnend
  56              		.section	.text.HAL_UART_MspInit,"ax",%progbits
  57              		.align	1
  58              		.global	HAL_UART_MspInit
  59              		.syntax unified
  60              		.thumb
  61              		.thumb_func
  62              		.fpu softvfp
  64              	HAL_UART_MspInit:
  65              		.fnstart
  66              	.LFB66:
  66:E:/VisualStudioCode/STM32F1_HAL/Src\usart.c **** #else
  67:E:/VisualStudioCode/STM32F1_HAL/Src\usart.c ****   int fputc(int ch, FILE *f)
  68:E:/VisualStudioCode/STM32F1_HAL/Src\usart.c ****   {
  69:E:/VisualStudioCode/STM32F1_HAL/Src\usart.c ****     //Place your implementation of fputc here
  70:E:/VisualStudioCode/STM32F1_HAL/Src\usart.c ****     //e.g. write a character to the USART1 and Loop until the end of transmission
  71:E:/VisualStudioCode/STM32F1_HAL/Src\usart.c ****     HAL_UART_Transmit(&huart1, (uint8_t *)&ch, 1, 0xFFFF);
  72:E:/VisualStudioCode/STM32F1_HAL/Src\usart.c ****     return ch;
  73:E:/VisualStudioCode/STM32F1_HAL/Src\usart.c ****   }
  74:E:/VisualStudioCode/STM32F1_HAL/Src\usart.c **** #endif // __GNUC__
  75:E:/VisualStudioCode/STM32F1_HAL/Src\usart.c **** 
  76:E:/VisualStudioCode/STM32F1_HAL/Src\usart.c **** #ifdef __cplusplus
  77:E:/VisualStudioCode/STM32F1_HAL/Src\usart.c **** }
  78:E:/VisualStudioCode/STM32F1_HAL/Src\usart.c **** #endif
  79:E:/VisualStudioCode/STM32F1_HAL/Src\usart.c **** 
  80:E:/VisualStudioCode/STM32F1_HAL/Src\usart.c **** /* USER CODE END 0 */
  81:E:/VisualStudioCode/STM32F1_HAL/Src\usart.c **** 
  82:E:/VisualStudioCode/STM32F1_HAL/Src\usart.c **** UART_HandleTypeDef huart1;
  83:E:/VisualStudioCode/STM32F1_HAL/Src\usart.c **** DMA_HandleTypeDef hdma_usart1_rx;
  84:E:/VisualStudioCode/STM32F1_HAL/Src\usart.c **** 
  85:E:/VisualStudioCode/STM32F1_HAL/Src\usart.c **** /* USART1 init function */
  86:E:/VisualStudioCode/STM32F1_HAL/Src\usart.c **** 
  87:E:/VisualStudioCode/STM32F1_HAL/Src\usart.c **** void MX_USART1_UART_Init(uint32_t baudRate)
  88:E:/VisualStudioCode/STM32F1_HAL/Src\usart.c **** {
  89:E:/VisualStudioCode/STM32F1_HAL/Src\usart.c ****   MX_UART_DMA_Init();
  90:E:/VisualStudioCode/STM32F1_HAL/Src\usart.c ****   huart1.Instance = USART1;
  91:E:/VisualStudioCode/STM32F1_HAL/Src\usart.c ****   huart1.Init.BaudRate = baudRate;
  92:E:/VisualStudioCode/STM32F1_HAL/Src\usart.c ****   huart1.Init.WordLength = UART_WORDLENGTH_8B;
  93:E:/VisualStudioCode/STM32F1_HAL/Src\usart.c ****   huart1.Init.StopBits = UART_STOPBITS_1;
  94:E:/VisualStudioCode/STM32F1_HAL/Src\usart.c ****   huart1.Init.Parity = UART_PARITY_NONE;
  95:E:/VisualStudioCode/STM32F1_HAL/Src\usart.c ****   huart1.Init.Mode = UART_MODE_TX_RX;
  96:E:/VisualStudioCode/STM32F1_HAL/Src\usart.c ****   huart1.Init.HwFlowCtl = UART_HWCONTROL_NONE;
  97:E:/VisualStudioCode/STM32F1_HAL/Src\usart.c ****   huart1.Init.OverSampling = UART_OVERSAMPLING_16;
  98:E:/VisualStudioCode/STM32F1_HAL/Src\usart.c ****   if (HAL_UART_Init(&huart1) != HAL_OK)
  99:E:/VisualStudioCode/STM32F1_HAL/Src\usart.c ****   {
 100:E:/VisualStudioCode/STM32F1_HAL/Src\usart.c ****     //_Error_Handler(__FILE__, __LINE__);
 101:E:/VisualStudioCode/STM32F1_HAL/Src\usart.c ****   }
 102:E:/VisualStudioCode/STM32F1_HAL/Src\usart.c **** }
 103:E:/VisualStudioCode/STM32F1_HAL/Src\usart.c **** 
 104:E:/VisualStudioCode/STM32F1_HAL/Src\usart.c **** void HAL_UART_MspInit(UART_HandleTypeDef *uartHandle)
 105:E:/VisualStudioCode/STM32F1_HAL/Src\usart.c **** {
  67              		.loc 1 105 0
  68              		.cfi_startproc
  69              		@ args = 0, pretend = 0, frame = 24
ARM GAS  C:\Users\ADMINI~1\AppData\Local\Temp\cc9wtNxc.s 			page 4


  70              		@ frame_needed = 0, uses_anonymous_args = 0
  71              	.LVL4:
  72              	.LBB2:
 106:E:/VisualStudioCode/STM32F1_HAL/Src\usart.c **** 
 107:E:/VisualStudioCode/STM32F1_HAL/Src\usart.c ****   GPIO_InitTypeDef GPIO_InitStruct;
 108:E:/VisualStudioCode/STM32F1_HAL/Src\usart.c ****   if (uartHandle->Instance == USART1)
  73              		.loc 1 108 0
  74 0000 0268     		ldr	r2, [r0]
  75 0002 214B     		ldr	r3, .L12
  76 0004 9A42     		cmp	r2, r3
  77 0006 00D0     		beq	.L11
  78 0008 7047     		bx	lr
  79              	.L11:
  80              	.LBE2:
 105:E:/VisualStudioCode/STM32F1_HAL/Src\usart.c **** 
  81              		.loc 1 105 0
  82 000a 70B5     		push	{r4, r5, r6, lr}
  83              		.save {r4, r5, r6, lr}
  84              	.LCFI1:
  85              		.cfi_def_cfa_offset 16
  86              		.cfi_offset 4, -16
  87              		.cfi_offset 5, -12
  88              		.cfi_offset 6, -8
  89              		.cfi_offset 14, -4
  90              		.pad #24
  91 000c 86B0     		sub	sp, sp, #24
  92              	.LCFI2:
  93              		.cfi_def_cfa_offset 40
  94 000e 0546     		mov	r5, r0
  95              	.LBB6:
  96              	.LBB3:
  97              	.LBB4:
 109:E:/VisualStudioCode/STM32F1_HAL/Src\usart.c ****   {
 110:E:/VisualStudioCode/STM32F1_HAL/Src\usart.c ****     /* USER CODE BEGIN USART1_MspInit 0 */
 111:E:/VisualStudioCode/STM32F1_HAL/Src\usart.c **** 
 112:E:/VisualStudioCode/STM32F1_HAL/Src\usart.c ****     /* USER CODE END USART1_MspInit 0 */
 113:E:/VisualStudioCode/STM32F1_HAL/Src\usart.c ****     /* USART1 clock enable */
 114:E:/VisualStudioCode/STM32F1_HAL/Src\usart.c ****     __HAL_RCC_USART1_CLK_ENABLE();
  98              		.loc 1 114 0
  99 0010 03F55843 		add	r3, r3, #55296
 100 0014 9A69     		ldr	r2, [r3, #24]
 101 0016 42F48042 		orr	r2, r2, #16384
 102 001a 9A61     		str	r2, [r3, #24]
 103 001c 9A69     		ldr	r2, [r3, #24]
 104 001e 02F48042 		and	r2, r2, #16384
 105 0022 0092     		str	r2, [sp]
 106 0024 009A     		ldr	r2, [sp]
 107              	.LBE4:
 108              	.LBB5:
 115:E:/VisualStudioCode/STM32F1_HAL/Src\usart.c ****     __HAL_RCC_GPIOA_CLK_ENABLE();
 109              		.loc 1 115 0
 110 0026 9A69     		ldr	r2, [r3, #24]
 111 0028 42F00402 		orr	r2, r2, #4
 112 002c 9A61     		str	r2, [r3, #24]
 113 002e 9B69     		ldr	r3, [r3, #24]
 114 0030 03F00403 		and	r3, r3, #4
 115 0034 0193     		str	r3, [sp, #4]
ARM GAS  C:\Users\ADMINI~1\AppData\Local\Temp\cc9wtNxc.s 			page 5


 116 0036 019B     		ldr	r3, [sp, #4]
 117              	.LBE5:
 116:E:/VisualStudioCode/STM32F1_HAL/Src\usart.c ****     /**USART1 GPIO Configuration    
 117:E:/VisualStudioCode/STM32F1_HAL/Src\usart.c ****     PA9     ------> USART1_TX
 118:E:/VisualStudioCode/STM32F1_HAL/Src\usart.c ****     PA10     ------> USART1_RX 
 119:E:/VisualStudioCode/STM32F1_HAL/Src\usart.c ****     */
 120:E:/VisualStudioCode/STM32F1_HAL/Src\usart.c ****     GPIO_InitStruct.Pin = GPIO_PIN_9;
 118              		.loc 1 120 0
 119 0038 4FF40073 		mov	r3, #512
 120 003c 0293     		str	r3, [sp, #8]
 121:E:/VisualStudioCode/STM32F1_HAL/Src\usart.c ****     GPIO_InitStruct.Mode = GPIO_MODE_AF_PP;
 121              		.loc 1 121 0
 122 003e 0223     		movs	r3, #2
 123 0040 0393     		str	r3, [sp, #12]
 122:E:/VisualStudioCode/STM32F1_HAL/Src\usart.c ****     GPIO_InitStruct.Speed = GPIO_SPEED_FREQ_HIGH;
 124              		.loc 1 122 0
 125 0042 0323     		movs	r3, #3
 126 0044 0593     		str	r3, [sp, #20]
 123:E:/VisualStudioCode/STM32F1_HAL/Src\usart.c ****     HAL_GPIO_Init(GPIOA, &GPIO_InitStruct);
 127              		.loc 1 123 0
 128 0046 114C     		ldr	r4, .L12+4
 129 0048 02A9     		add	r1, sp, #8
 130 004a 2046     		mov	r0, r4
 131              	.LVL5:
 132 004c FFF7FEFF 		bl	HAL_GPIO_Init
 133              	.LVL6:
 124:E:/VisualStudioCode/STM32F1_HAL/Src\usart.c **** 
 125:E:/VisualStudioCode/STM32F1_HAL/Src\usart.c ****     GPIO_InitStruct.Pin = GPIO_PIN_10;
 134              		.loc 1 125 0
 135 0050 4FF48063 		mov	r3, #1024
 136 0054 0293     		str	r3, [sp, #8]
 126:E:/VisualStudioCode/STM32F1_HAL/Src\usart.c ****     GPIO_InitStruct.Mode = GPIO_MODE_INPUT;
 137              		.loc 1 126 0
 138 0056 0026     		movs	r6, #0
 139 0058 0396     		str	r6, [sp, #12]
 127:E:/VisualStudioCode/STM32F1_HAL/Src\usart.c ****     GPIO_InitStruct.Pull = GPIO_NOPULL;
 140              		.loc 1 127 0
 141 005a 0496     		str	r6, [sp, #16]
 128:E:/VisualStudioCode/STM32F1_HAL/Src\usart.c ****     HAL_GPIO_Init(GPIOA, &GPIO_InitStruct);
 142              		.loc 1 128 0
 143 005c 02A9     		add	r1, sp, #8
 144 005e 2046     		mov	r0, r4
 145 0060 FFF7FEFF 		bl	HAL_GPIO_Init
 146              	.LVL7:
 129:E:/VisualStudioCode/STM32F1_HAL/Src\usart.c **** 
 130:E:/VisualStudioCode/STM32F1_HAL/Src\usart.c ****     /* USART1 DMA Init */
 131:E:/VisualStudioCode/STM32F1_HAL/Src\usart.c ****     /* USART1_RX Init */
 132:E:/VisualStudioCode/STM32F1_HAL/Src\usart.c ****     hdma_usart1_rx.Instance = DMA1_Channel5;
 147              		.loc 1 132 0
 148 0064 0A4C     		ldr	r4, .L12+8
 149 0066 0B4B     		ldr	r3, .L12+12
 150 0068 2360     		str	r3, [r4]
 133:E:/VisualStudioCode/STM32F1_HAL/Src\usart.c ****     hdma_usart1_rx.Init.Direction = DMA_PERIPH_TO_MEMORY;
 151              		.loc 1 133 0
 152 006a 6660     		str	r6, [r4, #4]
 134:E:/VisualStudioCode/STM32F1_HAL/Src\usart.c ****     hdma_usart1_rx.Init.PeriphInc = DMA_PINC_DISABLE;
 153              		.loc 1 134 0
ARM GAS  C:\Users\ADMINI~1\AppData\Local\Temp\cc9wtNxc.s 			page 6


 154 006c A660     		str	r6, [r4, #8]
 135:E:/VisualStudioCode/STM32F1_HAL/Src\usart.c ****     hdma_usart1_rx.Init.MemInc = DMA_MINC_ENABLE;
 155              		.loc 1 135 0
 156 006e 8023     		movs	r3, #128
 157 0070 E360     		str	r3, [r4, #12]
 136:E:/VisualStudioCode/STM32F1_HAL/Src\usart.c ****     hdma_usart1_rx.Init.PeriphDataAlignment = DMA_PDATAALIGN_BYTE;
 158              		.loc 1 136 0
 159 0072 2661     		str	r6, [r4, #16]
 137:E:/VisualStudioCode/STM32F1_HAL/Src\usart.c ****     hdma_usart1_rx.Init.MemDataAlignment = DMA_MDATAALIGN_BYTE;
 160              		.loc 1 137 0
 161 0074 6661     		str	r6, [r4, #20]
 138:E:/VisualStudioCode/STM32F1_HAL/Src\usart.c ****     hdma_usart1_rx.Init.Mode = DMA_NORMAL;
 162              		.loc 1 138 0
 163 0076 A661     		str	r6, [r4, #24]
 139:E:/VisualStudioCode/STM32F1_HAL/Src\usart.c ****     hdma_usart1_rx.Init.Priority = DMA_PRIORITY_LOW;
 164              		.loc 1 139 0
 165 0078 E661     		str	r6, [r4, #28]
 140:E:/VisualStudioCode/STM32F1_HAL/Src\usart.c ****     if (HAL_DMA_Init(&hdma_usart1_rx) != HAL_OK)
 166              		.loc 1 140 0
 167 007a 2046     		mov	r0, r4
 168 007c FFF7FEFF 		bl	HAL_DMA_Init
 169              	.LVL8:
 141:E:/VisualStudioCode/STM32F1_HAL/Src\usart.c ****     {
 142:E:/VisualStudioCode/STM32F1_HAL/Src\usart.c ****       //_Error_Handler(__FILE__, __LINE__);
 143:E:/VisualStudioCode/STM32F1_HAL/Src\usart.c ****     }
 144:E:/VisualStudioCode/STM32F1_HAL/Src\usart.c **** 
 145:E:/VisualStudioCode/STM32F1_HAL/Src\usart.c ****     __HAL_LINKDMA(uartHandle, hdmarx, hdma_usart1_rx);
 170              		.loc 1 145 0
 171 0080 6C63     		str	r4, [r5, #52]
 172 0082 6562     		str	r5, [r4, #36]
 173              	.LBE3:
 174              	.LBE6:
 146:E:/VisualStudioCode/STM32F1_HAL/Src\usart.c **** 
 147:E:/VisualStudioCode/STM32F1_HAL/Src\usart.c ****     /* USER CODE BEGIN USART1_MspInit 1 */
 148:E:/VisualStudioCode/STM32F1_HAL/Src\usart.c **** 
 149:E:/VisualStudioCode/STM32F1_HAL/Src\usart.c ****     /* USER CODE END USART1_MspInit 1 */
 150:E:/VisualStudioCode/STM32F1_HAL/Src\usart.c ****   }
 151:E:/VisualStudioCode/STM32F1_HAL/Src\usart.c **** }
 175              		.loc 1 151 0
 176 0084 06B0     		add	sp, sp, #24
 177              	.LCFI3:
 178              		.cfi_def_cfa_offset 16
 179              		@ sp needed
 180 0086 70BD     		pop	{r4, r5, r6, pc}
 181              	.LVL9:
 182              	.L13:
 183              		.align	2
 184              	.L12:
 185 0088 00380140 		.word	1073821696
 186 008c 00080140 		.word	1073809408
 187 0090 00000000 		.word	.LANCHOR1
 188 0094 58000240 		.word	1073872984
 189              		.cfi_endproc
 190              	.LFE66:
 191              		.fnend
 193              		.section	.text.HAL_UART_MspDeInit,"ax",%progbits
 194              		.align	1
ARM GAS  C:\Users\ADMINI~1\AppData\Local\Temp\cc9wtNxc.s 			page 7


 195              		.global	HAL_UART_MspDeInit
 196              		.syntax unified
 197              		.thumb
 198              		.thumb_func
 199              		.fpu softvfp
 201              	HAL_UART_MspDeInit:
 202              		.fnstart
 203              	.LFB67:
 152:E:/VisualStudioCode/STM32F1_HAL/Src\usart.c **** 
 153:E:/VisualStudioCode/STM32F1_HAL/Src\usart.c **** void HAL_UART_MspDeInit(UART_HandleTypeDef *uartHandle)
 154:E:/VisualStudioCode/STM32F1_HAL/Src\usart.c **** {
 204              		.loc 1 154 0
 205              		.cfi_startproc
 206              		@ args = 0, pretend = 0, frame = 0
 207              		@ frame_needed = 0, uses_anonymous_args = 0
 208              	.LVL10:
 155:E:/VisualStudioCode/STM32F1_HAL/Src\usart.c **** 
 156:E:/VisualStudioCode/STM32F1_HAL/Src\usart.c ****   if (uartHandle->Instance == USART1)
 209              		.loc 1 156 0
 210 0000 0268     		ldr	r2, [r0]
 211 0002 0A4B     		ldr	r3, .L21
 212 0004 9A42     		cmp	r2, r3
 213 0006 00D0     		beq	.L20
 214 0008 7047     		bx	lr
 215              	.L20:
 154:E:/VisualStudioCode/STM32F1_HAL/Src\usart.c **** 
 216              		.loc 1 154 0
 217 000a 10B5     		push	{r4, lr}
 218              		.save {r4, lr}
 219              	.LCFI4:
 220              		.cfi_def_cfa_offset 8
 221              		.cfi_offset 4, -8
 222              		.cfi_offset 14, -4
 223 000c 0446     		mov	r4, r0
 157:E:/VisualStudioCode/STM32F1_HAL/Src\usart.c ****   {
 158:E:/VisualStudioCode/STM32F1_HAL/Src\usart.c ****     /* USER CODE BEGIN USART1_MspDeInit 0 */
 159:E:/VisualStudioCode/STM32F1_HAL/Src\usart.c **** 
 160:E:/VisualStudioCode/STM32F1_HAL/Src\usart.c ****     /* USER CODE END USART1_MspDeInit 0 */
 161:E:/VisualStudioCode/STM32F1_HAL/Src\usart.c ****     /* Peripheral clock disable */
 162:E:/VisualStudioCode/STM32F1_HAL/Src\usart.c ****     __HAL_RCC_USART1_CLK_DISABLE();
 224              		.loc 1 162 0
 225 000e 084A     		ldr	r2, .L21+4
 226 0010 9369     		ldr	r3, [r2, #24]
 227 0012 23F48043 		bic	r3, r3, #16384
 228 0016 9361     		str	r3, [r2, #24]
 163:E:/VisualStudioCode/STM32F1_HAL/Src\usart.c **** 
 164:E:/VisualStudioCode/STM32F1_HAL/Src\usart.c ****     /**USART1 GPIO Configuration    
 165:E:/VisualStudioCode/STM32F1_HAL/Src\usart.c ****     PA9     ------> USART1_TX
 166:E:/VisualStudioCode/STM32F1_HAL/Src\usart.c ****     PA10     ------> USART1_RX 
 167:E:/VisualStudioCode/STM32F1_HAL/Src\usart.c ****     */
 168:E:/VisualStudioCode/STM32F1_HAL/Src\usart.c ****     HAL_GPIO_DeInit(GPIOA, GPIO_PIN_9 | GPIO_PIN_10);
 229              		.loc 1 168 0
 230 0018 4FF4C061 		mov	r1, #1536
 231 001c 0548     		ldr	r0, .L21+8
 232              	.LVL11:
 233 001e FFF7FEFF 		bl	HAL_GPIO_DeInit
 234              	.LVL12:
ARM GAS  C:\Users\ADMINI~1\AppData\Local\Temp\cc9wtNxc.s 			page 8


 169:E:/VisualStudioCode/STM32F1_HAL/Src\usart.c **** 
 170:E:/VisualStudioCode/STM32F1_HAL/Src\usart.c ****     /* USART1 DMA DeInit */
 171:E:/VisualStudioCode/STM32F1_HAL/Src\usart.c ****     HAL_DMA_DeInit(uartHandle->hdmarx);
 235              		.loc 1 171 0
 236 0022 606B     		ldr	r0, [r4, #52]
 237 0024 FFF7FEFF 		bl	HAL_DMA_DeInit
 238              	.LVL13:
 172:E:/VisualStudioCode/STM32F1_HAL/Src\usart.c ****     /* USER CODE BEGIN USART1_MspDeInit 1 */
 173:E:/VisualStudioCode/STM32F1_HAL/Src\usart.c **** 
 174:E:/VisualStudioCode/STM32F1_HAL/Src\usart.c ****     /* USER CODE END USART1_MspDeInit 1 */
 175:E:/VisualStudioCode/STM32F1_HAL/Src\usart.c ****   }
 176:E:/VisualStudioCode/STM32F1_HAL/Src\usart.c **** }
 239              		.loc 1 176 0
 240 0028 10BD     		pop	{r4, pc}
 241              	.LVL14:
 242              	.L22:
 243 002a 00BF     		.align	2
 244              	.L21:
 245 002c 00380140 		.word	1073821696
 246 0030 00100240 		.word	1073876992
 247 0034 00080140 		.word	1073809408
 248              		.cfi_endproc
 249              	.LFE67:
 250              		.fnend
 252              		.section	.text.MX_UART_DMA_Init,"ax",%progbits
 253              		.align	1
 254              		.global	MX_UART_DMA_Init
 255              		.syntax unified
 256              		.thumb
 257              		.thumb_func
 258              		.fpu softvfp
 260              	MX_UART_DMA_Init:
 261              		.fnstart
 262              	.LFB68:
 177:E:/VisualStudioCode/STM32F1_HAL/Src\usart.c **** 
 178:E:/VisualStudioCode/STM32F1_HAL/Src\usart.c **** void MX_UART_DMA_Init(void)
 179:E:/VisualStudioCode/STM32F1_HAL/Src\usart.c **** {
 263              		.loc 1 179 0
 264              		.cfi_startproc
 265              		@ args = 0, pretend = 0, frame = 8
 266              		@ frame_needed = 0, uses_anonymous_args = 0
 267 0000 00B5     		push	{lr}
 268              		.save {lr}
 269              	.LCFI5:
 270              		.cfi_def_cfa_offset 4
 271              		.cfi_offset 14, -4
 272              		.pad #12
 273 0002 83B0     		sub	sp, sp, #12
 274              	.LCFI6:
 275              		.cfi_def_cfa_offset 16
 276              	.LBB7:
 180:E:/VisualStudioCode/STM32F1_HAL/Src\usart.c ****   /* DMA controller clock enable */
 181:E:/VisualStudioCode/STM32F1_HAL/Src\usart.c ****   __HAL_RCC_DMA1_CLK_ENABLE();
 277              		.loc 1 181 0
 278 0004 0A4B     		ldr	r3, .L25
 279 0006 5A69     		ldr	r2, [r3, #20]
 280 0008 42F00102 		orr	r2, r2, #1
ARM GAS  C:\Users\ADMINI~1\AppData\Local\Temp\cc9wtNxc.s 			page 9


 281 000c 5A61     		str	r2, [r3, #20]
 282 000e 5B69     		ldr	r3, [r3, #20]
 283 0010 03F00103 		and	r3, r3, #1
 284 0014 0193     		str	r3, [sp, #4]
 285 0016 019B     		ldr	r3, [sp, #4]
 286              	.LBE7:
 182:E:/VisualStudioCode/STM32F1_HAL/Src\usart.c **** 
 183:E:/VisualStudioCode/STM32F1_HAL/Src\usart.c ****   /* DMA interrupt init */
 184:E:/VisualStudioCode/STM32F1_HAL/Src\usart.c ****   /* DMA1_Channel5_IRQn interrupt configuration */
 185:E:/VisualStudioCode/STM32F1_HAL/Src\usart.c ****   HAL_NVIC_SetPriority(DMA1_Channel5_IRQn, 0, 0);
 287              		.loc 1 185 0
 288 0018 0022     		movs	r2, #0
 289 001a 1146     		mov	r1, r2
 290 001c 0F20     		movs	r0, #15
 291 001e FFF7FEFF 		bl	HAL_NVIC_SetPriority
 292              	.LVL15:
 186:E:/VisualStudioCode/STM32F1_HAL/Src\usart.c ****   HAL_NVIC_EnableIRQ(DMA1_Channel5_IRQn);
 293              		.loc 1 186 0
 294 0022 0F20     		movs	r0, #15
 295 0024 FFF7FEFF 		bl	HAL_NVIC_EnableIRQ
 296              	.LVL16:
 187:E:/VisualStudioCode/STM32F1_HAL/Src\usart.c **** }
 297              		.loc 1 187 0
 298 0028 03B0     		add	sp, sp, #12
 299              	.LCFI7:
 300              		.cfi_def_cfa_offset 4
 301              		@ sp needed
 302 002a 5DF804FB 		ldr	pc, [sp], #4
 303              	.L26:
 304 002e 00BF     		.align	2
 305              	.L25:
 306 0030 00100240 		.word	1073876992
 307              		.cfi_endproc
 308              	.LFE68:
 309              		.fnend
 311              		.section	.text.MX_USART1_UART_Init,"ax",%progbits
 312              		.align	1
 313              		.global	MX_USART1_UART_Init
 314              		.syntax unified
 315              		.thumb
 316              		.thumb_func
 317              		.fpu softvfp
 319              	MX_USART1_UART_Init:
 320              		.fnstart
 321              	.LFB65:
  88:E:/VisualStudioCode/STM32F1_HAL/Src\usart.c ****   MX_UART_DMA_Init();
 322              		.loc 1 88 0
 323              		.cfi_startproc
 324              		@ args = 0, pretend = 0, frame = 0
 325              		@ frame_needed = 0, uses_anonymous_args = 0
 326              	.LVL17:
 327 0000 10B5     		push	{r4, lr}
 328              		.save {r4, lr}
 329              	.LCFI8:
 330              		.cfi_def_cfa_offset 8
 331              		.cfi_offset 4, -8
 332              		.cfi_offset 14, -4
ARM GAS  C:\Users\ADMINI~1\AppData\Local\Temp\cc9wtNxc.s 			page 10


 333 0002 0446     		mov	r4, r0
  89:E:/VisualStudioCode/STM32F1_HAL/Src\usart.c ****   huart1.Instance = USART1;
 334              		.loc 1 89 0
 335 0004 FFF7FEFF 		bl	MX_UART_DMA_Init
 336              	.LVL18:
  90:E:/VisualStudioCode/STM32F1_HAL/Src\usart.c ****   huart1.Init.BaudRate = baudRate;
 337              		.loc 1 90 0
 338 0008 0748     		ldr	r0, .L29
 339 000a 084B     		ldr	r3, .L29+4
 340 000c 0360     		str	r3, [r0]
  91:E:/VisualStudioCode/STM32F1_HAL/Src\usart.c ****   huart1.Init.WordLength = UART_WORDLENGTH_8B;
 341              		.loc 1 91 0
 342 000e 4460     		str	r4, [r0, #4]
  92:E:/VisualStudioCode/STM32F1_HAL/Src\usart.c ****   huart1.Init.StopBits = UART_STOPBITS_1;
 343              		.loc 1 92 0
 344 0010 0023     		movs	r3, #0
 345 0012 8360     		str	r3, [r0, #8]
  93:E:/VisualStudioCode/STM32F1_HAL/Src\usart.c ****   huart1.Init.Parity = UART_PARITY_NONE;
 346              		.loc 1 93 0
 347 0014 C360     		str	r3, [r0, #12]
  94:E:/VisualStudioCode/STM32F1_HAL/Src\usart.c ****   huart1.Init.Mode = UART_MODE_TX_RX;
 348              		.loc 1 94 0
 349 0016 0361     		str	r3, [r0, #16]
  95:E:/VisualStudioCode/STM32F1_HAL/Src\usart.c ****   huart1.Init.HwFlowCtl = UART_HWCONTROL_NONE;
 350              		.loc 1 95 0
 351 0018 0C22     		movs	r2, #12
 352 001a 4261     		str	r2, [r0, #20]
  96:E:/VisualStudioCode/STM32F1_HAL/Src\usart.c ****   huart1.Init.OverSampling = UART_OVERSAMPLING_16;
 353              		.loc 1 96 0
 354 001c 8361     		str	r3, [r0, #24]
  97:E:/VisualStudioCode/STM32F1_HAL/Src\usart.c ****   if (HAL_UART_Init(&huart1) != HAL_OK)
 355              		.loc 1 97 0
 356 001e C361     		str	r3, [r0, #28]
  98:E:/VisualStudioCode/STM32F1_HAL/Src\usart.c ****   {
 357              		.loc 1 98 0
 358 0020 FFF7FEFF 		bl	HAL_UART_Init
 359              	.LVL19:
 102:E:/VisualStudioCode/STM32F1_HAL/Src\usart.c **** 
 360              		.loc 1 102 0
 361 0024 10BD     		pop	{r4, pc}
 362              	.LVL20:
 363              	.L30:
 364 0026 00BF     		.align	2
 365              	.L29:
 366 0028 00000000 		.word	.LANCHOR0
 367 002c 00380140 		.word	1073821696
 368              		.cfi_endproc
 369              	.LFE65:
 370              		.fnend
 372              		.global	hdma_usart1_rx
 373              		.global	huart1
 374              		.section	.bss.hdma_usart1_rx,"aw",%nobits
 375              		.align	2
 376              		.set	.LANCHOR1,. + 0
 379              	hdma_usart1_rx:
 380 0000 00000000 		.space	68
 380      00000000 
ARM GAS  C:\Users\ADMINI~1\AppData\Local\Temp\cc9wtNxc.s 			page 11


 380      00000000 
 380      00000000 
 380      00000000 
 381              		.section	.bss.huart1,"aw",%nobits
 382              		.align	2
 383              		.set	.LANCHOR0,. + 0
 386              	huart1:
 387 0000 00000000 		.space	64
 387      00000000 
 387      00000000 
 387      00000000 
 387      00000000 
 388              		.text
 389              	.Letext0:
 390              		.file 2 "E:/VisualStudioCode/STM32F1_HAL/Drivers/CMSIS/Device/ST/STM32F1xx/Include/stm32f103xb.h"
 391              		.file 3 "e:\\visualstudiocode\\gcc-arm-none-eabi\\arm-none-eabi\\include\\machine\\_default_types.
 392              		.file 4 "e:\\visualstudiocode\\gcc-arm-none-eabi\\arm-none-eabi\\include\\sys\\_stdint.h"
 393              		.file 5 "E:/VisualStudioCode/STM32F1_HAL/Drivers/CMSIS/Include/core_cm3.h"
 394              		.file 6 "E:/VisualStudioCode/STM32F1_HAL/Drivers/CMSIS/Device/ST/STM32F1xx/Include/system_stm32f1x
 395              		.file 7 "E:/VisualStudioCode/STM32F1_HAL/Drivers/CMSIS/Device/ST/STM32F1xx/Include/stm32f1xx.h"
 396              		.file 8 "e:\\visualstudiocode\\gcc-arm-none-eabi\\arm-none-eabi\\include\\sys\\lock.h"
 397              		.file 9 "e:\\visualstudiocode\\gcc-arm-none-eabi\\arm-none-eabi\\include\\sys\\_types.h"
 398              		.file 10 "e:\\visualstudiocode\\gcc-arm-none-eabi\\lib\\gcc\\arm-none-eabi\\7.2.1\\include\\stddef
 399              		.file 11 "e:\\visualstudiocode\\gcc-arm-none-eabi\\arm-none-eabi\\include\\sys\\reent.h"
 400              		.file 12 "E:/VisualStudioCode/STM32F1_HAL/Drivers/STM32F1xx_HAL_Driver/Inc/stm32f1xx_hal_def.h"
 401              		.file 13 "E:/VisualStudioCode/STM32F1_HAL/Drivers/STM32F1xx_HAL_Driver/Inc/stm32f1xx_hal_gpio.h"
 402              		.file 14 "E:/VisualStudioCode/STM32F1_HAL/Drivers/STM32F1xx_HAL_Driver/Inc/stm32f1xx_hal_dma.h"
 403              		.file 15 "E:/VisualStudioCode/STM32F1_HAL/Drivers/STM32F1xx_HAL_Driver/Inc/stm32f1xx_hal_uart.h"
 404              		.file 16 "E:/VisualStudioCode/STM32F1_HAL/Drivers/STM32F1xx_HAL_Driver/Inc/stm32f1xx_hal.h"
 405              		.file 17 "E:/VisualStudioCode/STM32F1_HAL/Src/Inc/usart.h"
 406              		.file 18 "E:/VisualStudioCode/STM32F1_HAL/Drivers/STM32F1xx_HAL_Driver/Inc/stm32f1xx_hal_cortex.h"
ARM GAS  C:\Users\ADMINI~1\AppData\Local\Temp\cc9wtNxc.s 			page 12

